
legocar_firmware_microc.elf:     file format elf32-littlenios2
legocar_firmware_microc.elf
architecture: nios2, flags 0x00000112:
EXEC_P, HAS_SYMS, D_PAGED
start address 0x020001bc

Program Header:
    LOAD off    0x00001000 vaddr 0x02000000 paddr 0x02000000 align 2**12
         filesz 0x00000020 memsz 0x00000020 flags r-x
    LOAD off    0x00001020 vaddr 0x02000020 paddr 0x02000020 align 2**12
         filesz 0x0001c9d4 memsz 0x0001c9d4 flags r-x
    LOAD off    0x0001d9f4 vaddr 0x0201c9f4 paddr 0x0201e684 align 2**12
         filesz 0x00001c90 memsz 0x00001c90 flags rw-
    LOAD off    0x00020314 vaddr 0x02020314 paddr 0x02020314 align 2**12
         filesz 0x00000000 memsz 0x000066e4 flags rw-

Sections:
Idx Name          Size      VMA       LMA       File off  Algn
  0 .entry        00000020  02000000  02000000  00001000  2**5
                  CONTENTS, ALLOC, LOAD, READONLY, CODE
  1 .exceptions   0000019c  02000020  02000020  00001020  2**2
                  CONTENTS, ALLOC, LOAD, READONLY, CODE
  2 .text         0001bf7c  020001bc  020001bc  000011bc  2**2
                  CONTENTS, ALLOC, LOAD, READONLY, CODE
  3 .rodata       000008bc  0201c138  0201c138  0001d138  2**2
                  CONTENTS, ALLOC, LOAD, READONLY, DATA
  4 .rwdata       00001c90  0201c9f4  0201e684  0001d9f4  2**2
                  CONTENTS, ALLOC, LOAD, DATA, SMALL_DATA
  5 .bss          000066e4  02020314  02020314  00020314  2**2
                  ALLOC, SMALL_DATA
  6 .comment      00000023  00000000  00000000  0001f684  2**0
                  CONTENTS, READONLY
  7 .debug_aranges 00001458  00000000  00000000  0001f6a8  2**3
                  CONTENTS, READONLY, DEBUGGING
  8 .debug_info   00039ec9  00000000  00000000  00020b00  2**0
                  CONTENTS, READONLY, DEBUGGING
  9 .debug_abbrev 0000e981  00000000  00000000  0005a9c9  2**0
                  CONTENTS, READONLY, DEBUGGING
 10 .debug_line   000106be  00000000  00000000  0006934a  2**0
                  CONTENTS, READONLY, DEBUGGING
 11 .debug_frame  000034bc  00000000  00000000  00079a08  2**2
                  CONTENTS, READONLY, DEBUGGING
 12 .debug_str    0000534d  00000000  00000000  0007cec4  2**0
                  CONTENTS, READONLY, DEBUGGING
 13 .debug_loc    000162cf  00000000  00000000  00082211  2**0
                  CONTENTS, READONLY, DEBUGGING
 14 .debug_alt_sim_info 00000040  00000000  00000000  000984e0  2**2
                  CONTENTS, READONLY, DEBUGGING
 15 .debug_ranges 00000bc8  00000000  00000000  00098520  2**3
                  CONTENTS, READONLY, DEBUGGING
 16 .thread_model 00000006  00000000  00000000  0009ee1c  2**0
                  CONTENTS, READONLY
 17 .cpu          00000003  00000000  00000000  0009ee22  2**0
                  CONTENTS, READONLY
 18 .simulation_enabled 00000001  00000000  00000000  0009ee25  2**0
                  CONTENTS, READONLY
 19 .sysid_hash   00000004  00000000  00000000  0009ee26  2**0
                  CONTENTS, READONLY
 20 .sysid_base   00000004  00000000  00000000  0009ee2a  2**0
                  CONTENTS, READONLY
 21 .sysid_time   00000004  00000000  00000000  0009ee2e  2**0
                  CONTENTS, READONLY
 22 .stderr_dev   00000009  00000000  00000000  0009ee32  2**0
                  CONTENTS, READONLY
 23 .stdin_dev    00000009  00000000  00000000  0009ee3b  2**0
                  CONTENTS, READONLY
 24 .stdout_dev   00000009  00000000  00000000  0009ee44  2**0
                  CONTENTS, READONLY
 25 .sopc_system_name 0000000d  00000000  00000000  0009ee4d  2**0
                  CONTENTS, READONLY
 26 .quartus_project_dir 00000037  00000000  00000000  0009ee5a  2**0
                  CONTENTS, READONLY
 27 .sopcinfo     000b5da3  00000000  00000000  0009ee91  2**0
                  CONTENTS, READONLY
SYMBOL TABLE:
02000000 l    d  .entry	00000000 .entry
02000020 l    d  .exceptions	00000000 .exceptions
020001bc l    d  .text	00000000 .text
0201c138 l    d  .rodata	00000000 .rodata
0201c9f4 l    d  .rwdata	00000000 .rwdata
02020314 l    d  .bss	00000000 .bss
00000000 l    d  .comment	00000000 .comment
00000000 l    d  .debug_aranges	00000000 .debug_aranges
00000000 l    d  .debug_info	00000000 .debug_info
00000000 l    d  .debug_abbrev	00000000 .debug_abbrev
00000000 l    d  .debug_line	00000000 .debug_line
00000000 l    d  .debug_frame	00000000 .debug_frame
00000000 l    d  .debug_str	00000000 .debug_str
00000000 l    d  .debug_loc	00000000 .debug_loc
00000000 l    d  .debug_alt_sim_info	00000000 .debug_alt_sim_info
00000000 l    d  .debug_ranges	00000000 .debug_ranges
00000000 l    df *ABS*	00000000 ../legocar_firmware_microc_bsp//obj/HAL/src/crt0.o
020001f4 l       .text	00000000 alt_after_alt_main
00000000 l    df *ABS*	00000000 alt_exception_entry.o
02000094 l       .exceptions	00000000 alt_exception_unknown
00000000 l    df *ABS*	00000000 alt_irq_handler.c
00000000 l    df *ABS*	00000000 ins.c
00000000 l    df *ABS*	00000000 legocar.c
00000000 l    df *ABS*	00000000 main.c
00000000 l    df *ABS*	00000000 pwm_motor.c
0201c36c l     O .rodata	0000000a __func__.2335
00000000 l    df *ABS*	00000000 I2C.c
00000000 l    df *ABS*	00000000 accelerometer_adxl345_spi.c
00000000 l    df *ABS*	00000000 adc_spi_read.c
00000000 l    df *ABS*	00000000 flash.c
00000000 l    df *ABS*	00000000 terasic_spi.c
00000000 l    df *ABS*	00000000 wheel_direction.c
00000000 l    df *ABS*	00000000 libgcc2.c
00000000 l    df *ABS*	00000000 fp-bit.c
02003698 l     F .text	000001f4 _fpadd_parts
00000000 l    df *ABS*	00000000 fp-bit.c
00000000 l    df *ABS*	00000000 fp-bit.c
00000000 l    df *ABS*	00000000 fp-bit.c
00000000 l    df *ABS*	00000000 fp-bit.c
00000000 l    df *ABS*	00000000 fp-bit.c
00000000 l    df *ABS*	00000000 fp-bit.c
00000000 l    df *ABS*	00000000 fp-bit.c
00000000 l    df *ABS*	00000000 fp-bit.c
00000000 l    df *ABS*	00000000 fp-bit.c
02003d88 l     F .text	00000354 _fpadd_parts
00000000 l    df *ABS*	00000000 fp-bit.c
00000000 l    df *ABS*	00000000 fp-bit.c
00000000 l    df *ABS*	00000000 fp-bit.c
00000000 l    df *ABS*	00000000 fp-bit.c
00000000 l    df *ABS*	00000000 fp-bit.c
00000000 l    df *ABS*	00000000 fp-bit.c
00000000 l    df *ABS*	00000000 fp-bit.c
00000000 l    df *ABS*	00000000 fp-bit.c
00000000 l    df *ABS*	00000000 fp-bit.c
00000000 l    df *ABS*	00000000 lib2-divmod.c
02004928 l     F .text	00000074 udivmodsi4
00000000 l    df *ABS*	00000000 libgcc2.c
00000000 l    df *ABS*	00000000 libgcc2.c
00000000 l    df *ABS*	00000000 fp-bit.c
00000000 l    df *ABS*	00000000 fp-bit.c
00000000 l    df *ABS*	00000000 fp-bit.c
00000000 l    df *ABS*	00000000 fp-bit.c
00000000 l    df *ABS*	00000000 fp-bit.c
00000000 l    df *ABS*	00000000 fp-bit.c
00000000 l    df *ABS*	00000000 fp-bit.c
00000000 l    df *ABS*	00000000 lib2-mul.c
00000000 l    df *ABS*	00000000 libgcc2.c
00000000 l    df *ABS*	00000000 libgcc2.c
00000000 l    df *ABS*	00000000 libgcc2.c
00000000 l    df *ABS*	00000000 assert.c
00000000 l    df *ABS*	00000000 fiprintf.c
00000000 l    df *ABS*	00000000 impure.c
0201c9f4 l     O .rwdata	00000400 impure_data
00000000 l    df *ABS*	00000000 malloc.c
00000000 l    df *ABS*	00000000 mallocr.c
00000000 l    df *ABS*	00000000 printf.c
00000000 l    df *ABS*	00000000 puts.c
00000000 l    df *ABS*	00000000 sbrkr.c
00000000 l    df *ABS*	00000000 strlen.c
00000000 l    df *ABS*	00000000 vfiprintfr_1.c
00000000 l    df *ABS*	00000000 vfprintf.c
02005e24 l     F .text	00000034 __sprint_r
0201c6d6 l     O .rodata	00000010 blanks.3515
0201c6e6 l     O .rodata	00000010 zeroes.3516
00000000 l    df *ABS*	00000000 wsetup.c
00000000 l    df *ABS*	00000000 abort.c
00000000 l    df *ABS*	00000000 dtoa.c
02007e84 l     F .text	0000023c quorem
00000000 l    df *ABS*	00000000 fflush.c
00000000 l    df *ABS*	00000000 findfp.c
020098f4 l     F .text	00000008 __fp_lock
020098fc l     F .text	00000008 __fp_unlock
00000000 l    df *ABS*	00000000 mallocr.c
00000000 l    df *ABS*	00000000 fvwrite.c
00000000 l    df *ABS*	00000000 fwalk.c
00000000 l    df *ABS*	00000000 int_errno.c
00000000 l    df *ABS*	00000000 locale.c
0201c718 l     O .rodata	00000030 lconv
00000000 l    df *ABS*	00000000 makebuf.c
00000000 l    df *ABS*	00000000 memchr.c
00000000 l    df *ABS*	00000000 memcpy.c
00000000 l    df *ABS*	00000000 memmove.c
00000000 l    df *ABS*	00000000 memset.c
00000000 l    df *ABS*	00000000 mprec.c
0201c860 l     O .rodata	0000000c p05.2435
00000000 l    df *ABS*	00000000 mallocr.c
00000000 l    df *ABS*	00000000 s_isinfd.c
00000000 l    df *ABS*	00000000 s_isnand.c
00000000 l    df *ABS*	00000000 signal.c
00000000 l    df *ABS*	00000000 signalr.c
00000000 l    df *ABS*	00000000 stdio.c
00000000 l    df *ABS*	00000000 strcmp.c
00000000 l    df *ABS*	00000000 vfprintf.c
0200c91c l     F .text	00000034 __sprint_r
0201c86c l     O .rodata	00000010 blanks.3455
0201c87c l     O .rodata	00000010 zeroes.3456
00000000 l    df *ABS*	00000000 writer.c
00000000 l    df *ABS*	00000000 mallocr.c
00000000 l    df *ABS*	00000000 closer.c
00000000 l    df *ABS*	00000000 fclose.c
00000000 l    df *ABS*	00000000 fstatr.c
00000000 l    df *ABS*	00000000 isattyr.c
00000000 l    df *ABS*	00000000 lseekr.c
00000000 l    df *ABS*	00000000 readr.c
00000000 l    df *ABS*	00000000 libgcc2.c
00000000 l    df *ABS*	00000000 libgcc2.c
00000000 l    df *ABS*	00000000 fp-bit.c
00000000 l    df *ABS*	00000000 fp-bit.c
00000000 l    df *ABS*	00000000 fp-bit.c
00000000 l    df *ABS*	00000000 fp-bit.c
00000000 l    df *ABS*	00000000 alt_close.c
0200eed0 l     F .text	00000050 alt_get_errno
00000000 l    df *ABS*	00000000 alt_dcache_flush.c
00000000 l    df *ABS*	00000000 alt_dcache_flush_all.c
00000000 l    df *ABS*	00000000 alt_dev.c
0200f02c l     F .text	0000002c alt_dev_null_write
00000000 l    df *ABS*	00000000 alt_errno.c
00000000 l    df *ABS*	00000000 alt_exit.c
00000000 l    df *ABS*	00000000 alt_flash_dev.c
00000000 l    df *ABS*	00000000 alt_fstat.c
0200f154 l     F .text	00000050 alt_get_errno
00000000 l    df *ABS*	00000000 alt_getpid.c
00000000 l    df *ABS*	00000000 alt_isatty.c
0200f274 l     F .text	00000050 alt_get_errno
00000000 l    df *ABS*	00000000 alt_kill.c
0200f368 l     F .text	00000050 alt_get_errno
00000000 l    df *ABS*	00000000 alt_load.c
0200f4e8 l     F .text	0000006c alt_load_section
00000000 l    df *ABS*	00000000 alt_lseek.c
0200f5d4 l     F .text	00000050 alt_get_errno
00000000 l    df *ABS*	00000000 alt_main.c
00000000 l    df *ABS*	00000000 alt_read.c
0200f7c4 l     F .text	00000050 alt_get_errno
00000000 l    df *ABS*	00000000 alt_release_fd.c
00000000 l    df *ABS*	00000000 alt_sbrk.c
0201e5f8 l     O .rwdata	00000004 heap_end
00000000 l    df *ABS*	00000000 alt_tick.c
00000000 l    df *ABS*	00000000 alt_usleep.c
00000000 l    df *ABS*	00000000 alt_write.c
0200fcf8 l     F .text	00000050 alt_get_errno
00000000 l    df *ABS*	00000000 alt_env_lock.c
0201e604 l     O .rwdata	00000004 lockid
02020348 l     O .bss	00000004 locks
00000000 l    df *ABS*	00000000 alt_malloc_lock.c
0201e608 l     O .rwdata	00000004 lockid
02020350 l     O .bss	00000004 locks
00000000 l    df *ABS*	00000000 os_core.c
02011744 l     F .text	00000044 OS_InitMisc
02011788 l     F .text	0000006c OS_InitRdyList
020118ec l     F .text	000000e0 OS_InitTCBList
02011668 l     F .text	000000dc OS_InitEventList
020117f4 l     F .text	0000007c OS_InitTaskIdle
02011870 l     F .text	0000007c OS_InitTaskStat
02011b58 l     F .text	00000070 OS_SchedNew
00000000 l    df *ABS*	00000000 os_dbg.c
00000000 l    df *ABS*	00000000 os_flag.c
02013970 l     F .text	0000010c OS_FlagTaskRdy
020136cc l     F .text	000001c0 OS_FlagBlock
00000000 l    df *ABS*	00000000 os_mem.c
00000000 l    df *ABS*	00000000 os_q.c
00000000 l    df *ABS*	00000000 os_sem.c
00000000 l    df *ABS*	00000000 os_task.c
00000000 l    df *ABS*	00000000 os_time.c
00000000 l    df *ABS*	00000000 alt_sys_init.c
02017e64 l     F .text	00000038 alt_dev_reg
0201d3b0 l     O .rwdata	000000c8 epcs
0201d478 l     O .rwdata	0000106c jtag_uart
0201e4e4 l     O .rwdata	000000d0 uart_0
00000000 l    df *ABS*	00000000 altera_avalon_epcs_flash_controller.c
02017f58 l     F .text	00000038 alt_flash_device_register
02017fe4 l     F .text	0000028c alt_epcs_flash_query
02018270 l     F .text	000000e8 alt_epcs_flash_memcmp
02018644 l     F .text	00000094 alt_epcs_test_address
00000000 l    df *ABS*	00000000 altera_avalon_jtag_uart_fd.c
00000000 l    df *ABS*	00000000 altera_avalon_jtag_uart_init.c
02018b88 l     F .text	000002ac altera_avalon_jtag_uart_irq
02018e34 l     F .text	0000010c altera_avalon_jtag_uart_timeout
00000000 l    df *ABS*	00000000 altera_avalon_jtag_uart_ioctl.c
00000000 l    df *ABS*	00000000 altera_avalon_jtag_uart_read.c
00000000 l    df *ABS*	00000000 altera_avalon_jtag_uart_write.c
00000000 l    df *ABS*	00000000 altera_avalon_timer_sc.c
02019630 l     F .text	00000074 alt_avalon_timer_sc_irq
00000000 l    df *ABS*	00000000 altera_avalon_uart_fd.c
00000000 l    df *ABS*	00000000 altera_avalon_uart_init.c
0201998c l     F .text	00000098 altera_avalon_uart_irq
02019a24 l     F .text	00000138 altera_avalon_uart_rxirq
02019b5c l     F .text	000001a4 altera_avalon_uart_txirq
00000000 l    df *ABS*	00000000 altera_avalon_uart_read.c
02019d54 l     F .text	00000050 alt_get_errno
00000000 l    df *ABS*	00000000 altera_avalon_uart_write.c
0201a038 l     F .text	00000050 alt_get_errno
00000000 l    df *ABS*	00000000 epcs_commands.c
0201a31c l     F .text	00000038 epcs_test_wip
0201a354 l     F .text	00000038 epcs_await_wip_released
00000000 l    df *ABS*	00000000 alt_alarm_start.c
00000000 l    df *ABS*	00000000 alt_busy_sleep.c
00000000 l    df *ABS*	00000000 alt_dev_llist_insert.c
0201ab78 l     F .text	00000050 alt_get_errno
00000000 l    df *ABS*	00000000 alt_do_ctors.c
00000000 l    df *ABS*	00000000 alt_do_dtors.c
00000000 l    df *ABS*	00000000 alt_find_dev.c
00000000 l    df *ABS*	00000000 alt_icache_flush_all.c
00000000 l    df *ABS*	00000000 alt_iic.c
00000000 l    df *ABS*	00000000 alt_iic_isr_register.c
00000000 l    df *ABS*	00000000 alt_io_redirect.c
0201b094 l     F .text	000000e0 alt_open_fd
00000000 l    df *ABS*	00000000 alt_irq_vars.c
00000000 l    df *ABS*	00000000 alt_open.c
0201b1ec l     F .text	00000050 alt_get_errno
0201b23c l     F .text	000000f0 alt_file_locked
00000000 l    df *ABS*	00000000 altera_nios2_irq.c
00000000 l    df *ABS*	00000000 os_cpu_a.o
00000040 l       *ABS*	00000000 OSCtxSw_SWITCH_PC
00000000 l    df *ABS*	00000000 os_cpu_c.c
00000014 l       *ABS*	00000000 OSTCBNext_OFFSET
00000032 l       *ABS*	00000000 OSTCBPrio_OFFSET
00000000 l       *ABS*	00000000 OSTCBStkPtr_OFFSET
00000000 l    df *ABS*	00000000 altera_avalon_spi.c
00000000 l    df *ABS*	00000000 alt_find_file.c
00000000 l    df *ABS*	00000000 alt_get_fd.c
00000000 l    df *ABS*	00000000 atexit.c
00000000 l    df *ABS*	00000000 exit.c
00000000 l    df *ABS*	00000000 memcmp.c
00000000 l    df *ABS*	00000000 __atexit.c
00000000 l    df *ABS*	00000000 __call_atexit.c
00000000 l    df *ABS*	00000000 
0200bc30 g     F .text	00000074 _mprec_log10
02001678 g     F .text	00000100 I2C_Read
0201e656 g     O .rwdata	00000002 OSTaskNameSize
020185b8 g     F .text	0000008c alt_epcs_flash_get_info
0200bd20 g     F .text	00000084 __any_on
0200dee4 g     F .text	00000064 _isatty_r
0201c748 g     O .rodata	00000028 __mprec_tinytens
0200f6f8 g     F .text	000000cc alt_main
02005354 g     F .text	00000044 __ashldi3
020203d4 g     O .bss	0000010c car
02005c80 g     F .text	00000084 _puts_r
02026768 g     O .bss	00000100 alt_irq
0200df48 g     F .text	0000006c _lseek_r
020034c4 g     F .text	00000084 get_direction
020141d4 g     F .text	000000d8 OS_MemInit
0201e684 g       *ABS*	00000000 __flash_rwdata_start
02017e00 g     F .text	00000064 OSTimeSet
02004628 g     F .text	0000005c __eqdf2
0201039c g     F .text	0000063c OSEventPendMulti
020269f8 g       *ABS*	00000000 __alt_heap_start
0201b868 g     F .text	00000020 OSTaskCreateHook
0200c6cc g     F .text	00000068 _kill_r
02005c44 g     F .text	0000003c printf
0201e62e g     O .rwdata	00000002 OSMboxEn
02010a2c g     F .text	0000007c OSIntEnter
0200c46c g     F .text	00000088 _signal_r
02001f5c g     F .text	000000c0 ADXL345_SPI_Init
0200c814 g     F .text	0000005c __sseek
02009998 g     F .text	0000010c __sinit
0201e63e g     O .rwdata	00000002 OSQEn
0200a630 g     F .text	0000009c _setlocale_r
02009910 g     F .text	00000078 __sfmoreglue
02000960 g     F .text	000000d8 init_legocar
02010064 g     F .text	000000d4 __malloc_unlock
0201b8c4 g     F .text	0000001c OSTaskStatHook
02020358 g     O .bss	00000001 OSLockNesting
0201e5b4 g     O .rwdata	00000008 ms2_per_digi
0201e67c g     O .rwdata	00000002 OSDataSize
02020359 g     O .bss	00000001 OSRunning
0200aaec g     F .text	0000018c memmove
0201b8fc g     F .text	0000001c OSInitHookBegin
020204e0 g     O .bss	00000064 ins
020005f8 g     F .text	0000008c wait_for_data
0201e674 g     O .rwdata	00000002 OSTmrSize
02009988 g     F .text	00000010 _cleanup
0200ad54 g     F .text	000000a8 _Balloc
02003bcc g     F .text	000000a4 __fixsfsi
0202035c g     O .bss	00000004 OSIdleCtr
02000f78 g     F .text	00000038 stabilizer_task
0200ecf4 g     F .text	00000064 __gtdf2
0201b550 g       .text	00000000 OSStartTsk
00000000  w      *UND*	00000000 __errno
02011e84 g     F .text	000002d8 OS_TCBInit
0201a38c g     F .text	000000f8 epcs_sector_erase
02001ad4 g     F .text	0000012c i2c_write
02000000 g     F .entry	0000000c __reset
0201e67a g     O .rwdata	00000002 OSTmrWheelTblSize
02000020 g       *ABS*	00000000 __flash_exceptions_start
0201e61a g     O .rwdata	00000002 OSEventSize
02020360 g     O .bss	00000001 OSPrioHighRdy
0200de7c g     F .text	00000068 _fstat_r
0201b888 g     F .text	00000020 OSTaskDelHook
02020320 g     O .bss	00000004 errno
02004890 g     F .text	00000038 __make_dp
0201b530 g       .text	00000000 OSStartHighRdy
020166dc g     F .text	000001f4 OSTaskCreateExt
0201320c g     F .text	00000068 OSFlagPendGetFlagsRdy
0201e65a g     O .rwdata	00000002 OSTaskStatStkSize
02004ec4 g     F .text	0000002c __make_fp
020122e8 g     F .text	00000308 OSFlagAccept
020148b4 g     F .text	000000b8 OSQFlush
020142ac g     F .text	00000140 OSQAccept
02020338 g     O .bss	00000004 alt_argv
020265b4 g       *ABS*	00000000 _gp
0200fbd4 g     F .text	00000124 usleep
020038d8 g     F .text	00000058 __subsf3
02016520 g     F .text	000001bc OSTaskCreate
02015ff8 g     F .text	00000528 OSTaskChangePrio
02020354 g     O .bss	00000004 alt_heapsem
0200f254 g     F .text	00000020 getpid
0201215c g     F .text	0000018c OSDebugInit
020168d0 g     F .text	000003dc OSTaskDel
02001d50 g     F .text	00000188 i2c_data_verify
02002b48 g     F .text	00000574 FLASH_Verify
020023e8 g     F .text	000000c0 Flash_Open
0201d230 g     O .rwdata	00000180 alt_fd_list
02023544 g     O .bss	00000370 OSFlagTbl
02002500 g     F .text	00000128 Flash_GetBlockInfo
02011458 g     F .text	000000b0 OS_EventTaskRemove
0201a5c8 g     F .text	00000068 epcs_write_status_register
0201ad20 g     F .text	00000090 alt_find_dev
0200a9ac g     F .text	00000140 memcpy
0201e644 g     O .rwdata	00000002 OSRdyTblSize
02009904 g     F .text	0000000c _cleanup_r
020046e8 g     F .text	000000d4 __floatsidf
0201b174 g     F .text	00000078 alt_io_redirect
0200ed58 g     F .text	0000005c __ltdf2
0201c138 g       *ABS*	00000000 __DTOR_END__
02005d04 g     F .text	00000014 puts
02010138 g     F .text	00000120 OSEventNameGet
0201e628 g     O .rwdata	00000002 OSFlagMax
0201b484 g     F .text	00000020 altera_nios2_irq_init
020021e8 g     F .text	00000044 ADXL345_SPI_IdRead
0201874c g     F .text	00000104 alt_epcs_flash_write_block
0200bb8c g     F .text	000000a4 __ratio
02010aa8 g     F .text	000000f4 OSIntExit
0200db6c g     F .text	00000024 __vfiprintf_internal
0201e662 g     O .rwdata	00000002 OSTCBSize
02020361 g     O .bss	00000001 OSPrioCur
0201909c g     F .text	000002c4 altera_avalon_jtag_uart_read
0200546c g     F .text	00000014 malloc
02005c18 g     F .text	0000002c _printf_r
02004a48 g     F .text	00000008 __udivsi3
0200f2c4 g     F .text	000000a4 isatty
0200c4f4 g     F .text	000000d0 _raise_r
0201e648 g     O .rwdata	00000002 OSStkWidth
02005398 g     F .text	00000064 __assert_func
0201c798 g     O .rodata	000000c8 __mprec_tens
0201e63c g     O .rwdata	00000002 OSPtrSize
02001574 g     F .text	0000002c get_speed
0200a6cc g     F .text	0000000c __locale_charset
02003b78 g     F .text	00000054 __lesf2
0201e61c g     O .rwdata	00000002 OSEventTblSize
02003614 g     F .text	00000084 __fixunsdfsi
0201b4a4 g       .text	00000000 OSCtxSw
02001888 g     F .text	00000158 I2C_MultipleRead
0202031c g     O .bss	00000004 __malloc_top_pad
02020364 g     O .bss	00000004 OSTCBList
0200c734 g     F .text	00000004 _getpid_r
02020330 g     O .bss	00000004 alt_fd_list_lock
0201e5d4 g     O .rwdata	00000004 __mb_cur_max
0200a6d8 g     F .text	0000000c _localeconv_r
0200b184 g     F .text	0000003c __i2b
02009fec g     F .text	000004e4 __sfvwrite_r
0200c5c4 g     F .text	000000b4 __sigtramp_r
020238b4 g     O .bss	00000c30 OSMemTbl
02020368 g     O .bss	00000001 OSTickStepState
02005d18 g     F .text	00000064 _sbrk_r
0201e640 g     O .rwdata	00000002 OSQMax
020244e4 g     O .bss	00000800 OSTaskStatStk
02013e00 g     F .text	000000f8 OSMemNameGet
0201e620 g     O .rwdata	00000002 OSFlagEn
0200dfb4 g     F .text	0000006c _read_r
0201e666 g     O .rwdata	00000002 OSTimeTickHookEn
0200efec g     F .text	00000024 alt_dcache_flush
02014ddc g     F .text	00000168 OSQPost
02013a7c g     F .text	000000a0 OS_FlagUnlink
0201d1fc g     O .rwdata	0000000c __lc_ctype
0201e5e8 g     O .rwdata	00000004 alt_max_fd
02011a20 g     F .text	0000006c OS_MemCopy
02011a8c g     F .text	000000cc OS_Sched
02005114 g     F .text	00000104 __unpack_d
0200dd2c g     F .text	0000013c _fclose_r
02013d10 g     F .text	000000f0 OSMemGet
0201e5bc g     O .rwdata	00000004 sensor_read_tries
02016fac g     F .text	000001c4 OSTaskNameSet
020098c4 g     F .text	00000030 fflush
02020318 g     O .bss	00000004 __malloc_max_sbrked_mem
0202036c g     O .bss	00000004 OSCtxSwCtr
0201b8e0 g     F .text	0000001c OSTimeTickHook
0200222c g     F .text	000000f8 ADC_Read
0201e62a g     O .rwdata	00000002 OSFlagNameSize
02003c70 g     F .text	00000044 __extendsfdf2
02011508 g     F .text	000000f8 OS_EventTaskRemoveMulti
020040dc g     F .text	00000054 __adddf3
02011310 g     F .text	00000148 OS_EventTaskWaitMulti
020186d8 g     F .text	00000074 alt_epcs_flash_erase_block
0200b900 g     F .text	00000148 __b2d
0201e642 g     O .rwdata	00000002 OSQSize
0200e670 g     F .text	00000628 __umoddi3
0200f624 g     F .text	000000d4 lseek
020158f0 g     F .text	0000026c OSSemPend
0201e5c4 g     O .rwdata	00000004 _global_impure_ptr
0200201c g     F .text	0000009c ADXL345_SPI_WaitDataReady
0201a88c g     F .text	00000058 epcs_exit_4_bytes_mode
0200bda4 g     F .text	000005fc _realloc_r
0201e62c g     O .rwdata	00000002 OSLowestPrio
020269f8 g       *ABS*	00000000 __bss_end
0201afa4 g     F .text	000000f0 alt_iic_isr_register
0201b950 g     F .text	00000020 OSTCBInitHook
0201e672 g     O .rwdata	00000002 OSTmrCfgTicksPerSec
0200fad0 g     F .text	00000104 alt_tick
0200e020 g     F .text	00000650 __udivdi3
0201e614 g     O .rwdata	00000002 OSEventEn
0201c770 g     O .rodata	00000028 __mprec_bigtens
0200af68 g     F .text	00000104 __s2b
0201e66e g     O .rwdata	00000002 OSTmrCfgNameSize
02007e6c g     F .text	00000018 abort
0200edb4 g     F .text	0000011c __floatunsidf
0200b6a0 g     F .text	00000058 __mcmp
0201983c g     F .text	00000150 altera_avalon_uart_init
02009bb0 g     F .text	00000018 __fp_lock_all
0201af58 g     F .text	0000004c alt_ic_irq_enabled
020015a0 g     F .text	000000d8 I2C_Write
0201388c g     F .text	000000e4 OS_FlagInit
0200fa38 g     F .text	00000098 alt_alarm_stop
0201e650 g     O .rwdata	00000002 OSTaskIdleStkSize
020203a8 g     O .bss	00000004 alt_irq_active
020154d0 g     F .text	000000b0 OSSemAccept
02003404 g     F .text	00000038 init_direction
02014014 g     F .text	000000d8 OSMemPut
02013b1c g     F .text	000001f4 OSMemCreate
02020370 g     O .bss	00000004 OSIdleCtrMax
020000ec g     F .exceptions	000000d0 alt_irq_handler
0201d208 g     O .rwdata	00000028 alt_dev_null
0201e664 g     O .rwdata	00000002 OSTicksPerSec
0201e5c0 g     O .rwdata	00000004 data_wait
02004d40 g     F .text	000000c8 __unpack_f
020019e0 g     F .text	00000084 i2c_start
0201b4a4 g       .text	00000000 OSIntCtxSw
0200f010 g     F .text	0000001c alt_dcache_flush_all
0200b06c g     F .text	00000068 __hi0bits
020047bc g     F .text	000000d4 __fixdfsi
02020374 g     O .bss	00000004 OSTCBFreeList
0201e684 g       *ABS*	00000000 __ram_rwdata_end
02015b5c g     F .text	00000174 OSSemPendAbort
02000fb0 g     F .text	00000160 control_task
0201e5e0 g     O .rwdata	00000008 alt_dev_list
0200fd48 g     F .text	000000f0 write
0201e668 g     O .rwdata	00000002 OSVersionNbr
02003ac0 g     F .text	0000005c __gtsf2
0201c9f4 g       *ABS*	00000000 __ram_rodata_end
0200f1a4 g     F .text	000000b0 fstat
02005310 g     F .text	00000044 __lshrdi3
0200f3b8 g     F .text	00000130 kill
0201e610 g     O .rwdata	00000004 OSEndiannessTest
0200b418 g     F .text	0000012c __pow5mult
0202032c g     O .bss	00000004 __nlocale_changed
0200c950 g     F .text	0000121c ___vfiprintf_internal_r
02004a50 g     F .text	00000008 __umodsi3
0201a74c g     F .text	00000068 epcs_read_electronic_signature
0201e622 g     O .rwdata	00000002 OSFlagGrpSize
02002628 g     F .text	000000a8 Flash_Read
020269f8 g       *ABS*	00000000 end
02004c14 g     F .text	0000012c __pack_f
0201a088 g     F .text	00000238 altera_avalon_uart_write
02020544 g     O .bss	00001000 acc_sensor_task_stk
02018a4c g     F .text	0000013c altera_avalon_jtag_uart_init
02011cf4 g     F .text	000000c8 OS_TaskStat
0201c138 g       *ABS*	00000000 __CTOR_LIST__
04000000 g       *ABS*	00000000 __alt_stack_pointer
02003280 g     F .text	00000138 SPI_MultipleRead
020196a4 g     F .text	00000088 alt_avalon_timer_sc_init
0201978c g     F .text	00000060 altera_avalon_uart_write_fd
02004b68 g     F .text	000000ac __clzsi2
020197ec g     F .text	00000050 altera_avalon_uart_close_fd
02019360 g     F .text	000002d0 altera_avalon_jtag_uart_write
020024a8 g     F .text	00000058 Flash_Close
02009ba0 g     F .text	00000004 __sfp_lock_acquire
0200a8b4 g     F .text	000000f8 memchr
020119cc g     F .text	00000054 OS_MemClr
02005e58 g     F .text	00001e7c ___vfprintf_internal_r
0201b574 g     F .text	000002f4 OSTaskStkInit
02009d1c g     F .text	000002d0 _free_r
02011070 g     F .text	00000198 OS_EventTaskRdy
0201bf98 g     F .text	000001a0 __call_exitprocs
02020378 g     O .bss	00000001 OSCPUUsage
02000d10 g     F .text	00000028 disable_wheel_stabilizer
020002d4 g     F .text	00000068 calibrate_ins
02020328 g     O .bss	00000004 __mlocale_changed
0201e5cc g     O .rwdata	00000004 __malloc_sbrk_base
020001bc g     F .text	0000003c _start
02020340 g     O .bss	00000004 _alt_tick_rate
0201496c g     F .text	000002fc OSQPend
020178e4 g     F .text	00000148 OSTimeDly
0200b544 g     F .text	0000015c __lshift
0201b970 g     F .text	00000208 alt_avalon_spi_command
02020344 g     O .bss	00000004 _alt_nticks
0200c68c g     F .text	0000001c signal
0200f814 g     F .text	000000f4 read
02017ed0 g     F .text	00000088 alt_sys_init
0201be68 g     F .text	00000130 __register_exitproc
0200211c g     F .text	000000cc ADXL345_SPI_XYZ_Read
02020379 g     O .bss	00000001 OSTaskCtr
02000684 g     F .text	000002dc update_ins
02017a2c g     F .text	00000184 OSTimeDlyHMSM
0200b1c0 g     F .text	00000258 __multiply
02018f40 g     F .text	00000068 altera_avalon_jtag_uart_close
020052e8 g     F .text	00000028 __mulsi3
0201c9f4 g       *ABS*	00000000 __ram_rwdata_start
0201c138 g       *ABS*	00000000 __ram_rodata_start
020203ac g     O .bss	00000028 __malloc_current_mallinfo
0201e616 g     O .rwdata	00000002 OSEventMax
0200ba48 g     F .text	00000144 __d2b
02015cd0 g     F .text	00000110 OSSemPost
0201a2c0 g     F .text	0000005c epcs_read_status_register
02010c24 g     F .text	000000d8 OSSchedUnlock
0200033c g     F .text	000002bc auto_calibrate_ins
020188e8 g     F .text	00000060 altera_avalon_jtag_uart_read_fd
0201bc8c g     F .text	00000114 alt_get_fd
0202037c g     O .bss	00000004 OSMemFreeList
02010d68 g     F .text	000000ac OSStatInit
02021544 g     O .bss	00001000 stabilizer_task_stk
0201aa24 g     F .text	00000154 alt_busy_sleep
02013608 g     F .text	000000c4 OSFlagQuery
02005218 g     F .text	000000d0 __fpcmp_parts_d
0201e64c g     O .rwdata	00000002 OSTaskCreateExtEn
0200dcc8 g     F .text	00000064 _close_r
0201a7b4 g     F .text	00000080 epcs_read_device_id
0201bdec g     F .text	0000007c memcmp
02011054 g     F .text	0000001c OS_Dummy
020189a8 g     F .text	00000050 altera_avalon_jtag_uart_close_fd
02001ed8 g     F .text	00000084 I2C_Verify
020269f8 g       *ABS*	00000000 __alt_stack_base
020189f8 g     F .text	00000054 altera_avalon_jtag_uart_ioctl_fd
02007cf8 g     F .text	00000174 __swsetup_r
02024ce4 g     O .bss	000001e0 OSQTbl
02004474 g     F .text	000001b4 __divdf3
02009aa4 g     F .text	000000fc __sfp
020029ec g     F .text	00000084 Flash_GetBlockCount
0200bca4 g     F .text	0000007c __copybits
0201cdf4 g     O .rwdata	00000408 __malloc_av_
02009bac g     F .text	00000004 __sinit_lock_release
02001a64 g     F .text	00000070 i2c_stop
02020380 g     O .bss	00000004 OSTCBHighRdy
02004190 g     F .text	000002e4 __muldf3
0200c738 g     F .text	00000054 __sread
0201c528 g     O .rodata	00000010 __thenan_sf
02020384 g     O .bss	00000004 OSQFreeList
0201bb78 g     F .text	00000114 alt_find_file
0201abc8 g     F .text	000000a0 alt_dev_llist_insert
0200ff50 g     F .text	00000114 __malloc_lock
0200f988 g     F .text	000000b0 sbrk
02010258 g     F .text	00000144 OSEventNameSet
020096dc g     F .text	000001e8 _fflush_r
0200dbfc g     F .text	000000cc _calloc_r
02020388 g     O .bss	00000001 OSRdyGrp
0201e5f0 g     O .rwdata	00000008 alt_flash_dev_list
02002324 g     F .text	000000c4 Flash_InfoDump
02020314 g       *ABS*	00000000 __bss_start
0200ac78 g     F .text	000000dc memset
02001110 g     F .text	00000154 main
02001310 g     F .text	0000008c pwm_setting
0202033c g     O .bss	00000004 alt_envp
02020314 g     O .bss	00000004 __malloc_max_total_mem
02018948 g     F .text	00000060 altera_avalon_jtag_uart_write_fd
02001c00 g     F .text	00000150 i2c_read
0201c8a8 g     O .rodata	00000100 OSUnMapTbl
02001264 g     F .text	000000ac init_pwm_motor
0201e646 g     O .rwdata	00000002 OSSemEn
02013274 g     F .text	00000394 OSFlagPost
0200c870 g     F .text	00000008 __sclose
04000000 g       *ABS*	00000000 __alt_heap_limit
0200de68 g     F .text	00000014 fclose
02011208 g     F .text	00000108 OS_EventTaskWait
020048c8 g     F .text	00000060 __truncdfsf2
02011dbc g     F .text	000000c8 OS_TaskStatStkChk
02026868 g     O .bss	00000190 _atexit0
02016cac g     F .text	00000158 OSTaskDelReq
020080c0 g     F .text	0000161c _dtoa_r
02005494 g     F .text	00000784 _malloc_r
0201e5ec g     O .rwdata	00000004 alt_errno
02010cfc g     F .text	0000006c OSStart
02005410 g     F .text	00000020 _fiprintf_r
0200c6a8 g     F .text	00000010 _init_signal
0200fef0 g     F .text	00000060 __env_unlock
0200a4d0 g     F .text	000000a8 _fwalk
02017170 g     F .text	000001f4 OSTaskResume
020140ec g     F .text	000000e8 OSMemQuery
0201e658 g     O .rwdata	00000002 OSTaskStatEn
0201e632 g     O .rwdata	00000002 OSMemMax
02014f44 g     F .text	00000170 OSQPostFront
0200499c g     F .text	00000050 __divsi3
02020389 g     O .bss	00000003 OSRdyTbl
0201e60c g     O .rwdata	00000002 OSDebugEn
0201c538 g     O .rodata	00000014 __thenan_df
02009be0 g     F .text	0000013c _malloc_trim_r
0201c138 g       *ABS*	00000000 __CTOR_END__
02003930 g     F .text	00000190 __mulsf3
02000a38 g     F .text	000001b0 align_wheels
0201e624 g     O .rwdata	00000002 OSFlagNodeSize
0201e66c g     O .rwdata	00000002 OSTmrCfgMax
02018358 g     F .text	00000260 alt_epcs_flash_write
0200c878 g     F .text	000000a4 strcmp
020143ec g     F .text	000001f8 OSQCreate
02016e04 g     F .text	000001a8 OSTaskNameGet
0201c138 g       *ABS*	00000000 __flash_rodata_start
020150b4 g     F .text	0000020c OSQPostOpt
02010e14 g     F .text	00000220 OSTimeTick
0201e654 g     O .rwdata	00000002 OSTaskMax
0201c138 g       *ABS*	00000000 __DTOR_LIST__
02015580 g     F .text	00000100 OSSemCreate
0201e678 g     O .rwdata	00000002 OSTmrWheelSize
0200ec98 g     F .text	0000005c __nedf2
0201e64e g     O .rwdata	00000002 OSTaskDelEn
02015de0 g     F .text	00000118 OSSemQuery
020145e4 g     F .text	000002d0 OSQDel
02014c68 g     F .text	00000174 OSQPendAbort
02017e9c g     F .text	00000034 alt_irq_init
0200f908 g     F .text	00000080 alt_release_fd
0200322c g     F .text	00000054 SPI_Write
0201c54c g     O .rodata	00000100 __clz_tab
02002a70 g     F .text	000000d8 Flash_Size
02020324 g     O .bss	00000004 _PathLocale
0201bda0 g     F .text	00000014 atexit
02003b1c g     F .text	0000005c __gesf2
0200db90 g     F .text	0000006c _write_r
02010b9c g     F .text	00000088 OSSchedLock
0200a6e4 g     F .text	0000001c setlocale
020125f0 g     F .text	00000128 OSFlagCreate
0201e5c8 g     O .rwdata	00000004 _impure_ptr
02020334 g     O .bss	00000004 alt_argc
0201acc4 g     F .text	0000005c _do_dtors
0201e61e g     O .rwdata	00000002 OSEventMultiEn
02012718 g     F .text	00000270 OSFlagDel
0202038c g     O .bss	00000004 OSEventFreeList
02000020 g       .exceptions	00000000 alt_irq_entry
0200b8a0 g     F .text	00000060 __ulp
0200c3a0 g     F .text	00000038 __isinfd
02012c0c g     F .text	00000600 OSFlagPend
0201e66a g     O .rwdata	00000002 OSTmrEn
02009bc8 g     F .text	00000018 __fp_unlock_all
02001778 g     F .text	00000110 I2C_MultipleWrite
0201e5d8 g     O .rwdata	00000008 alt_fs_list
02011bc8 g     F .text	0000007c OS_StrCopy
02000be8 g     F .text	000000c4 set_driving_speed
0201e634 g     O .rwdata	00000002 OSMemNameSize
0201b918 g     F .text	0000001c OSInitHookEnd
02000020 g       *ABS*	00000000 __ram_exceptions_start
0201e660 g     O .rwdata	00000002 OSTCBPrioTblMax
0200a700 g     F .text	0000000c localeconv
0200343c g     F .text	00000088 set_direction
0201a484 g     F .text	000000f4 epcs_read_buffer
0201e65c g     O .rwdata	00000002 OSTaskStatStkChkEn
02017f90 g     F .text	00000054 alt_epcs_flash_init
0201adcc g     F .text	00000050 alt_ic_isr_register
0201e630 g     O .rwdata	00000002 OSMemEn
0201e63a g     O .rwdata	00000002 OSMutexEn
0201e684 g       *ABS*	00000000 _edata
0201972c g     F .text	00000060 altera_avalon_uart_read_fd
020269f8 g       *ABS*	00000000 _end
0200f09c g     F .text	00000068 alt_flash_open_dev
02020390 g     O .bss	00000001 OSIntNesting
020001bc g       *ABS*	00000000 __ram_exceptions_end
02018fa8 g     F .text	000000f4 altera_avalon_jtag_uart_ioctl
02017bb0 g     F .text	000001ec OSTimeDlyResume
02012ab8 g     F .text	00000154 OSFlagNameSet
02000db0 g     F .text	000001c8 acc_sensor_task
02017364 g     F .text	000001d4 OSTaskStkChk
0201aeb8 g     F .text	000000a0 alt_ic_irq_disable
0201a834 g     F .text	00000058 epcs_enter_4_bytes_mode
0201e636 g     O .rwdata	00000002 OSMemSize
020026d0 g     F .text	00000230 Flash_Write
0200c78c g     F .text	00000088 __swrite
0201e5d0 g     O .rwdata	00000004 __malloc_trim_threshold
0200139c g     F .text	000001d8 set_speed
02020394 g     O .bss	00000004 OSTCBCur
0201bdb4 g     F .text	00000038 exit
02005430 g     F .text	0000003c fiprintf
02005e08 g     F .text	0000001c _vfiprintf_r
0201e638 g     O .rwdata	00000002 OSMemTblSize
0200a578 g     F .text	000000b8 _fwalk_reent
02003cb4 g     F .text	000000d4 __floatunsisf
0200b6f8 g     F .text	000001a8 __mdiff
0200f104 g     F .text	00000050 alt_flash_close_dev
020049ec g     F .text	0000005c __modsi3
04000000 g       *ABS*	00000000 __alt_data_end
02000020 g     F .exceptions	00000000 alt_exception
02009ba4 g     F .text	00000004 __sfp_lock_release
020109d8 g     F .text	00000054 OSInit
02000000 g       *ABS*	00000000 __alt_mem_sdram
02017748 g     F .text	0000012c OSTaskQuery
02003548 g     F .text	000000cc realign_wheel
02000d38 g     F .text	00000078 control_loop
020020b8 g     F .text	00000064 ADXL345_SPI_IsDataReady
02015424 g     F .text	000000ac OS_QInit
02011c44 g     F .text	00000054 OS_StrLen
02013ef8 g     F .text	0000011c OSMemNameSet
020001f8 g     F .text	000000dc init_ins
0201e652 g     O .rwdata	00000002 OSTaskProfileEn
02020398 g     O .bss	00000004 OSTime
02019d00 g     F .text	00000054 altera_avalon_uart_close
0200310c g     F .text	00000120 SPI_MultipleWrite
02004e08 g     F .text	000000bc __fpcmp_parts_f
02024ec4 g     O .bss	00000800 OSTaskIdleStk
0200f058 g     F .text	00000044 _exit
0200c3d8 g     F .text	0000002c __isnand
0201a8e4 g     F .text	00000140 alt_alarm_start
02012988 g     F .text	00000130 OSFlagNameGet
02017d9c g     F .text	00000064 OSTimeGet
02004a58 g     F .text	00000110 __muldi3
0200a70c g     F .text	000001a8 __smakebuf_r
02005d7c g     F .text	0000008c strlen
0201a578 g     F .text	00000050 epcs_write_enable
0200c404 g     F .text	00000068 _init_signal_r
0201b8a8 g     F .text	0000001c OSTaskSwHook
0201b32c g     F .text	00000158 open
020256c4 g     O .bss	00000b40 OSEventTbl
02004684 g     F .text	00000064 __gedf2
02000cac g     F .text	00000038 stop
02026204 g     O .bss	00000510 OSTCBTbl
02015ef8 g     F .text	00000100 OSSemSet
020053fc g     F .text	00000014 __assert
0201adb0 g     F .text	0000001c alt_icache_flush_all
020030bc g     F .text	00000050 SPI_Init
0201e680 g     O .rwdata	00000004 alt_priority_mask
02015680 g     F .text	00000270 OSSemDel
0202039c g     O .bss	00000004 OSFlagFreeList
0201ae1c g     F .text	0000009c alt_ic_irq_enable
0201e618 g     O .rwdata	00000002 OSEventNameSize
02007cd4 g     F .text	00000024 __vfprintf_internal
020203a0 g     O .bss	00000001 OSStatRdy
04000000 g       *ABS*	00000000 __alt_mem_epcs
02026714 g     O .bss	00000054 OSTCBPrioTbl
02019da4 g     F .text	00000294 altera_avalon_uart_read
0200fe38 g     F .text	000000b8 __env_lock
0201e65e g     O .rwdata	00000002 OSTaskSwHookEn
02004130 g     F .text	00000060 __subdf3
02018850 g     F .text	00000098 alt_epcs_flash_read
020033b8 g     F .text	0000004c SPI_Read
0200b0d4 g     F .text	000000b0 __lo0bits
02002900 g     F .text	000000ec Flash_Erase
0201e5fc g     O .rwdata	00000008 alt_alarm_list
0201e626 g     O .rwdata	00000002 OSFlagWidth
0201ac68 g     F .text	0000005c _do_ctors
0200c6b8 g     F .text	00000014 __sigtramp
0200ef20 g     F .text	000000cc close
0200388c g     F .text	0000004c __addsf3
02000ce4 g     F .text	0000002c enable_wheel_stabilizer
0202034c g     O .bss	00000004 alt_envsem
020203a4 g     O .bss	00000004 OSIdleCtrRun
02011034 g     F .text	00000020 OSVersion
0201e670 g     O .rwdata	00000002 OSTmrCfgWheelSize
0200f554 g     F .text	00000080 alt_load
02017874 g     F .text	00000070 OS_TaskStkClr
02004ef0 g     F .text	00000224 __pack_d
0201e64a g     O .rwdata	00000002 OSTaskCreateEn
02011600 g     F .text	00000068 OS_EventWaitListInit
02022544 g     O .bss	00001000 control_task_stk
0200c678 g     F .text	00000014 raise
0201b934 g     F .text	0000001c OSTaskIdleHook
02005480 g     F .text	00000014 free
02009ba8 g     F .text	00000004 __sinit_lock_acquire
0201a630 g     F .text	0000011c epcs_write_buffer
0200ae24 g     F .text	00000144 __multadd
02017538 g     F .text	00000210 OSTaskSuspend
0200adfc g     F .text	00000028 _Bfree
02011c98 g     F .text	0000005c OS_TaskIdle
0201e676 g     O .rwdata	00000002 OSTmrTblSize
020152c0 g     F .text	00000164 OSQQuery



Disassembly of section .entry:

02000000 <__reset>:
 * Jump to the _start entry point in the .text section if reset code
 * is allowed or if optimizing for RTL simulation.
 */
#if defined(ALT_ALLOW_CODE_AT_RESET) || defined(ALT_SIM_OPTIMIZE)
    /* Jump to the _start entry point in the .text section. */
    movhi r1, %hi(_start)
 2000000:	00408034 	movhi	at,512
    ori r1, r1, %lo(_start)
 2000004:	08406f14 	ori	at,at,444
    jmp r1
 2000008:	0800683a 	jmp	at
	...

Disassembly of section .exceptions:

02000020 <alt_exception>:

#else /* ALT_EXCEPTION_STACK disabled */
        /* 
         * Reserve space on normal stack for registers about to be pushed.
         */
        addi  sp, sp, -76
 2000020:	deffed04 	addi	sp,sp,-76
         * documentation for details).
         *
         * Leave a gap in the stack frame at 4(sp) for the muldiv handler to
         * store zero into.
         */
        stw   ra,  0(sp)
 2000024:	dfc00015 	stw	ra,0(sp)
        stw   r1,   8(sp)
 2000028:	d8400215 	stw	at,8(sp)
        stw   r2,  12(sp)
 200002c:	d8800315 	stw	r2,12(sp)
        stw   r3,  16(sp)
 2000030:	d8c00415 	stw	r3,16(sp)
        stw   r4,  20(sp)
 2000034:	d9000515 	stw	r4,20(sp)
        stw   r5,  24(sp)
 2000038:	d9400615 	stw	r5,24(sp)
        stw   r6,  28(sp)
 200003c:	d9800715 	stw	r6,28(sp)
        stw   r7,  32(sp)
 2000040:	d9c00815 	stw	r7,32(sp)
        rdctl r5, estatus   /* Read early to avoid usage stall */
 2000044:	000b307a 	rdctl	r5,estatus
        stw   r8,  36(sp)
 2000048:	da000915 	stw	r8,36(sp)
        stw   r9,  40(sp)
 200004c:	da400a15 	stw	r9,40(sp)
        stw   r10, 44(sp)
 2000050:	da800b15 	stw	r10,44(sp)
        stw   r11, 48(sp)
 2000054:	dac00c15 	stw	r11,48(sp)
        stw   r12, 52(sp)
 2000058:	db000d15 	stw	r12,52(sp)
        stw   r13, 56(sp)
 200005c:	db400e15 	stw	r13,56(sp)
        stw   r14, 60(sp)
 2000060:	db800f15 	stw	r14,60(sp)
        stw   r15, 64(sp)
 2000064:	dbc01015 	stw	r15,64(sp)
        /*
         * ea-4 contains the address of the instruction being executed
         * when the exception occured. For interrupt exceptions, we will
         * will be re-issue the isntruction. Store it in 72(sp)
         */
        stw   r5,  68(sp)  /* estatus */
 2000068:	d9401115 	stw	r5,68(sp)
        addi  r15, ea, -4  /* instruction that caused exception */
 200006c:	ebffff04 	addi	r15,ea,-4
        stw   r15,  72(sp)
 2000070:	dbc01215 	stw	r15,72(sp)
#else
        /*
         * Test to see if the exception was a software exception or caused 
         * by an external interrupt, and vector accordingly.
         */
        rdctl r4, ipending
 2000074:	0009313a 	rdctl	r4,ipending
        andi  r2, r5, 1
 2000078:	2880004c 	andi	r2,r5,1
        beq   r2, zero, .Lnot_irq
 200007c:	10000326 	beq	r2,zero,200008c <alt_exception+0x6c>
        beq   r4, zero, .Lnot_irq
 2000080:	20000226 	beq	r4,zero,200008c <alt_exception+0x6c>
        /*
         * Now that all necessary registers have been preserved, call 
         * alt_irq_handler() to process the interrupts.
         */

        call alt_irq_handler
 2000084:	20000ec0 	call	20000ec <alt_irq_handler>

        .section .exceptions.irqreturn, "xa"

        br    .Lexception_exit
 2000088:	00000306 	br	2000098 <alt_exception_unknown+0x4>
         * upon completion, so we write ea (address of instruction *after*
         * the one where the exception occured) into 72(sp). The actual
         * instruction that caused the exception is written in r2, which these
         * handlers will utilize.
         */
        stw   ea,  72(sp)  /* Don't re-issue */
 200008c:	df401215 	stw	ea,72(sp)
        ldw   r2, -4(ea)   /* Instruction that caused exception */
 2000090:	e8bfff17 	ldw	r2,-4(ea)

02000094 <alt_exception_unknown>:
#ifdef NIOS2_HAS_DEBUG_STUB
       /*
        *  Either tell the user now (if there is a debugger attached) or go into
        *  the debug monitor which will loop until a debugger is attached.
        */
        break
 2000094:	003da03a 	break	0
        /* 
         * Restore the saved registers, so that all general purpose registers 
         * have been restored to their state at the time the interrupt occured.
         */

        ldw   r5,  68(sp)
 2000098:	d9401117 	ldw	r5,68(sp)
        ldw   ea,  72(sp)  /* This becomes the PC once eret is executed */
 200009c:	df401217 	ldw	ea,72(sp)
        ldw   ra,   0(sp)
 20000a0:	dfc00017 	ldw	ra,0(sp)

        wrctl estatus, r5
 20000a4:	2801707a 	wrctl	estatus,r5

        ldw   r1,   8(sp)
 20000a8:	d8400217 	ldw	at,8(sp)
        ldw   r2,  12(sp)
 20000ac:	d8800317 	ldw	r2,12(sp)
        ldw   r3,  16(sp)
 20000b0:	d8c00417 	ldw	r3,16(sp)
        ldw   r4,  20(sp)
 20000b4:	d9000517 	ldw	r4,20(sp)
        ldw   r5,  24(sp)
 20000b8:	d9400617 	ldw	r5,24(sp)
        ldw   r6,  28(sp)
 20000bc:	d9800717 	ldw	r6,28(sp)
        ldw   r7,  32(sp)
 20000c0:	d9c00817 	ldw	r7,32(sp)

#if defined(ALT_EXCEPTION_STACK) && defined(ALT_STACK_CHECK)
        ldw   et, %gprel(alt_exception_old_stack_limit)(gp)
#endif

        ldw   r8,  36(sp)
 20000c4:	da000917 	ldw	r8,36(sp)
        ldw   r9,  40(sp)
 20000c8:	da400a17 	ldw	r9,40(sp)
        ldw   r10, 44(sp)
 20000cc:	da800b17 	ldw	r10,44(sp)
        ldw   r11, 48(sp)
 20000d0:	dac00c17 	ldw	r11,48(sp)
        ldw   r12, 52(sp)
 20000d4:	db000d17 	ldw	r12,52(sp)
        ldw   r13, 56(sp)
 20000d8:	db400e17 	ldw	r13,56(sp)
        ldw   r14, 60(sp)
 20000dc:	db800f17 	ldw	r14,60(sp)
        ldw   r15, 64(sp)
 20000e0:	dbc01017 	ldw	r15,64(sp)
        stw   et, %gprel(alt_stack_limit_value)(gp)
        stw   zero, %gprel(alt_exception_old_stack_limit)(gp)
#endif /* ALT_STACK_CHECK */
        ldw   sp,  76(sp)
#else /* ALT_EXCEPTION_STACK disabled */
        addi  sp, sp, 76
 20000e4:	dec01304 	addi	sp,sp,76

        /*
         * Return to the interrupted instruction.
         */

        eret
 20000e8:	ef80083a 	eret

020000ec <alt_irq_handler>:
 * instruction is present if the macro ALT_CI_INTERRUPT_VECTOR defined.
 */

void alt_irq_handler (void) __attribute__ ((section (".exceptions")));
void alt_irq_handler (void)
{
 20000ec:	defff904 	addi	sp,sp,-28
 20000f0:	dfc00615 	stw	ra,24(sp)
 20000f4:	df000515 	stw	fp,20(sp)
 20000f8:	df000504 	addi	fp,sp,20
  
  /*
   * Notify the operating system that we are at interrupt level.
   */ 
  
  ALT_OS_INT_ENTER();
 20000fc:	2010a2c0 	call	2010a2c <OSIntEnter>
#ifndef NIOS2_EIC_PRESENT
static ALT_INLINE alt_u32 ALT_ALWAYS_INLINE alt_irq_pending (void)
{
  alt_u32 active;

  NIOS2_READ_IPENDING (active);
 2000100:	0005313a 	rdctl	r2,ipending
 2000104:	e0bffe15 	stw	r2,-8(fp)

  return active;
 2000108:	e0bffe17 	ldw	r2,-8(fp)
   * Consider the case where the high priority interupt is asserted during
   * the interrupt entry sequence for a lower priority interrupt to see why
   * this is the case.
   */

  active = alt_irq_pending ();
 200010c:	e0bffb15 	stw	r2,-20(fp)

  do
  {
    i = 0;
 2000110:	e03ffd15 	stw	zero,-12(fp)
    mask = 1;
 2000114:	00800044 	movi	r2,1
 2000118:	e0bffc15 	stw	r2,-16(fp)
     * called to clear the interrupt condition.
     */

    do
    {
      if (active & mask)
 200011c:	e0fffb17 	ldw	r3,-20(fp)
 2000120:	e0bffc17 	ldw	r2,-16(fp)
 2000124:	1884703a 	and	r2,r3,r2
 2000128:	10001726 	beq	r2,zero,2000188 <alt_irq_handler+0x9c>
      { 
#ifdef ALT_ENHANCED_INTERRUPT_API_PRESENT
        alt_irq[i].handler(alt_irq[i].context); 
 200012c:	00c080b4 	movhi	r3,514
 2000130:	18d9da04 	addi	r3,r3,26472
 2000134:	e0bffd17 	ldw	r2,-12(fp)
 2000138:	100490fa 	slli	r2,r2,3
 200013c:	1885883a 	add	r2,r3,r2
 2000140:	10c00017 	ldw	r3,0(r2)
 2000144:	010080b4 	movhi	r4,514
 2000148:	2119da04 	addi	r4,r4,26472
 200014c:	e0bffd17 	ldw	r2,-12(fp)
 2000150:	100490fa 	slli	r2,r2,3
 2000154:	2085883a 	add	r2,r4,r2
 2000158:	10800104 	addi	r2,r2,4
 200015c:	10800017 	ldw	r2,0(r2)
 2000160:	1009883a 	mov	r4,r2
 2000164:	183ee83a 	callr	r3
#else
        alt_irq[i].handler(alt_irq[i].context, i); 
#endif
        break;
 2000168:	0001883a 	nop
#ifndef NIOS2_EIC_PRESENT
static ALT_INLINE alt_u32 ALT_ALWAYS_INLINE alt_irq_pending (void)
{
  alt_u32 active;

  NIOS2_READ_IPENDING (active);
 200016c:	0005313a 	rdctl	r2,ipending
 2000170:	e0bfff15 	stw	r2,-4(fp)

  return active;
 2000174:	e0bfff17 	ldw	r2,-4(fp)
      mask <<= 1;
      i++;

    } while (1);

    active = alt_irq_pending ();
 2000178:	e0bffb15 	stw	r2,-20(fp)
    
  } while (active);
 200017c:	e0bffb17 	ldw	r2,-20(fp)
 2000180:	103fe31e 	bne	r2,zero,2000110 <alt_irq_handler+0x24>
 2000184:	00000706 	br	20001a4 <alt_irq_handler+0xb8>
#else
        alt_irq[i].handler(alt_irq[i].context, i); 
#endif
        break;
      }
      mask <<= 1;
 2000188:	e0bffc17 	ldw	r2,-16(fp)
 200018c:	1085883a 	add	r2,r2,r2
 2000190:	e0bffc15 	stw	r2,-16(fp)
      i++;
 2000194:	e0bffd17 	ldw	r2,-12(fp)
 2000198:	10800044 	addi	r2,r2,1
 200019c:	e0bffd15 	stw	r2,-12(fp)

    } while (1);
 20001a0:	003fde06 	br	200011c <alt_irq_handler+0x30>

  /*
   * Notify the operating system that interrupt processing is complete.
   */ 

  ALT_OS_INT_EXIT();
 20001a4:	2010aa80 	call	2010aa8 <OSIntExit>
}
 20001a8:	e037883a 	mov	sp,fp
 20001ac:	dfc00117 	ldw	ra,4(sp)
 20001b0:	df000017 	ldw	fp,0(sp)
 20001b4:	dec00204 	addi	sp,sp,8
 20001b8:	f800283a 	ret

Disassembly of section .text:

020001bc <_start>:

    /*
     * Now that the caches are initialized, set up the stack pointer and global pointer.
     * The values provided by the linker are assumed to be correctly aligned.
     */
    movhi sp, %hi(__alt_stack_pointer)
 20001bc:	06c10034 	movhi	sp,1024
    ori sp, sp, %lo(__alt_stack_pointer)
 20001c0:	dec00014 	ori	sp,sp,0
    movhi gp, %hi(_gp)
 20001c4:	068080b4 	movhi	gp,514
    ori gp, gp, %lo(_gp)
 20001c8:	d6996d14 	ori	gp,gp,26036
 */
#ifndef ALT_SIM_OPTIMIZE
    /* Log that the BSS is about to be cleared. */
    ALT_LOG_PUTS(alt_log_msg_bss)

    movhi r2, %hi(__bss_start)
 20001cc:	008080b4 	movhi	r2,514
    ori r2, r2, %lo(__bss_start)
 20001d0:	1080c514 	ori	r2,r2,788

    movhi r3, %hi(__bss_end)
 20001d4:	00c080b4 	movhi	r3,514
    ori r3, r3, %lo(__bss_end)
 20001d8:	18da7e14 	ori	r3,r3,27128

    beq r2, r3, 1f
 20001dc:	10c00326 	beq	r2,r3,20001ec <_start+0x30>

0:
    stw zero, (r2)
 20001e0:	10000015 	stw	zero,0(r2)
    addi r2, r2, 4
 20001e4:	10800104 	addi	r2,r2,4
    bltu r2, r3, 0b
 20001e8:	10fffd36 	bltu	r2,r3,20001e0 <_start+0x24>
     * section aren't defined until alt_load() has been called).
     */
    mov   et, zero
#endif

    call alt_load
 20001ec:	200f5540 	call	200f554 <alt_load>

    /* Log that alt_main is about to be called. */
    ALT_LOG_PUTS(alt_log_msg_alt_main)

    /* Call the C entry point. It should never return. */
    call alt_main
 20001f0:	200f6f80 	call	200f6f8 <alt_main>

020001f4 <alt_after_alt_main>:

    /* Wait in infinite loop in case alt_main does return. */
alt_after_alt_main:
    br alt_after_alt_main
 20001f4:	003fff06 	br	20001f4 <alt_after_alt_main>

020001f8 <init_ins>:

//! time in ms to wait until we try to get the next XYZ-data from the g-sensor
const int data_wait  = 1;


INS *init_ins(INS *ins, alt_u32 sensor_spi_base_addr) {
 20001f8:	defffb04 	addi	sp,sp,-20
 20001fc:	dfc00415 	stw	ra,16(sp)
 2000200:	df000315 	stw	fp,12(sp)
 2000204:	df000304 	addi	fp,sp,12
 2000208:	e13ffe15 	stw	r4,-8(fp)
 200020c:	e17fff15 	stw	r5,-4(fp)

	ins->sensor_spi_base_addr = sensor_spi_base_addr;
 2000210:	e0bffe17 	ldw	r2,-8(fp)
 2000214:	e0ffff17 	ldw	r3,-4(fp)
 2000218:	10c00015 	stw	r3,0(r2)

	ADXL345_SPI_Init( ins->sensor_spi_base_addr );
 200021c:	e0bffe17 	ldw	r2,-8(fp)
 2000220:	10800017 	ldw	r2,0(r2)
 2000224:	1009883a 	mov	r4,r2
 2000228:	2001f5c0 	call	2001f5c <ADXL345_SPI_Init>

	// initialize the arrays
	int j;
	for(j=0; j<GSENSOR_DIM; j++) {
 200022c:	e03ffd15 	stw	zero,-12(fp)
 2000230:	00001f06 	br	20002b0 <init_ins+0xb8>
		ins->sensor_calibration[j] = 0.0;
 2000234:	e0fffe17 	ldw	r3,-8(fp)
 2000238:	e0bffd17 	ldw	r2,-12(fp)
 200023c:	100490fa 	slli	r2,r2,3
 2000240:	1885883a 	add	r2,r3,r2
 2000244:	10800104 	addi	r2,r2,4
 2000248:	10000015 	stw	zero,0(r2)
 200024c:	10000115 	stw	zero,4(r2)
		ins->acceleration[j]       = 0.0;
 2000250:	e0fffe17 	ldw	r3,-8(fp)
 2000254:	e0bffd17 	ldw	r2,-12(fp)
 2000258:	100490fa 	slli	r2,r2,3
 200025c:	1885883a 	add	r2,r3,r2
 2000260:	10800704 	addi	r2,r2,28
 2000264:	10000015 	stw	zero,0(r2)
 2000268:	10000115 	stw	zero,4(r2)
		ins->speed[j]              = 0.0;
 200026c:	e0fffe17 	ldw	r3,-8(fp)
 2000270:	e0bffd17 	ldw	r2,-12(fp)
 2000274:	100490fa 	slli	r2,r2,3
 2000278:	1885883a 	add	r2,r3,r2
 200027c:	10800d04 	addi	r2,r2,52
 2000280:	10000015 	stw	zero,0(r2)
 2000284:	10000115 	stw	zero,4(r2)
		ins->distance[j]           = 0.0;
 2000288:	e0fffe17 	ldw	r3,-8(fp)
 200028c:	e0bffd17 	ldw	r2,-12(fp)
 2000290:	100490fa 	slli	r2,r2,3
 2000294:	1885883a 	add	r2,r3,r2
 2000298:	10801304 	addi	r2,r2,76
 200029c:	10000015 	stw	zero,0(r2)
 20002a0:	10000115 	stw	zero,4(r2)

	ADXL345_SPI_Init( ins->sensor_spi_base_addr );

	// initialize the arrays
	int j;
	for(j=0; j<GSENSOR_DIM; j++) {
 20002a4:	e0bffd17 	ldw	r2,-12(fp)
 20002a8:	10800044 	addi	r2,r2,1
 20002ac:	e0bffd15 	stw	r2,-12(fp)
 20002b0:	e0bffd17 	ldw	r2,-12(fp)
 20002b4:	108000d0 	cmplti	r2,r2,3
 20002b8:	103fde1e 	bne	r2,zero,2000234 <init_ins+0x3c>
		ins->acceleration[j]       = 0.0;
		ins->speed[j]              = 0.0;
		ins->distance[j]           = 0.0;
	}

	return ins;
 20002bc:	e0bffe17 	ldw	r2,-8(fp)
}
 20002c0:	e037883a 	mov	sp,fp
 20002c4:	dfc00117 	ldw	ra,4(sp)
 20002c8:	df000017 	ldw	fp,0(sp)
 20002cc:	dec00204 	addi	sp,sp,8
 20002d0:	f800283a 	ret

020002d4 <calibrate_ins>:

void calibrate_ins(INS *ins, double x, double y, double z) {
 20002d4:	defffb04 	addi	sp,sp,-20
 20002d8:	df000315 	stw	fp,12(sp)
 20002dc:	df000304 	addi	fp,sp,12
 20002e0:	e13ffd15 	stw	r4,-12(fp)
 20002e4:	e17ffe15 	stw	r5,-8(fp)
 20002e8:	e1bfff15 	stw	r6,-4(fp)
 20002ec:	e1c00115 	stw	r7,4(fp)
	ins->sensor_calibration[0] = x;
 20002f0:	e0bffd17 	ldw	r2,-12(fp)
 20002f4:	e0fffe17 	ldw	r3,-8(fp)
 20002f8:	10c00115 	stw	r3,4(r2)
 20002fc:	e0ffff17 	ldw	r3,-4(fp)
 2000300:	10c00215 	stw	r3,8(r2)
	ins->sensor_calibration[1] = y;
 2000304:	e0bffd17 	ldw	r2,-12(fp)
 2000308:	e0c00117 	ldw	r3,4(fp)
 200030c:	10c00315 	stw	r3,12(r2)
 2000310:	e0c00217 	ldw	r3,8(fp)
 2000314:	10c00415 	stw	r3,16(r2)
	ins->sensor_calibration[2] = z;
 2000318:	e0bffd17 	ldw	r2,-12(fp)
 200031c:	e0c00317 	ldw	r3,12(fp)
 2000320:	10c00515 	stw	r3,20(r2)
 2000324:	e0c00417 	ldw	r3,16(fp)
 2000328:	10c00615 	stw	r3,24(r2)
}
 200032c:	e037883a 	mov	sp,fp
 2000330:	df000017 	ldw	fp,0(sp)
 2000334:	dec00204 	addi	sp,sp,8
 2000338:	f800283a 	ret

0200033c <auto_calibrate_ins>:

int auto_calibrate_ins(INS *ins, int values) {
 200033c:	deffef04 	addi	sp,sp,-68
 2000340:	dfc01015 	stw	ra,64(sp)
 2000344:	df000f15 	stw	fp,60(sp)
 2000348:	dc400e15 	stw	r17,56(sp)
 200034c:	dc000d15 	stw	r16,52(sp)
 2000350:	df000d04 	addi	fp,sp,52
 2000354:	e13ffe15 	stw	r4,-8(fp)
 2000358:	e17fff15 	stw	r5,-4(fp)
	// this value will be returned
	// set to 0 when we cannot read from the sensor
	int success = 1;
 200035c:	00800044 	movi	r2,1
 2000360:	e0bff315 	stw	r2,-52(fp)

	// initialize the array that is used below for calculating the average output
	// of the acceleration sensor
	double sum[GSENSOR_DIM];
	int j;
	for(j=0; j<GSENSOR_DIM; j++)
 2000364:	e03ff415 	stw	zero,-48(fp)
 2000368:	00000a06 	br	2000394 <auto_calibrate_ins+0x58>
		sum[j] = 0.0;
 200036c:	e0bff417 	ldw	r2,-48(fp)
 2000370:	100490fa 	slli	r2,r2,3
 2000374:	e0fff304 	addi	r3,fp,-52
 2000378:	1885883a 	add	r2,r3,r2
 200037c:	10800504 	addi	r2,r2,20
 2000380:	10000015 	stw	zero,0(r2)
 2000384:	10000115 	stw	zero,4(r2)

	// initialize the array that is used below for calculating the average output
	// of the acceleration sensor
	double sum[GSENSOR_DIM];
	int j;
	for(j=0; j<GSENSOR_DIM; j++)
 2000388:	e0bff417 	ldw	r2,-48(fp)
 200038c:	10800044 	addi	r2,r2,1
 2000390:	e0bff415 	stw	r2,-48(fp)
 2000394:	e0bff417 	ldw	r2,-48(fp)
 2000398:	108000d0 	cmplti	r2,r2,3
 200039c:	103ff31e 	bne	r2,zero,200036c <auto_calibrate_ins+0x30>
		sum[j] = 0.0;

	// read #values values from the sensor
	int i;
	for(i=0; i<values; i++) {
 20003a0:	e03ff515 	stw	zero,-44(fp)
 20003a4:	00004a06 	br	20004d0 <auto_calibrate_ins+0x194>
		// wait for next value from sensor
		if(!wait_for_data(ins)) {
 20003a8:	e13ffe17 	ldw	r4,-8(fp)
 20003ac:	20005f80 	call	20005f8 <wait_for_data>
 20003b0:	1000031e 	bne	r2,zero,20003c0 <auto_calibrate_ins+0x84>
			success = 0;
 20003b4:	e03ff315 	stw	zero,-52(fp)
			return success;
 20003b8:	e0bff317 	ldw	r2,-52(fp)
 20003bc:	00008706 	br	20005dc <auto_calibrate_ins+0x2a0>
		}

		// read acceleration data from the sensor
		success = ADXL345_SPI_XYZ_Read( ins->sensor_spi_base_addr, (alt_u16 *) cal_acceleration );
 20003c0:	e0bffe17 	ldw	r2,-8(fp)
 20003c4:	10c00017 	ldw	r3,0(r2)
 20003c8:	e0bff604 	addi	r2,fp,-40
 20003cc:	1809883a 	mov	r4,r3
 20003d0:	100b883a 	mov	r5,r2
 20003d4:	200211c0 	call	200211c <ADXL345_SPI_XYZ_Read>
 20003d8:	e0bff315 	stw	r2,-52(fp)

		if(!success) {
 20003dc:	e0bff317 	ldw	r2,-52(fp)
 20003e0:	1000051e 	bne	r2,zero,20003f8 <auto_calibrate_ins+0xbc>
			printf("ERROR: cannot read from sensor!\n");
 20003e4:	010080b4 	movhi	r4,514
 20003e8:	21304e04 	addi	r4,r4,-16072
 20003ec:	2005d040 	call	2005d04 <puts>
			return success;
 20003f0:	e0bff317 	ldw	r2,-52(fp)
 20003f4:	00007906 	br	20005dc <auto_calibrate_ins+0x2a0>
		}

		// update sums with the latest output
		for(j=0; j<GSENSOR_DIM; j++)
 20003f8:	e03ff415 	stw	zero,-48(fp)
 20003fc:	00002706 	br	200049c <auto_calibrate_ins+0x160>
			sum[j] += cal_acceleration[j];
 2000400:	e0bff417 	ldw	r2,-48(fp)
 2000404:	100490fa 	slli	r2,r2,3
 2000408:	e17ff304 	addi	r5,fp,-52
 200040c:	2885883a 	add	r2,r5,r2
 2000410:	10800504 	addi	r2,r2,20
 2000414:	14000017 	ldw	r16,0(r2)
 2000418:	14400117 	ldw	r17,4(r2)
 200041c:	e0bff417 	ldw	r2,-48(fp)
 2000420:	1085883a 	add	r2,r2,r2
 2000424:	e0fff304 	addi	r3,fp,-52
 2000428:	1885883a 	add	r2,r3,r2
 200042c:	10800304 	addi	r2,r2,12
 2000430:	1080000b 	ldhu	r2,0(r2)
 2000434:	10bfffcc 	andi	r2,r2,65535
 2000438:	10a0001c 	xori	r2,r2,32768
 200043c:	10a00004 	addi	r2,r2,-32768
 2000440:	1009883a 	mov	r4,r2
 2000444:	20046e80 	call	20046e8 <__floatsidf>
 2000448:	100f883a 	mov	r7,r2
 200044c:	1811883a 	mov	r8,r3
 2000450:	8009883a 	mov	r4,r16
 2000454:	880b883a 	mov	r5,r17
 2000458:	380d883a 	mov	r6,r7
 200045c:	400f883a 	mov	r7,r8
 2000460:	20040dc0 	call	20040dc <__adddf3>
 2000464:	1009883a 	mov	r4,r2
 2000468:	180b883a 	mov	r5,r3
 200046c:	2005883a 	mov	r2,r4
 2000470:	2807883a 	mov	r3,r5
 2000474:	e13ff417 	ldw	r4,-48(fp)
 2000478:	200890fa 	slli	r4,r4,3
 200047c:	e17ff304 	addi	r5,fp,-52
 2000480:	2909883a 	add	r4,r5,r4
 2000484:	21000504 	addi	r4,r4,20
 2000488:	20800015 	stw	r2,0(r4)
 200048c:	20c00115 	stw	r3,4(r4)
			printf("ERROR: cannot read from sensor!\n");
			return success;
		}

		// update sums with the latest output
		for(j=0; j<GSENSOR_DIM; j++)
 2000490:	e0bff417 	ldw	r2,-48(fp)
 2000494:	10800044 	addi	r2,r2,1
 2000498:	e0bff415 	stw	r2,-48(fp)
 200049c:	e0bff417 	ldw	r2,-48(fp)
 20004a0:	108000d0 	cmplti	r2,r2,3
 20004a4:	103fd61e 	bne	r2,zero,2000400 <auto_calibrate_ins+0xc4>
			sum[j] += cal_acceleration[j];

		// make a small pause until we try to get the next data from the sensor
		OSTimeDlyHMSM(0, 0, 0, data_wait);
 20004a8:	d0a00317 	ldw	r2,-32756(gp)
 20004ac:	10bfffcc 	andi	r2,r2,65535
 20004b0:	0009883a 	mov	r4,zero
 20004b4:	000b883a 	mov	r5,zero
 20004b8:	000d883a 	mov	r6,zero
 20004bc:	100f883a 	mov	r7,r2
 20004c0:	2017a2c0 	call	2017a2c <OSTimeDlyHMSM>
	for(j=0; j<GSENSOR_DIM; j++)
		sum[j] = 0.0;

	// read #values values from the sensor
	int i;
	for(i=0; i<values; i++) {
 20004c4:	e0bff517 	ldw	r2,-44(fp)
 20004c8:	10800044 	addi	r2,r2,1
 20004cc:	e0bff515 	stw	r2,-44(fp)
 20004d0:	e0fff517 	ldw	r3,-44(fp)
 20004d4:	e0bfff17 	ldw	r2,-4(fp)
 20004d8:	18bfb316 	blt	r3,r2,20003a8 <auto_calibrate_ins+0x6c>
		OSTimeDlyHMSM(0, 0, 0, data_wait);

	}

	// calculate the average values for all the dimensions
	for(j=0; j<GSENSOR_DIM; j++)
 20004dc:	e03ff415 	stw	zero,-48(fp)
 20004e0:	00002b06 	br	2000590 <auto_calibrate_ins+0x254>
		ins->sensor_calibration[j] = sum[j] / values * ms2_per_digi;
 20004e4:	e0bff417 	ldw	r2,-48(fp)
 20004e8:	100490fa 	slli	r2,r2,3
 20004ec:	e0fff304 	addi	r3,fp,-52
 20004f0:	1885883a 	add	r2,r3,r2
 20004f4:	10800504 	addi	r2,r2,20
 20004f8:	14000017 	ldw	r16,0(r2)
 20004fc:	14400117 	ldw	r17,4(r2)
 2000500:	e13fff17 	ldw	r4,-4(fp)
 2000504:	20046e80 	call	20046e8 <__floatsidf>
 2000508:	100f883a 	mov	r7,r2
 200050c:	1811883a 	mov	r8,r3
 2000510:	8009883a 	mov	r4,r16
 2000514:	880b883a 	mov	r5,r17
 2000518:	380d883a 	mov	r6,r7
 200051c:	400f883a 	mov	r7,r8
 2000520:	20044740 	call	2004474 <__divdf3>
 2000524:	100f883a 	mov	r7,r2
 2000528:	1811883a 	mov	r8,r3
 200052c:	380b883a 	mov	r5,r7
 2000530:	400d883a 	mov	r6,r8
 2000534:	d0a00017 	ldw	r2,-32768(gp)
 2000538:	010080b4 	movhi	r4,514
 200053c:	21396e04 	addi	r4,r4,-6728
 2000540:	20c00017 	ldw	r3,0(r4)
 2000544:	2809883a 	mov	r4,r5
 2000548:	300b883a 	mov	r5,r6
 200054c:	100d883a 	mov	r6,r2
 2000550:	180f883a 	mov	r7,r3
 2000554:	20041900 	call	2004190 <__muldf3>
 2000558:	1009883a 	mov	r4,r2
 200055c:	180b883a 	mov	r5,r3
 2000560:	2005883a 	mov	r2,r4
 2000564:	2807883a 	mov	r3,r5
 2000568:	e17ffe17 	ldw	r5,-8(fp)
 200056c:	e13ff417 	ldw	r4,-48(fp)
 2000570:	200890fa 	slli	r4,r4,3
 2000574:	2909883a 	add	r4,r5,r4
 2000578:	21000104 	addi	r4,r4,4
 200057c:	20800015 	stw	r2,0(r4)
 2000580:	20c00115 	stw	r3,4(r4)
		OSTimeDlyHMSM(0, 0, 0, data_wait);

	}

	// calculate the average values for all the dimensions
	for(j=0; j<GSENSOR_DIM; j++)
 2000584:	e0bff417 	ldw	r2,-48(fp)
 2000588:	10800044 	addi	r2,r2,1
 200058c:	e0bff415 	stw	r2,-48(fp)
 2000590:	e0bff417 	ldw	r2,-48(fp)
 2000594:	108000d0 	cmplti	r2,r2,3
 2000598:	103fd21e 	bne	r2,zero,20004e4 <auto_calibrate_ins+0x1a8>
		ins->sensor_calibration[j] = sum[j] / values * ms2_per_digi;

	// reset the speed to 0 as the system has to be standing still now
	for(j=0; j<GSENSOR_DIM; j++)
 200059c:	e03ff415 	stw	zero,-48(fp)
 20005a0:	00000a06 	br	20005cc <auto_calibrate_ins+0x290>
		ins->speed[j] = 0.0;
 20005a4:	e0fffe17 	ldw	r3,-8(fp)
 20005a8:	e0bff417 	ldw	r2,-48(fp)
 20005ac:	100490fa 	slli	r2,r2,3
 20005b0:	1885883a 	add	r2,r3,r2
 20005b4:	10800d04 	addi	r2,r2,52
 20005b8:	10000015 	stw	zero,0(r2)
 20005bc:	10000115 	stw	zero,4(r2)
	// calculate the average values for all the dimensions
	for(j=0; j<GSENSOR_DIM; j++)
		ins->sensor_calibration[j] = sum[j] / values * ms2_per_digi;

	// reset the speed to 0 as the system has to be standing still now
	for(j=0; j<GSENSOR_DIM; j++)
 20005c0:	e0bff417 	ldw	r2,-48(fp)
 20005c4:	10800044 	addi	r2,r2,1
 20005c8:	e0bff415 	stw	r2,-48(fp)
 20005cc:	e0bff417 	ldw	r2,-48(fp)
 20005d0:	108000d0 	cmplti	r2,r2,3
 20005d4:	103ff31e 	bne	r2,zero,20005a4 <auto_calibrate_ins+0x268>
		ins->speed[j] = 0.0;

	return success;
 20005d8:	e0bff317 	ldw	r2,-52(fp)
}
 20005dc:	e037883a 	mov	sp,fp
 20005e0:	dfc00317 	ldw	ra,12(sp)
 20005e4:	df000217 	ldw	fp,8(sp)
 20005e8:	dc400117 	ldw	r17,4(sp)
 20005ec:	dc000017 	ldw	r16,0(sp)
 20005f0:	dec00404 	addi	sp,sp,16
 20005f4:	f800283a 	ret

020005f8 <wait_for_data>:

int wait_for_data(INS *ins) {
 20005f8:	defffc04 	addi	sp,sp,-16
 20005fc:	dfc00315 	stw	ra,12(sp)
 2000600:	df000215 	stw	fp,8(sp)
 2000604:	df000204 	addi	fp,sp,8
 2000608:	e13fff15 	stw	r4,-4(fp)
	int i = 0;
 200060c:	e03ffe15 	stw	zero,-8(fp)

	while( !ADXL345_SPI_IsDataReady( ins->sensor_spi_base_addr ) ) {
 2000610:	00001106 	br	2000658 <wait_for_data+0x60>
		if(i++ >= sensor_read_tries)
 2000614:	d0a00217 	ldw	r2,-32760(gp)
 2000618:	e0fffe17 	ldw	r3,-8(fp)
 200061c:	1884403a 	cmpge	r2,r3,r2
 2000620:	e0fffe17 	ldw	r3,-8(fp)
 2000624:	18c00044 	addi	r3,r3,1
 2000628:	e0fffe15 	stw	r3,-8(fp)
 200062c:	10803fcc 	andi	r2,r2,255
 2000630:	10000226 	beq	r2,zero,200063c <wait_for_data+0x44>
			return 0;
 2000634:	0005883a 	mov	r2,zero
 2000638:	00000d06 	br	2000670 <wait_for_data+0x78>

		OSTimeDlyHMSM(0, 0, 0, data_wait);
 200063c:	d0a00317 	ldw	r2,-32756(gp)
 2000640:	10bfffcc 	andi	r2,r2,65535
 2000644:	0009883a 	mov	r4,zero
 2000648:	000b883a 	mov	r5,zero
 200064c:	000d883a 	mov	r6,zero
 2000650:	100f883a 	mov	r7,r2
 2000654:	2017a2c0 	call	2017a2c <OSTimeDlyHMSM>
}

int wait_for_data(INS *ins) {
	int i = 0;

	while( !ADXL345_SPI_IsDataReady( ins->sensor_spi_base_addr ) ) {
 2000658:	e0bfff17 	ldw	r2,-4(fp)
 200065c:	10800017 	ldw	r2,0(r2)
 2000660:	1009883a 	mov	r4,r2
 2000664:	20020b80 	call	20020b8 <ADXL345_SPI_IsDataReady>
 2000668:	103fea26 	beq	r2,zero,2000614 <wait_for_data+0x1c>
			return 0;

		OSTimeDlyHMSM(0, 0, 0, data_wait);
	}

	return 1;
 200066c:	00800044 	movi	r2,1
}
 2000670:	e037883a 	mov	sp,fp
 2000674:	dfc00117 	ldw	ra,4(sp)
 2000678:	df000017 	ldw	fp,0(sp)
 200067c:	dec00204 	addi	sp,sp,8
 2000680:	f800283a 	ret

02000684 <update_ins>:

int update_ins(INS *ins, double timestep) {
 2000684:	defff504 	addi	sp,sp,-44
 2000688:	dfc00a15 	stw	ra,40(sp)
 200068c:	df000915 	stw	fp,36(sp)
 2000690:	dc400815 	stw	r17,32(sp)
 2000694:	dc000715 	stw	r16,28(sp)
 2000698:	df000704 	addi	fp,sp,28
 200069c:	e13ffd15 	stw	r4,-12(fp)
 20006a0:	e17ffe15 	stw	r5,-8(fp)
 20006a4:	e1bfff15 	stw	r6,-4(fp)

	// check the sensor calibration for Z-axis: if this is 0, the ins has probably not been calibrated
	// => g-force
	if(ins->sensor_calibration[2] == 0)
 20006a8:	e13ffd17 	ldw	r4,-12(fp)
 20006ac:	20800517 	ldw	r2,20(r4)
 20006b0:	20c00617 	ldw	r3,24(r4)
 20006b4:	1009883a 	mov	r4,r2
 20006b8:	180b883a 	mov	r5,r3
 20006bc:	000d883a 	mov	r6,zero
 20006c0:	000f883a 	mov	r7,zero
 20006c4:	20046280 	call	2004628 <__eqdf2>
 20006c8:	1000031e 	bne	r2,zero,20006d8 <update_ins+0x54>
		printf("WARNING: g-sensor has probably not been calibrated!\n");
 20006cc:	010080b4 	movhi	r4,514
 20006d0:	21305604 	addi	r4,r4,-16040
 20006d4:	2005d040 	call	2005d04 <puts>

	if(!wait_for_data(ins))
 20006d8:	e13ffd17 	ldw	r4,-12(fp)
 20006dc:	20005f80 	call	20005f8 <wait_for_data>
 20006e0:	1000021e 	bne	r2,zero,20006ec <update_ins+0x68>
		return 0;
 20006e4:	0005883a 	mov	r2,zero
 20006e8:	00009606 	br	2000944 <update_ins+0x2c0>

	bool success;
	alt_16 acc[GSENSOR_DIM];

	success = ADXL345_SPI_XYZ_Read(ins->sensor_spi_base_addr, (alt_u16 *) acc);
 20006ec:	e0bffd17 	ldw	r2,-12(fp)
 20006f0:	10c00017 	ldw	r3,0(r2)
 20006f4:	e0bffb04 	addi	r2,fp,-20
 20006f8:	1809883a 	mov	r4,r3
 20006fc:	100b883a 	mov	r5,r2
 2000700:	200211c0 	call	200211c <ADXL345_SPI_XYZ_Read>
 2000704:	e0bffa15 	stw	r2,-24(fp)
	if(!success) {
 2000708:	e0bffa17 	ldw	r2,-24(fp)
 200070c:	1000051e 	bne	r2,zero,2000724 <update_ins+0xa0>
		printf("ERROR: reading from sensor failed!\n");
 2000710:	010080b4 	movhi	r4,514
 2000714:	21306304 	addi	r4,r4,-15988
 2000718:	2005d040 	call	2005d04 <puts>
		return 0;
 200071c:	0005883a 	mov	r2,zero
 2000720:	00008806 	br	2000944 <update_ins+0x2c0>
	}

	// update the state of the ins
	int j;
	for(j=0; j<GSENSOR_DIM; j++) {
 2000724:	e03ff915 	stw	zero,-28(fp)
 2000728:	00008206 	br	2000934 <update_ins+0x2b0>
		ins->acceleration[j] = ((int) acc[j]) * ms2_per_digi - ins->sensor_calibration[j];
 200072c:	e0bff917 	ldw	r2,-28(fp)
 2000730:	1085883a 	add	r2,r2,r2
 2000734:	e0fff904 	addi	r3,fp,-28
 2000738:	1885883a 	add	r2,r3,r2
 200073c:	10800204 	addi	r2,r2,8
 2000740:	1080000b 	ldhu	r2,0(r2)
 2000744:	10bfffcc 	andi	r2,r2,65535
 2000748:	10a0001c 	xori	r2,r2,32768
 200074c:	10a00004 	addi	r2,r2,-32768
 2000750:	1009883a 	mov	r4,r2
 2000754:	20046e80 	call	20046e8 <__floatsidf>
 2000758:	100b883a 	mov	r5,r2
 200075c:	180d883a 	mov	r6,r3
 2000760:	d0a00017 	ldw	r2,-32768(gp)
 2000764:	010080b4 	movhi	r4,514
 2000768:	21396e04 	addi	r4,r4,-6728
 200076c:	20c00017 	ldw	r3,0(r4)
 2000770:	2809883a 	mov	r4,r5
 2000774:	300b883a 	mov	r5,r6
 2000778:	100d883a 	mov	r6,r2
 200077c:	180f883a 	mov	r7,r3
 2000780:	20041900 	call	2004190 <__muldf3>
 2000784:	100f883a 	mov	r7,r2
 2000788:	1811883a 	mov	r8,r3
 200078c:	380b883a 	mov	r5,r7
 2000790:	400d883a 	mov	r6,r8
 2000794:	e0fffd17 	ldw	r3,-12(fp)
 2000798:	e0bff917 	ldw	r2,-28(fp)
 200079c:	100490fa 	slli	r2,r2,3
 20007a0:	1885883a 	add	r2,r3,r2
 20007a4:	11000104 	addi	r4,r2,4
 20007a8:	20800017 	ldw	r2,0(r4)
 20007ac:	20c00117 	ldw	r3,4(r4)
 20007b0:	2809883a 	mov	r4,r5
 20007b4:	300b883a 	mov	r5,r6
 20007b8:	100d883a 	mov	r6,r2
 20007bc:	180f883a 	mov	r7,r3
 20007c0:	20041300 	call	2004130 <__subdf3>
 20007c4:	1009883a 	mov	r4,r2
 20007c8:	180b883a 	mov	r5,r3
 20007cc:	2005883a 	mov	r2,r4
 20007d0:	2807883a 	mov	r3,r5
 20007d4:	e17ffd17 	ldw	r5,-12(fp)
 20007d8:	e13ff917 	ldw	r4,-28(fp)
 20007dc:	200890fa 	slli	r4,r4,3
 20007e0:	2909883a 	add	r4,r5,r4
 20007e4:	21000704 	addi	r4,r4,28
 20007e8:	20800015 	stw	r2,0(r4)
 20007ec:	20c00115 	stw	r3,4(r4)
		ins->speed[j]       += ins->acceleration[j] * timestep;
 20007f0:	e0fffd17 	ldw	r3,-12(fp)
 20007f4:	e0bff917 	ldw	r2,-28(fp)
 20007f8:	100490fa 	slli	r2,r2,3
 20007fc:	1885883a 	add	r2,r3,r2
 2000800:	10800d04 	addi	r2,r2,52
 2000804:	14000017 	ldw	r16,0(r2)
 2000808:	14400117 	ldw	r17,4(r2)
 200080c:	e0fffd17 	ldw	r3,-12(fp)
 2000810:	e0bff917 	ldw	r2,-28(fp)
 2000814:	100490fa 	slli	r2,r2,3
 2000818:	1885883a 	add	r2,r3,r2
 200081c:	11000704 	addi	r4,r2,28
 2000820:	20800017 	ldw	r2,0(r4)
 2000824:	20c00117 	ldw	r3,4(r4)
 2000828:	1009883a 	mov	r4,r2
 200082c:	180b883a 	mov	r5,r3
 2000830:	e1bffe17 	ldw	r6,-8(fp)
 2000834:	e1ffff17 	ldw	r7,-4(fp)
 2000838:	20041900 	call	2004190 <__muldf3>
 200083c:	1009883a 	mov	r4,r2
 2000840:	180b883a 	mov	r5,r3
 2000844:	2005883a 	mov	r2,r4
 2000848:	2807883a 	mov	r3,r5
 200084c:	8009883a 	mov	r4,r16
 2000850:	880b883a 	mov	r5,r17
 2000854:	100d883a 	mov	r6,r2
 2000858:	180f883a 	mov	r7,r3
 200085c:	20040dc0 	call	20040dc <__adddf3>
 2000860:	1009883a 	mov	r4,r2
 2000864:	180b883a 	mov	r5,r3
 2000868:	2005883a 	mov	r2,r4
 200086c:	2807883a 	mov	r3,r5
 2000870:	e17ffd17 	ldw	r5,-12(fp)
 2000874:	e13ff917 	ldw	r4,-28(fp)
 2000878:	200890fa 	slli	r4,r4,3
 200087c:	2909883a 	add	r4,r5,r4
 2000880:	21000d04 	addi	r4,r4,52
 2000884:	20800015 	stw	r2,0(r4)
 2000888:	20c00115 	stw	r3,4(r4)
		ins->distance[j]    += ins->speed[j]        * timestep;
 200088c:	e0fffd17 	ldw	r3,-12(fp)
 2000890:	e0bff917 	ldw	r2,-28(fp)
 2000894:	100490fa 	slli	r2,r2,3
 2000898:	1885883a 	add	r2,r3,r2
 200089c:	10801304 	addi	r2,r2,76
 20008a0:	14000017 	ldw	r16,0(r2)
 20008a4:	14400117 	ldw	r17,4(r2)
 20008a8:	e0fffd17 	ldw	r3,-12(fp)
 20008ac:	e0bff917 	ldw	r2,-28(fp)
 20008b0:	100490fa 	slli	r2,r2,3
 20008b4:	1885883a 	add	r2,r3,r2
 20008b8:	11000d04 	addi	r4,r2,52
 20008bc:	20800017 	ldw	r2,0(r4)
 20008c0:	20c00117 	ldw	r3,4(r4)
 20008c4:	1009883a 	mov	r4,r2
 20008c8:	180b883a 	mov	r5,r3
 20008cc:	e1bffe17 	ldw	r6,-8(fp)
 20008d0:	e1ffff17 	ldw	r7,-4(fp)
 20008d4:	20041900 	call	2004190 <__muldf3>
 20008d8:	1009883a 	mov	r4,r2
 20008dc:	180b883a 	mov	r5,r3
 20008e0:	2005883a 	mov	r2,r4
 20008e4:	2807883a 	mov	r3,r5
 20008e8:	8009883a 	mov	r4,r16
 20008ec:	880b883a 	mov	r5,r17
 20008f0:	100d883a 	mov	r6,r2
 20008f4:	180f883a 	mov	r7,r3
 20008f8:	20040dc0 	call	20040dc <__adddf3>
 20008fc:	1009883a 	mov	r4,r2
 2000900:	180b883a 	mov	r5,r3
 2000904:	2005883a 	mov	r2,r4
 2000908:	2807883a 	mov	r3,r5
 200090c:	e17ffd17 	ldw	r5,-12(fp)
 2000910:	e13ff917 	ldw	r4,-28(fp)
 2000914:	200890fa 	slli	r4,r4,3
 2000918:	2909883a 	add	r4,r5,r4
 200091c:	21001304 	addi	r4,r4,76
 2000920:	20800015 	stw	r2,0(r4)
 2000924:	20c00115 	stw	r3,4(r4)
		return 0;
	}

	// update the state of the ins
	int j;
	for(j=0; j<GSENSOR_DIM; j++) {
 2000928:	e0bff917 	ldw	r2,-28(fp)
 200092c:	10800044 	addi	r2,r2,1
 2000930:	e0bff915 	stw	r2,-28(fp)
 2000934:	e0bff917 	ldw	r2,-28(fp)
 2000938:	108000d0 	cmplti	r2,r2,3
 200093c:	103f7b1e 	bne	r2,zero,200072c <update_ins+0xa8>
		ins->acceleration[j] = ((int) acc[j]) * ms2_per_digi - ins->sensor_calibration[j];
		ins->speed[j]       += ins->acceleration[j] * timestep;
		ins->distance[j]    += ins->speed[j]        * timestep;
	}

	return 1;
 2000940:	00800044 	movi	r2,1
}
 2000944:	e037883a 	mov	sp,fp
 2000948:	dfc00317 	ldw	ra,12(sp)
 200094c:	df000217 	ldw	fp,8(sp)
 2000950:	dc400117 	ldw	r17,4(sp)
 2000954:	dc000017 	ldw	r16,0(sp)
 2000958:	dec00404 	addi	sp,sp,16
 200095c:	f800283a 	ret

02000960 <init_legocar>:

#include <stdio.h>
#include <unistd.h>


void init_legocar(LegoCar *car, alt_u32 motor_base_addresses[8], int pwm_period) {
 2000960:	defffa04 	addi	sp,sp,-24
 2000964:	dfc00515 	stw	ra,20(sp)
 2000968:	df000415 	stw	fp,16(sp)
 200096c:	df000404 	addi	fp,sp,16
 2000970:	e13ffd15 	stw	r4,-12(fp)
 2000974:	e17ffe15 	stw	r5,-8(fp)
 2000978:	e1bfff15 	stw	r6,-4(fp)
	int w;

	for(w=0; w<8; w++) {
 200097c:	e03ffc15 	stw	zero,-16(fp)
 2000980:	00002506 	br	2000a18 <init_legocar+0xb8>
		if( w < 4 )
 2000984:	e0bffc17 	ldw	r2,-16(fp)
 2000988:	10800108 	cmpgei	r2,r2,4
 200098c:	10000f1e 	bne	r2,zero,20009cc <init_legocar+0x6c>
			init_pwm_motor(&(car->speed[w]), motor_base_addresses[w], pwm_period);
 2000990:	e0bffc17 	ldw	r2,-16(fp)
 2000994:	1004917a 	slli	r2,r2,5
 2000998:	e0fffd17 	ldw	r3,-12(fp)
 200099c:	1889883a 	add	r4,r3,r2
 20009a0:	e0bffc17 	ldw	r2,-16(fp)
 20009a4:	1085883a 	add	r2,r2,r2
 20009a8:	1085883a 	add	r2,r2,r2
 20009ac:	e0fffe17 	ldw	r3,-8(fp)
 20009b0:	1885883a 	add	r2,r3,r2
 20009b4:	10c00017 	ldw	r3,0(r2)
 20009b8:	e0bfff17 	ldw	r2,-4(fp)
 20009bc:	180b883a 	mov	r5,r3
 20009c0:	100d883a 	mov	r6,r2
 20009c4:	20012640 	call	2001264 <init_pwm_motor>
 20009c8:	00001006 	br	2000a0c <init_legocar+0xac>
		else
			init_pwm_motor(&(car->direction[w-4]), motor_base_addresses[w], pwm_period);
 20009cc:	e0bffc17 	ldw	r2,-16(fp)
 20009d0:	10bfff04 	addi	r2,r2,-4
 20009d4:	10800104 	addi	r2,r2,4
 20009d8:	1004917a 	slli	r2,r2,5
 20009dc:	e0fffd17 	ldw	r3,-12(fp)
 20009e0:	1889883a 	add	r4,r3,r2
 20009e4:	e0bffc17 	ldw	r2,-16(fp)
 20009e8:	1085883a 	add	r2,r2,r2
 20009ec:	1085883a 	add	r2,r2,r2
 20009f0:	e0fffe17 	ldw	r3,-8(fp)
 20009f4:	1885883a 	add	r2,r3,r2
 20009f8:	10c00017 	ldw	r3,0(r2)
 20009fc:	e0bfff17 	ldw	r2,-4(fp)
 2000a00:	180b883a 	mov	r5,r3
 2000a04:	100d883a 	mov	r6,r2
 2000a08:	20012640 	call	2001264 <init_pwm_motor>


void init_legocar(LegoCar *car, alt_u32 motor_base_addresses[8], int pwm_period) {
	int w;

	for(w=0; w<8; w++) {
 2000a0c:	e0bffc17 	ldw	r2,-16(fp)
 2000a10:	10800044 	addi	r2,r2,1
 2000a14:	e0bffc15 	stw	r2,-16(fp)
 2000a18:	e0bffc17 	ldw	r2,-16(fp)
 2000a1c:	10800210 	cmplti	r2,r2,8
 2000a20:	103fd81e 	bne	r2,zero,2000984 <init_legocar+0x24>
			init_pwm_motor(&(car->speed[w]), motor_base_addresses[w], pwm_period);
		else
			init_pwm_motor(&(car->direction[w-4]), motor_base_addresses[w], pwm_period);
	}

}
 2000a24:	e037883a 	mov	sp,fp
 2000a28:	dfc00117 	ldw	ra,4(sp)
 2000a2c:	df000017 	ldw	fp,0(sp)
 2000a30:	dec00204 	addi	sp,sp,8
 2000a34:	f800283a 	ret

02000a38 <align_wheels>:

void align_wheels(LegoCar *car, int type, float direction) {
 2000a38:	defff904 	addi	sp,sp,-28
 2000a3c:	dfc00615 	stw	ra,24(sp)
 2000a40:	df000515 	stw	fp,20(sp)
 2000a44:	dc000415 	stw	r16,16(sp)
 2000a48:	df000404 	addi	fp,sp,16
 2000a4c:	e13ffd15 	stw	r4,-12(fp)
 2000a50:	e17ffe15 	stw	r5,-8(fp)
 2000a54:	e1bfff15 	stw	r6,-4(fp)

	int w;

	for(w=0; w<4; w++) {
 2000a58:	e03ffc15 	stw	zero,-16(fp)
 2000a5c:	00005806 	br	2000bc0 <align_wheels+0x188>
		switch(type) {
 2000a60:	e0bffe17 	ldw	r2,-8(fp)
 2000a64:	10c00060 	cmpeqi	r3,r2,1
 2000a68:	18000c1e 	bne	r3,zero,2000a9c <align_wheels+0x64>
 2000a6c:	10c000a0 	cmpeqi	r3,r2,2
 2000a70:	1800211e 	bne	r3,zero,2000af8 <align_wheels+0xc0>
 2000a74:	1000371e 	bne	r2,zero,2000b54 <align_wheels+0x11c>
		case PARALLEL:
			set_direction(&car->direction[w], direction);
 2000a78:	e0bffc17 	ldw	r2,-16(fp)
 2000a7c:	10800104 	addi	r2,r2,4
 2000a80:	1004917a 	slli	r2,r2,5
 2000a84:	e0fffd17 	ldw	r3,-12(fp)
 2000a88:	1885883a 	add	r2,r3,r2
 2000a8c:	1009883a 	mov	r4,r2
 2000a90:	e17fff17 	ldw	r5,-4(fp)
 2000a94:	200343c0 	call	200343c <set_direction>
			break;
 2000a98:	00003206 	br	2000b64 <align_wheels+0x12c>

		case CIRCLE:
			if(w == 0 || w == 3)
 2000a9c:	e0bffc17 	ldw	r2,-16(fp)
 2000aa0:	10000326 	beq	r2,zero,2000ab0 <align_wheels+0x78>
 2000aa4:	e0bffc17 	ldw	r2,-16(fp)
 2000aa8:	108000d8 	cmpnei	r2,r2,3
 2000aac:	1000091e 	bne	r2,zero,2000ad4 <align_wheels+0x9c>
				set_direction(&car->direction[w], -1);
 2000ab0:	e0bffc17 	ldw	r2,-16(fp)
 2000ab4:	10800104 	addi	r2,r2,4
 2000ab8:	1004917a 	slli	r2,r2,5
 2000abc:	e0fffd17 	ldw	r3,-12(fp)
 2000ac0:	1885883a 	add	r2,r3,r2
 2000ac4:	1009883a 	mov	r4,r2
 2000ac8:	016fe034 	movhi	r5,49024
 2000acc:	200343c0 	call	200343c <set_direction>
			else
				set_direction(&car->direction[w], +1);
			break;
 2000ad0:	00002406 	br	2000b64 <align_wheels+0x12c>

		case CIRCLE:
			if(w == 0 || w == 3)
				set_direction(&car->direction[w], -1);
			else
				set_direction(&car->direction[w], +1);
 2000ad4:	e0bffc17 	ldw	r2,-16(fp)
 2000ad8:	10800104 	addi	r2,r2,4
 2000adc:	1004917a 	slli	r2,r2,5
 2000ae0:	e0fffd17 	ldw	r3,-12(fp)
 2000ae4:	1885883a 	add	r2,r3,r2
 2000ae8:	1009883a 	mov	r4,r2
 2000aec:	014fe034 	movhi	r5,16256
 2000af0:	200343c0 	call	200343c <set_direction>
			break;
 2000af4:	00001b06 	br	2000b64 <align_wheels+0x12c>

		case CURVE:
			if(w < 2)
 2000af8:	e0bffc17 	ldw	r2,-16(fp)
 2000afc:	10800088 	cmpgei	r2,r2,2
 2000b00:	1000091e 	bne	r2,zero,2000b28 <align_wheels+0xf0>
				set_direction(&car->direction[w], direction);
 2000b04:	e0bffc17 	ldw	r2,-16(fp)
 2000b08:	10800104 	addi	r2,r2,4
 2000b0c:	1004917a 	slli	r2,r2,5
 2000b10:	e0fffd17 	ldw	r3,-12(fp)
 2000b14:	1885883a 	add	r2,r3,r2
 2000b18:	1009883a 	mov	r4,r2
 2000b1c:	e17fff17 	ldw	r5,-4(fp)
 2000b20:	200343c0 	call	200343c <set_direction>
			else
				set_direction(&car->direction[w], -direction);
			break;
 2000b24:	00000f06 	br	2000b64 <align_wheels+0x12c>

		case CURVE:
			if(w < 2)
				set_direction(&car->direction[w], direction);
			else
				set_direction(&car->direction[w], -direction);
 2000b28:	e0bffc17 	ldw	r2,-16(fp)
 2000b2c:	10800104 	addi	r2,r2,4
 2000b30:	1004917a 	slli	r2,r2,5
 2000b34:	e0fffd17 	ldw	r3,-12(fp)
 2000b38:	1885883a 	add	r2,r3,r2
 2000b3c:	e0ffff17 	ldw	r3,-4(fp)
 2000b40:	18e0003c 	xorhi	r3,r3,32768
 2000b44:	1009883a 	mov	r4,r2
 2000b48:	180b883a 	mov	r5,r3
 2000b4c:	200343c0 	call	200343c <set_direction>
			break;
 2000b50:	00000406 	br	2000b64 <align_wheels+0x12c>

		default:
			printf("!!!Invalid wheel alignment type!!!\n");
 2000b54:	010080b4 	movhi	r4,514
 2000b58:	21306c04 	addi	r4,r4,-15952
 2000b5c:	2005d040 	call	2005d04 <puts>
			break;
 2000b60:	0001883a 	nop
		}

		printf("wheel %d: direction %f\n", w+1, get_direction(&car->direction[w]));
 2000b64:	e0bffc17 	ldw	r2,-16(fp)
 2000b68:	14000044 	addi	r16,r2,1
 2000b6c:	e0bffc17 	ldw	r2,-16(fp)
 2000b70:	10800104 	addi	r2,r2,4
 2000b74:	1004917a 	slli	r2,r2,5
 2000b78:	e0fffd17 	ldw	r3,-12(fp)
 2000b7c:	1885883a 	add	r2,r3,r2
 2000b80:	1009883a 	mov	r4,r2
 2000b84:	20034c40 	call	20034c4 <get_direction>
 2000b88:	1007883a 	mov	r3,r2
 2000b8c:	1809883a 	mov	r4,r3
 2000b90:	2003c700 	call	2003c70 <__extendsfdf2>
 2000b94:	100f883a 	mov	r7,r2
 2000b98:	1811883a 	mov	r8,r3
 2000b9c:	010080b4 	movhi	r4,514
 2000ba0:	21307504 	addi	r4,r4,-15916
 2000ba4:	800b883a 	mov	r5,r16
 2000ba8:	380d883a 	mov	r6,r7
 2000bac:	400f883a 	mov	r7,r8
 2000bb0:	2005c440 	call	2005c44 <printf>

void align_wheels(LegoCar *car, int type, float direction) {

	int w;

	for(w=0; w<4; w++) {
 2000bb4:	e0bffc17 	ldw	r2,-16(fp)
 2000bb8:	10800044 	addi	r2,r2,1
 2000bbc:	e0bffc15 	stw	r2,-16(fp)
 2000bc0:	e0bffc17 	ldw	r2,-16(fp)
 2000bc4:	10800110 	cmplti	r2,r2,4
 2000bc8:	103fa51e 	bne	r2,zero,2000a60 <align_wheels+0x28>
		}

		printf("wheel %d: direction %f\n", w+1, get_direction(&car->direction[w]));
	}

	return;
 2000bcc:	0001883a 	nop
}
 2000bd0:	e037883a 	mov	sp,fp
 2000bd4:	dfc00217 	ldw	ra,8(sp)
 2000bd8:	df000117 	ldw	fp,4(sp)
 2000bdc:	dc000017 	ldw	r16,0(sp)
 2000be0:	dec00304 	addi	sp,sp,12
 2000be4:	f800283a 	ret

02000be8 <set_driving_speed>:

void set_driving_speed(LegoCar *car, int type, float speed) {
 2000be8:	defffa04 	addi	sp,sp,-24
 2000bec:	dfc00515 	stw	ra,20(sp)
 2000bf0:	df000415 	stw	fp,16(sp)
 2000bf4:	df000404 	addi	fp,sp,16
 2000bf8:	e13ffd15 	stw	r4,-12(fp)
 2000bfc:	e17ffe15 	stw	r5,-8(fp)
 2000c00:	e1bfff15 	stw	r6,-4(fp)

	int w;
	// set speed
	for(w=0; w<4; w++)
 2000c04:	e03ffc15 	stw	zero,-16(fp)
 2000c08:	00002006 	br	2000c8c <set_driving_speed+0xa4>
		switch(type) {
 2000c0c:	e0bffe17 	ldw	r2,-8(fp)
 2000c10:	10c00060 	cmpeqi	r3,r2,1
 2000c14:	18000b1e 	bne	r3,zero,2000c44 <set_driving_speed+0x5c>
 2000c18:	10c000a0 	cmpeqi	r3,r2,2
 2000c1c:	1800011e 	bne	r3,zero,2000c24 <set_driving_speed+0x3c>
 2000c20:	1000171e 	bne	r2,zero,2000c80 <set_driving_speed+0x98>
		case PARALLEL:
		case CURVE:
			set_speed(&(car->speed[w]), speed);
 2000c24:	e0bffc17 	ldw	r2,-16(fp)
 2000c28:	1004917a 	slli	r2,r2,5
 2000c2c:	e0fffd17 	ldw	r3,-12(fp)
 2000c30:	1885883a 	add	r2,r3,r2
 2000c34:	1009883a 	mov	r4,r2
 2000c38:	e17fff17 	ldw	r5,-4(fp)
 2000c3c:	200139c0 	call	200139c <set_speed>
			break;
 2000c40:	00000f06 	br	2000c80 <set_driving_speed+0x98>
		case CIRCLE:
			set_speed(&(car->speed[w]), (w % 2 == 0) ? -speed : speed);
 2000c44:	e0bffc17 	ldw	r2,-16(fp)
 2000c48:	1004917a 	slli	r2,r2,5
 2000c4c:	e0fffd17 	ldw	r3,-12(fp)
 2000c50:	1887883a 	add	r3,r3,r2
 2000c54:	e0bffc17 	ldw	r2,-16(fp)
 2000c58:	1080004c 	andi	r2,r2,1
 2000c5c:	1000031e 	bne	r2,zero,2000c6c <set_driving_speed+0x84>
 2000c60:	e0bfff17 	ldw	r2,-4(fp)
 2000c64:	10a0003c 	xorhi	r2,r2,32768
 2000c68:	00000106 	br	2000c70 <set_driving_speed+0x88>
 2000c6c:	e0bfff17 	ldw	r2,-4(fp)
 2000c70:	1809883a 	mov	r4,r3
 2000c74:	100b883a 	mov	r5,r2
 2000c78:	200139c0 	call	200139c <set_speed>
			break;
 2000c7c:	0001883a 	nop

void set_driving_speed(LegoCar *car, int type, float speed) {

	int w;
	// set speed
	for(w=0; w<4; w++)
 2000c80:	e0bffc17 	ldw	r2,-16(fp)
 2000c84:	10800044 	addi	r2,r2,1
 2000c88:	e0bffc15 	stw	r2,-16(fp)
 2000c8c:	e0bffc17 	ldw	r2,-16(fp)
 2000c90:	10800110 	cmplti	r2,r2,4
 2000c94:	103fdd1e 	bne	r2,zero,2000c0c <set_driving_speed+0x24>
			set_speed(&(car->speed[w]), (w % 2 == 0) ? -speed : speed);
			break;
		}


}
 2000c98:	e037883a 	mov	sp,fp
 2000c9c:	dfc00117 	ldw	ra,4(sp)
 2000ca0:	df000017 	ldw	fp,0(sp)
 2000ca4:	dec00204 	addi	sp,sp,8
 2000ca8:	f800283a 	ret

02000cac <stop>:

void stop(LegoCar *car) {
 2000cac:	defffd04 	addi	sp,sp,-12
 2000cb0:	dfc00215 	stw	ra,8(sp)
 2000cb4:	df000115 	stw	fp,4(sp)
 2000cb8:	df000104 	addi	fp,sp,4
 2000cbc:	e13fff15 	stw	r4,-4(fp)
	set_driving_speed(car, PARALLEL, 0);
 2000cc0:	e13fff17 	ldw	r4,-4(fp)
 2000cc4:	000b883a 	mov	r5,zero
 2000cc8:	000d883a 	mov	r6,zero
 2000ccc:	2000be80 	call	2000be8 <set_driving_speed>
}
 2000cd0:	e037883a 	mov	sp,fp
 2000cd4:	dfc00117 	ldw	ra,4(sp)
 2000cd8:	df000017 	ldw	fp,0(sp)
 2000cdc:	dec00204 	addi	sp,sp,8
 2000ce0:	f800283a 	ret

02000ce4 <enable_wheel_stabilizer>:

void enable_wheel_stabilizer(LegoCar *car) {
 2000ce4:	defffe04 	addi	sp,sp,-8
 2000ce8:	df000115 	stw	fp,4(sp)
 2000cec:	df000104 	addi	fp,sp,4
 2000cf0:	e13fff15 	stw	r4,-4(fp)
	car->hold_direction_mode = 1;
 2000cf4:	e0bfff17 	ldw	r2,-4(fp)
 2000cf8:	00c00044 	movi	r3,1
 2000cfc:	10c04015 	stw	r3,256(r2)
}
 2000d00:	e037883a 	mov	sp,fp
 2000d04:	df000017 	ldw	fp,0(sp)
 2000d08:	dec00104 	addi	sp,sp,4
 2000d0c:	f800283a 	ret

02000d10 <disable_wheel_stabilizer>:

void disable_wheel_stabilizer(LegoCar *car) {
 2000d10:	defffe04 	addi	sp,sp,-8
 2000d14:	df000115 	stw	fp,4(sp)
 2000d18:	df000104 	addi	fp,sp,4
 2000d1c:	e13fff15 	stw	r4,-4(fp)
	car->hold_direction_mode = 0;
 2000d20:	e0bfff17 	ldw	r2,-4(fp)
 2000d24:	10004015 	stw	zero,256(r2)
}
 2000d28:	e037883a 	mov	sp,fp
 2000d2c:	df000017 	ldw	fp,0(sp)
 2000d30:	dec00104 	addi	sp,sp,4
 2000d34:	f800283a 	ret

02000d38 <control_loop>:

void control_loop(LegoCar *car) {
 2000d38:	defffc04 	addi	sp,sp,-16
 2000d3c:	dfc00315 	stw	ra,12(sp)
 2000d40:	df000215 	stw	fp,8(sp)
 2000d44:	df000204 	addi	fp,sp,8
 2000d48:	e13fff15 	stw	r4,-4(fp)

	while(1) {

		// if car.hold_direction_mode is set then realign the wheels
		if( car->hold_direction_mode ) {
 2000d4c:	e0bfff17 	ldw	r2,-4(fp)
 2000d50:	10804017 	ldw	r2,256(r2)
 2000d54:	10001026 	beq	r2,zero,2000d98 <control_loop+0x60>

			int w = 0;
 2000d58:	e03ffe15 	stw	zero,-8(fp)
			for(w=0; w<4; w++)
 2000d5c:	e03ffe15 	stw	zero,-8(fp)
 2000d60:	00000a06 	br	2000d8c <control_loop+0x54>
				realign_wheel(&car->direction[w]);
 2000d64:	e0bffe17 	ldw	r2,-8(fp)
 2000d68:	10800104 	addi	r2,r2,4
 2000d6c:	1004917a 	slli	r2,r2,5
 2000d70:	e0ffff17 	ldw	r3,-4(fp)
 2000d74:	1885883a 	add	r2,r3,r2
 2000d78:	1009883a 	mov	r4,r2
 2000d7c:	20035480 	call	2003548 <realign_wheel>

		// if car.hold_direction_mode is set then realign the wheels
		if( car->hold_direction_mode ) {

			int w = 0;
			for(w=0; w<4; w++)
 2000d80:	e0bffe17 	ldw	r2,-8(fp)
 2000d84:	10800044 	addi	r2,r2,1
 2000d88:	e0bffe15 	stw	r2,-8(fp)
 2000d8c:	e0bffe17 	ldw	r2,-8(fp)
 2000d90:	10800110 	cmplti	r2,r2,4
 2000d94:	103ff31e 	bne	r2,zero,2000d64 <control_loop+0x2c>
				realign_wheel(&car->direction[w]);
		}

		OSTimeDlyHMSM(0, 0, 0, 10);
 2000d98:	0009883a 	mov	r4,zero
 2000d9c:	000b883a 	mov	r5,zero
 2000da0:	000d883a 	mov	r6,zero
 2000da4:	01c00284 	movi	r7,10
 2000da8:	2017a2c0 	call	2017a2c <OSTimeDlyHMSM>
	}
 2000dac:	003fe706 	br	2000d4c <control_loop+0x14>

02000db0 <acc_sensor_task>:
// Inertial Navigation System -- built around acceleration sensor
INS ins;


// task for parsing the output of the acceleration sensor
void acc_sensor_task(void *pdata) {
 2000db0:	defff604 	addi	sp,sp,-40
 2000db4:	dfc00915 	stw	ra,36(sp)
 2000db8:	df000815 	stw	fp,32(sp)
 2000dbc:	df000804 	addi	fp,sp,32
 2000dc0:	e13fff15 	stw	r4,-4(fp)

	// auto calibration:
	printf("acc-sensor: calibrating acceleration sensor...\n");
 2000dc4:	010080b4 	movhi	r4,514
 2000dc8:	21307b04 	addi	r4,r4,-15892
 2000dcc:	2005d040 	call	2005d04 <puts>

	if(!auto_calibrate_ins(&ins, 1000)) {
 2000dd0:	010080b4 	movhi	r4,514
 2000dd4:	21013804 	addi	r4,r4,1248
 2000dd8:	0140fa04 	movi	r5,1000
 2000ddc:	200033c0 	call	200033c <auto_calibrate_ins>
 2000de0:	1000051e 	bne	r2,zero,2000df8 <acc_sensor_task+0x48>
		printf("acc-sensor: automatic calibration failed!\nShutting down sensor task...\n");
 2000de4:	010080b4 	movhi	r4,514
 2000de8:	21308704 	addi	r4,r4,-15844
 2000dec:	2005d040 	call	2005d04 <puts>
		return;
 2000df0:	0001883a 	nop
 2000df4:	00005b06 	br	2000f64 <acc_sensor_task+0x1b4>
	}

	// manual calibration:
	// calibrate_ins(ins, 0.0, 0.46, -0.4);

	printf( "acc-sensor: calibration successful: %7.4f, %7.4f, %7.4f\n", ins.sensor_calibration[0],
 2000df8:	010080b4 	movhi	r4,514
 2000dfc:	21013804 	addi	r4,r4,1248
 2000e00:	20800117 	ldw	r2,4(r4)
 2000e04:	20c00217 	ldw	r3,8(r4)
 2000e08:	018080b4 	movhi	r6,514
 2000e0c:	31813804 	addi	r6,r6,1248
 2000e10:	31000317 	ldw	r4,12(r6)
 2000e14:	31400417 	ldw	r5,16(r6)
 2000e18:	020080b4 	movhi	r8,514
 2000e1c:	42013804 	addi	r8,r8,1248
 2000e20:	41800517 	ldw	r6,20(r8)
 2000e24:	41c00617 	ldw	r7,24(r8)
 2000e28:	d9800115 	stw	r6,4(sp)
 2000e2c:	d9c00215 	stw	r7,8(sp)
 2000e30:	d9400015 	stw	r5,0(sp)
 2000e34:	200f883a 	mov	r7,r4
 2000e38:	010080b4 	movhi	r4,514
 2000e3c:	21309904 	addi	r4,r4,-15772
 2000e40:	100b883a 	mov	r5,r2
 2000e44:	180d883a 	mov	r6,r3
 2000e48:	2005c440 	call	2005c44 <printf>
																		 ins.sensor_calibration[1],
																		 ins.sensor_calibration[2] );

	// time to wait between two values from the sensor (in seconds)
	double timestep = 0.001;
 2000e4c:	00b4bcb4 	movhi	r2,54002
 2000e50:	10aa7f04 	addi	r2,r2,-22020
 2000e54:	e0bffd15 	stw	r2,-12(fp)
 2000e58:	008fd434 	movhi	r2,16208
 2000e5c:	10989344 	addi	r2,r2,25165
 2000e60:	e0bffe15 	stw	r2,-8(fp)

	int i = 0;
 2000e64:	e03ffc15 	stw	zero,-16(fp)
	while(1) {

		// update the INS with new values from the sensor
		if(!update_ins(&ins, timestep)) {
 2000e68:	010080b4 	movhi	r4,514
 2000e6c:	21013804 	addi	r4,r4,1248
 2000e70:	e17ffd17 	ldw	r5,-12(fp)
 2000e74:	e1bffe17 	ldw	r6,-8(fp)
 2000e78:	20006840 	call	2000684 <update_ins>
 2000e7c:	1000051e 	bne	r2,zero,2000e94 <acc_sensor_task+0xe4>
			printf("acc-sensor: reading failed! Skipping...\n");
 2000e80:	010080b4 	movhi	r4,514
 2000e84:	2130a804 	addi	r4,r4,-15712
 2000e88:	2005d040 	call	2005d04 <puts>
			continue;
 2000e8c:	0001883a 	nop
		if(i++ % 100 == 0) printf("acc-sensor: acceleration (%d): X: %6.2f,\tY: %6.2f,\tZ: %6.2f\n", i, ins.acceleration[0], ins.acceleration[1], ins.acceleration[2]);
		// printf("acc-sensor: speed (%d): X: %6.2f,\tY: %6.2f,\tZ: %6.2f\n", i, ins.speed[0], ins.speed[1], ins.speed[2]);

		// wait for one millisecond
		OSTimeDlyHMSM(0, 0, 0, timestep * 1000);
	}
 2000e90:	003ff506 	br	2000e68 <acc_sensor_task+0xb8>
		if(!update_ins(&ins, timestep)) {
			printf("acc-sensor: reading failed! Skipping...\n");
			continue;
		}

		if(i++ % 100 == 0) printf("acc-sensor: acceleration (%d): X: %6.2f,\tY: %6.2f,\tZ: %6.2f\n", i, ins.acceleration[0], ins.acceleration[1], ins.acceleration[2]);
 2000e94:	e0bffc17 	ldw	r2,-16(fp)
 2000e98:	1009883a 	mov	r4,r2
 2000e9c:	01401904 	movi	r5,100
 2000ea0:	20049ec0 	call	20049ec <__modsi3>
 2000ea4:	1005003a 	cmpeq	r2,r2,zero
 2000ea8:	e0fffc17 	ldw	r3,-16(fp)
 2000eac:	18c00044 	addi	r3,r3,1
 2000eb0:	e0fffc15 	stw	r3,-16(fp)
 2000eb4:	10803fcc 	andi	r2,r2,255
 2000eb8:	10001626 	beq	r2,zero,2000f14 <acc_sensor_task+0x164>
 2000ebc:	010080b4 	movhi	r4,514
 2000ec0:	21013804 	addi	r4,r4,1248
 2000ec4:	20800717 	ldw	r2,28(r4)
 2000ec8:	20c00817 	ldw	r3,32(r4)
 2000ecc:	010080b4 	movhi	r4,514
 2000ed0:	21013804 	addi	r4,r4,1248
 2000ed4:	21800917 	ldw	r6,36(r4)
 2000ed8:	21c00a17 	ldw	r7,40(r4)
 2000edc:	020080b4 	movhi	r8,514
 2000ee0:	42013804 	addi	r8,r8,1248
 2000ee4:	41000b17 	ldw	r4,44(r8)
 2000ee8:	41400c17 	ldw	r5,48(r8)
 2000eec:	d9800015 	stw	r6,0(sp)
 2000ef0:	d9c00115 	stw	r7,4(sp)
 2000ef4:	d9000215 	stw	r4,8(sp)
 2000ef8:	d9400315 	stw	r5,12(sp)
 2000efc:	010080b4 	movhi	r4,514
 2000f00:	2130b204 	addi	r4,r4,-15672
 2000f04:	e17ffc17 	ldw	r5,-16(fp)
 2000f08:	100d883a 	mov	r6,r2
 2000f0c:	180f883a 	mov	r7,r3
 2000f10:	2005c440 	call	2005c44 <printf>
		// printf("acc-sensor: speed (%d): X: %6.2f,\tY: %6.2f,\tZ: %6.2f\n", i, ins.speed[0], ins.speed[1], ins.speed[2]);

		// wait for one millisecond
		OSTimeDlyHMSM(0, 0, 0, timestep * 1000);
 2000f14:	e13ffd17 	ldw	r4,-12(fp)
 2000f18:	e17ffe17 	ldw	r5,-8(fp)
 2000f1c:	000d883a 	mov	r6,zero
 2000f20:	01d023f4 	movhi	r7,16527
 2000f24:	39d00004 	addi	r7,r7,16384
 2000f28:	20041900 	call	2004190 <__muldf3>
 2000f2c:	1009883a 	mov	r4,r2
 2000f30:	180b883a 	mov	r5,r3
 2000f34:	2005883a 	mov	r2,r4
 2000f38:	2807883a 	mov	r3,r5
 2000f3c:	1009883a 	mov	r4,r2
 2000f40:	180b883a 	mov	r5,r3
 2000f44:	20036140 	call	2003614 <__fixunsdfsi>
 2000f48:	10bfffcc 	andi	r2,r2,65535
 2000f4c:	0009883a 	mov	r4,zero
 2000f50:	000b883a 	mov	r5,zero
 2000f54:	000d883a 	mov	r6,zero
 2000f58:	100f883a 	mov	r7,r2
 2000f5c:	2017a2c0 	call	2017a2c <OSTimeDlyHMSM>
	}
 2000f60:	003fc106 	br	2000e68 <acc_sensor_task+0xb8>

}
 2000f64:	e037883a 	mov	sp,fp
 2000f68:	dfc00117 	ldw	ra,4(sp)
 2000f6c:	df000017 	ldw	fp,0(sp)
 2000f70:	dec00204 	addi	sp,sp,8
 2000f74:	f800283a 	ret

02000f78 <stabilizer_task>:


// task for stabilizing the direction of the wheels
void stabilizer_task(void *data) {
 2000f78:	defffd04 	addi	sp,sp,-12
 2000f7c:	dfc00215 	stw	ra,8(sp)
 2000f80:	df000115 	stw	fp,4(sp)
 2000f84:	df000104 	addi	fp,sp,4
 2000f88:	e13fff15 	stw	r4,-4(fp)
	control_loop(&car);
 2000f8c:	010080b4 	movhi	r4,514
 2000f90:	2100f504 	addi	r4,r4,980
 2000f94:	2000d380 	call	2000d38 <control_loop>

	return;
 2000f98:	0001883a 	nop
}
 2000f9c:	e037883a 	mov	sp,fp
 2000fa0:	dfc00117 	ldw	ra,4(sp)
 2000fa4:	df000017 	ldw	fp,0(sp)
 2000fa8:	dec00204 	addi	sp,sp,8
 2000fac:	f800283a 	ret

02000fb0 <control_task>:


// task for steering the car
void control_task(void *data) {
 2000fb0:	defffd04 	addi	sp,sp,-12
 2000fb4:	dfc00215 	stw	ra,8(sp)
 2000fb8:	df000115 	stw	fp,4(sp)
 2000fbc:	df000104 	addi	fp,sp,4
 2000fc0:	e13fff15 	stw	r4,-4(fp)

	align_wheels(&car, PARALLEL, 1);
 2000fc4:	010080b4 	movhi	r4,514
 2000fc8:	2100f504 	addi	r4,r4,980
 2000fcc:	000b883a 	mov	r5,zero
 2000fd0:	018fe034 	movhi	r6,16256
 2000fd4:	2000a380 	call	2000a38 <align_wheels>
	set_driving_speed(&car, PARALLEL, 0.5);
 2000fd8:	010080b4 	movhi	r4,514
 2000fdc:	2100f504 	addi	r4,r4,980
 2000fe0:	000b883a 	mov	r5,zero
 2000fe4:	018fc034 	movhi	r6,16128
 2000fe8:	2000be80 	call	2000be8 <set_driving_speed>

	enable_wheel_stabilizer(&car);
 2000fec:	010080b4 	movhi	r4,514
 2000ff0:	2100f504 	addi	r4,r4,980
 2000ff4:	2000ce40 	call	2000ce4 <enable_wheel_stabilizer>

	while(1) {

		printf("straight\n");
 2000ff8:	010080b4 	movhi	r4,514
 2000ffc:	2130c204 	addi	r4,r4,-15608
 2001000:	2005d040 	call	2005d04 <puts>
		align_wheels(&car, PARALLEL, 0);
 2001004:	010080b4 	movhi	r4,514
 2001008:	2100f504 	addi	r4,r4,980
 200100c:	000b883a 	mov	r5,zero
 2001010:	000d883a 	mov	r6,zero
 2001014:	2000a380 	call	2000a38 <align_wheels>

		set_driving_speed(&car, PARALLEL, 0.5);
 2001018:	010080b4 	movhi	r4,514
 200101c:	2100f504 	addi	r4,r4,980
 2001020:	000b883a 	mov	r5,zero
 2001024:	018fc034 	movhi	r6,16128
 2001028:	2000be80 	call	2000be8 <set_driving_speed>

		OSTimeDlyHMSM(0,0,5,0);
 200102c:	0009883a 	mov	r4,zero
 2001030:	000b883a 	mov	r5,zero
 2001034:	01800144 	movi	r6,5
 2001038:	000f883a 	mov	r7,zero
 200103c:	2017a2c0 	call	2017a2c <OSTimeDlyHMSM>

		printf("parallel\n");
 2001040:	010080b4 	movhi	r4,514
 2001044:	2130c504 	addi	r4,r4,-15596
 2001048:	2005d040 	call	2005d04 <puts>
		align_wheels(&car, PARALLEL, 0.8);
 200104c:	010080b4 	movhi	r4,514
 2001050:	2100f504 	addi	r4,r4,980
 2001054:	000b883a 	mov	r5,zero
 2001058:	018fd374 	movhi	r6,16205
 200105c:	31b33344 	addi	r6,r6,-13107
 2001060:	2000a380 	call	2000a38 <align_wheels>

		OSTimeDlyHMSM(0,0,5,0);
 2001064:	0009883a 	mov	r4,zero
 2001068:	000b883a 	mov	r5,zero
 200106c:	01800144 	movi	r6,5
 2001070:	000f883a 	mov	r7,zero
 2001074:	2017a2c0 	call	2017a2c <OSTimeDlyHMSM>

		printf("circle\n");
 2001078:	010080b4 	movhi	r4,514
 200107c:	2130c804 	addi	r4,r4,-15584
 2001080:	2005d040 	call	2005d04 <puts>
		align_wheels(&car, CIRCLE, 1);
 2001084:	010080b4 	movhi	r4,514
 2001088:	2100f504 	addi	r4,r4,980
 200108c:	01400044 	movi	r5,1
 2001090:	018fe034 	movhi	r6,16256
 2001094:	2000a380 	call	2000a38 <align_wheels>
		// two wheels have to rotate inverted
		set_driving_speed(&car, CIRCLE, 0.5);
 2001098:	010080b4 	movhi	r4,514
 200109c:	2100f504 	addi	r4,r4,980
 20010a0:	01400044 	movi	r5,1
 20010a4:	018fc034 	movhi	r6,16128
 20010a8:	2000be80 	call	2000be8 <set_driving_speed>

		OSTimeDlyHMSM(0,0,5,0);
 20010ac:	0009883a 	mov	r4,zero
 20010b0:	000b883a 	mov	r5,zero
 20010b4:	01800144 	movi	r6,5
 20010b8:	000f883a 	mov	r7,zero
 20010bc:	2017a2c0 	call	2017a2c <OSTimeDlyHMSM>

		printf("curve\n");
 20010c0:	010080b4 	movhi	r4,514
 20010c4:	2130ca04 	addi	r4,r4,-15576
 20010c8:	2005d040 	call	2005d04 <puts>
		align_wheels(&car, CURVE, 0.8);
 20010cc:	010080b4 	movhi	r4,514
 20010d0:	2100f504 	addi	r4,r4,980
 20010d4:	01400084 	movi	r5,2
 20010d8:	018fd374 	movhi	r6,16205
 20010dc:	31b33344 	addi	r6,r6,-13107
 20010e0:	2000a380 	call	2000a38 <align_wheels>
		set_driving_speed(&car, CURVE, 0.5);
 20010e4:	010080b4 	movhi	r4,514
 20010e8:	2100f504 	addi	r4,r4,980
 20010ec:	01400084 	movi	r5,2
 20010f0:	018fc034 	movhi	r6,16128
 20010f4:	2000be80 	call	2000be8 <set_driving_speed>

		OSTimeDlyHMSM(0,0,5,0);
 20010f8:	0009883a 	mov	r4,zero
 20010fc:	000b883a 	mov	r5,zero
 2001100:	01800144 	movi	r6,5
 2001104:	000f883a 	mov	r7,zero
 2001108:	2017a2c0 	call	2017a2c <OSTimeDlyHMSM>
		for(speed=-1; speed<0; speed += acceleration) {
			set_driving_speed(&car, speed);
			usleep(1000);
		}
		*/
	}
 200110c:	003fba06 	br	2000ff8 <control_task+0x48>

02001110 <main>:

}

int main (void)
{
 2001110:	defff004 	addi	sp,sp,-64
 2001114:	dfc00f15 	stw	ra,60(sp)
 2001118:	df000e15 	stw	fp,56(sp)
 200111c:	df000e04 	addi	fp,sp,56

	int pwm_period = 100000;
 2001120:	008000b4 	movhi	r2,2
 2001124:	10a1a804 	addi	r2,r2,-31072
 2001128:	e0bff715 	stw	r2,-36(fp)
	alt_u32 motor_base_addresses[] = { 0x80000000 | A_2_CHANNEL_PWM_0_BASE, 0x80000000 | A_2_CHANNEL_PWM_1_BASE,
 200112c:	00a18034 	movhi	r2,34304
 2001130:	10844004 	addi	r2,r2,4352
 2001134:	e0bff815 	stw	r2,-32(fp)
 2001138:	00a18034 	movhi	r2,34304
 200113c:	10843004 	addi	r2,r2,4288
 2001140:	e0bff915 	stw	r2,-28(fp)
 2001144:	00a18034 	movhi	r2,34304
 2001148:	10842804 	addi	r2,r2,4256
 200114c:	e0bffa15 	stw	r2,-24(fp)
 2001150:	00a18034 	movhi	r2,34304
 2001154:	10842004 	addi	r2,r2,4224
 2001158:	e0bffb15 	stw	r2,-20(fp)
 200115c:	00a18034 	movhi	r2,34304
 2001160:	10841804 	addi	r2,r2,4192
 2001164:	e0bffc15 	stw	r2,-16(fp)
 2001168:	00a18034 	movhi	r2,34304
 200116c:	10841004 	addi	r2,r2,4160
 2001170:	e0bffd15 	stw	r2,-12(fp)
 2001174:	00a18034 	movhi	r2,34304
 2001178:	10840804 	addi	r2,r2,4128
 200117c:	e0bffe15 	stw	r2,-8(fp)
 2001180:	00a18034 	movhi	r2,34304
 2001184:	10840004 	addi	r2,r2,4096
 2001188:	e0bfff15 	stw	r2,-4(fp)
									   0x80000000 | A_2_CHANNEL_PWM_2_BASE, 0x80000000 | A_2_CHANNEL_PWM_3_BASE,
	                                   0x80000000 | A_2_CHANNEL_PWM_4_BASE, 0x80000000 | A_2_CHANNEL_PWM_5_BASE,
	                                   0x80000000 | A_2_CHANNEL_PWM_6_BASE, 0x80000000 | A_2_CHANNEL_PWM_7_BASE };

	// initialize data structures for the engines so that we can control them
	init_legocar(&car, motor_base_addresses, pwm_period);
 200118c:	e0bff804 	addi	r2,fp,-32
 2001190:	010080b4 	movhi	r4,514
 2001194:	2100f504 	addi	r4,r4,980
 2001198:	100b883a 	mov	r5,r2
 200119c:	e1bff717 	ldw	r6,-36(fp)
 20011a0:	20009600 	call	2000960 <init_legocar>

	// initialize Inertial Navigation System
	// --> the structure is used to exchange data between threads, so it has to be volatile
	init_ins(&ins, GSENSOR_SPI_BASE);
 20011a4:	010080b4 	movhi	r4,514
 20011a8:	21013804 	addi	r4,r4,1248
 20011ac:	01410034 	movhi	r5,1024
 20011b0:	29420004 	addi	r5,r5,2048
 20011b4:	20001f80 	call	20001f8 <init_ins>


	printf("Starting system!\n");
 20011b8:	010080b4 	movhi	r4,514
 20011bc:	2130cc04 	addi	r4,r4,-15568
 20011c0:	2005d040 	call	2005d04 <puts>

	OSInit();
 20011c4:	20109d80 	call	20109d8 <OSInit>

	// create the task for the wheel stabilization procedure
	OSTaskCreateExt(stabilizer_task,
 20011c8:	00800044 	movi	r2,1
 20011cc:	d8800015 	stw	r2,0(sp)
 20011d0:	008080b4 	movhi	r2,514
 20011d4:	10855104 	addi	r2,r2,5444
 20011d8:	d8800115 	stw	r2,4(sp)
 20011dc:	00810004 	movi	r2,1024
 20011e0:	d8800215 	stw	r2,8(sp)
 20011e4:	d8000315 	stw	zero,12(sp)
 20011e8:	d8000415 	stw	zero,16(sp)
 20011ec:	01008034 	movhi	r4,512
 20011f0:	2103de04 	addi	r4,r4,3960
 20011f4:	000b883a 	mov	r5,zero
 20011f8:	018080b4 	movhi	r6,514
 20011fc:	31895004 	addi	r6,r6,9536
 2001200:	01c00044 	movi	r7,1
 2001204:	20166dc0 	call	20166dc <OSTaskCreateExt>
		            TASK_STACKSIZE,
		            NULL,
		            0);

	// create the task for steering the car
	OSTaskCreateExt(control_task,
 2001208:	00800084 	movi	r2,2
 200120c:	d8800015 	stw	r2,0(sp)
 2001210:	008080b4 	movhi	r2,514
 2001214:	10895104 	addi	r2,r2,9540
 2001218:	d8800115 	stw	r2,4(sp)
 200121c:	00810004 	movi	r2,1024
 2001220:	d8800215 	stw	r2,8(sp)
 2001224:	d8000315 	stw	zero,12(sp)
 2001228:	d8000415 	stw	zero,16(sp)
 200122c:	01008034 	movhi	r4,512
 2001230:	2103ec04 	addi	r4,r4,4016
 2001234:	000b883a 	mov	r5,zero
 2001238:	018080b4 	movhi	r6,514
 200123c:	318d5004 	addi	r6,r6,13632
 2001240:	01c00084 	movi	r7,2
 2001244:	20166dc0 	call	20166dc <OSTaskCreateExt>
		            TASK_STACKSIZE,
		            NULL,
		            0);*/

	// start the operating system that includes the threads
	OSStart();
 2001248:	2010cfc0 	call	2010cfc <OSStart>
		}
	}
	*/


	return 0;
 200124c:	0005883a 	mov	r2,zero
}
 2001250:	e037883a 	mov	sp,fp
 2001254:	dfc00117 	ldw	ra,4(sp)
 2001258:	df000017 	ldw	fp,0(sp)
 200125c:	dec00204 	addi	sp,sp,8
 2001260:	f800283a 	ret

02001264 <init_pwm_motor>:
#define BACKWARDS 0x1
#define FORWARDS  0x2
#define PHASE     0x0


void init_pwm_motor(PWM_Motor *pwm_motor, alt_u32 pwm_base_address, unsigned int period) {
 2001264:	defffc04 	addi	sp,sp,-16
 2001268:	df000315 	stw	fp,12(sp)
 200126c:	df000304 	addi	fp,sp,12
 2001270:	e13ffd15 	stw	r4,-12(fp)
 2001274:	e17ffe15 	stw	r5,-8(fp)
 2001278:	e1bfff15 	stw	r6,-4(fp)

	pwm_motor->enable = (volatile unsigned int *) pwm_base_address;
 200127c:	e0fffe17 	ldw	r3,-8(fp)
 2001280:	e0bffd17 	ldw	r2,-12(fp)
 2001284:	10c00015 	stw	r3,0(r2)
	pwm_motor->period = (volatile unsigned int *) pwm_base_address + 1;
 2001288:	e0bffe17 	ldw	r2,-8(fp)
 200128c:	10800104 	addi	r2,r2,4
 2001290:	1007883a 	mov	r3,r2
 2001294:	e0bffd17 	ldw	r2,-12(fp)
 2001298:	10c00115 	stw	r3,4(r2)
	pwm_motor->duty1  = (volatile unsigned int *) pwm_base_address + 2;
 200129c:	e0bffe17 	ldw	r2,-8(fp)
 20012a0:	10800204 	addi	r2,r2,8
 20012a4:	1007883a 	mov	r3,r2
 20012a8:	e0bffd17 	ldw	r2,-12(fp)
 20012ac:	10c00415 	stw	r3,16(r2)
	pwm_motor->duty2  = (volatile unsigned int *) pwm_base_address + 3;
 20012b0:	e0bffe17 	ldw	r2,-8(fp)
 20012b4:	10800304 	addi	r2,r2,12
 20012b8:	1007883a 	mov	r3,r2
 20012bc:	e0bffd17 	ldw	r2,-12(fp)
 20012c0:	10c00515 	stw	r3,20(r2)
	pwm_motor->phase1 = (volatile unsigned int *) pwm_base_address + 4;
 20012c4:	e0bffe17 	ldw	r2,-8(fp)
 20012c8:	10800404 	addi	r2,r2,16
 20012cc:	1007883a 	mov	r3,r2
 20012d0:	e0bffd17 	ldw	r2,-12(fp)
 20012d4:	10c00215 	stw	r3,8(r2)
	pwm_motor->phase2 = (volatile unsigned int *) pwm_base_address + 5;
 20012d8:	e0bffe17 	ldw	r2,-8(fp)
 20012dc:	10800504 	addi	r2,r2,20
 20012e0:	1007883a 	mov	r3,r2
 20012e4:	e0bffd17 	ldw	r2,-12(fp)
 20012e8:	10c00315 	stw	r3,12(r2)

	pwm_motor->period_value = period;
 20012ec:	e0bffd17 	ldw	r2,-12(fp)
 20012f0:	e0ffff17 	ldw	r3,-4(fp)
 20012f4:	10c00615 	stw	r3,24(r2)
	pwm_motor->current_speed = 0;
 20012f8:	e0bffd17 	ldw	r2,-12(fp)
 20012fc:	10000715 	stw	zero,28(r2)
}
 2001300:	e037883a 	mov	sp,fp
 2001304:	df000017 	ldw	fp,0(sp)
 2001308:	dec00104 	addi	sp,sp,4
 200130c:	f800283a 	ret

02001310 <pwm_setting>:

void pwm_setting(const PWM_Motor *pwm_motor, unsigned long phase1, unsigned long duty1,
											 unsigned long phase2, unsigned long duty2,
											 unsigned long period, unsigned long enable) {
 2001310:	defffb04 	addi	sp,sp,-20
 2001314:	df000415 	stw	fp,16(sp)
 2001318:	df000404 	addi	fp,sp,16
 200131c:	e13ffc15 	stw	r4,-16(fp)
 2001320:	e17ffd15 	stw	r5,-12(fp)
 2001324:	e1bffe15 	stw	r6,-8(fp)
 2001328:	e1ffff15 	stw	r7,-4(fp)

	*pwm_motor->enable = enable;
 200132c:	e0bffc17 	ldw	r2,-16(fp)
 2001330:	10800017 	ldw	r2,0(r2)
 2001334:	e0c00317 	ldw	r3,12(fp)
 2001338:	10c00015 	stw	r3,0(r2)
	*pwm_motor->period = period;
 200133c:	e0bffc17 	ldw	r2,-16(fp)
 2001340:	10800117 	ldw	r2,4(r2)
 2001344:	e0c00217 	ldw	r3,8(fp)
 2001348:	10c00015 	stw	r3,0(r2)
	*pwm_motor->phase1 = phase1;
 200134c:	e0bffc17 	ldw	r2,-16(fp)
 2001350:	10800217 	ldw	r2,8(r2)
 2001354:	e0fffd17 	ldw	r3,-12(fp)
 2001358:	10c00015 	stw	r3,0(r2)
	*pwm_motor->phase2 = phase2;
 200135c:	e0bffc17 	ldw	r2,-16(fp)
 2001360:	10800317 	ldw	r2,12(r2)
 2001364:	e0ffff17 	ldw	r3,-4(fp)
 2001368:	10c00015 	stw	r3,0(r2)
	*pwm_motor->duty1  = duty1;
 200136c:	e0bffc17 	ldw	r2,-16(fp)
 2001370:	10800417 	ldw	r2,16(r2)
 2001374:	e0fffe17 	ldw	r3,-8(fp)
 2001378:	10c00015 	stw	r3,0(r2)
	*pwm_motor->duty2  = duty2;
 200137c:	e0bffc17 	ldw	r2,-16(fp)
 2001380:	10800517 	ldw	r2,20(r2)
 2001384:	e0c00117 	ldw	r3,4(fp)
 2001388:	10c00015 	stw	r3,0(r2)
}
 200138c:	e037883a 	mov	sp,fp
 2001390:	df000017 	ldw	fp,0(sp)
 2001394:	dec00104 	addi	sp,sp,4
 2001398:	f800283a 	ret

0200139c <set_speed>:

void set_speed(PWM_Motor *pwm_motor, float speed) {
 200139c:	defff604 	addi	sp,sp,-40
 20013a0:	dfc00915 	stw	ra,36(sp)
 20013a4:	df000815 	stw	fp,32(sp)
 20013a8:	dc400715 	stw	r17,28(sp)
 20013ac:	dc000615 	stw	r16,24(sp)
 20013b0:	df000604 	addi	fp,sp,24
 20013b4:	e13ffe15 	stw	r4,-8(fp)
 20013b8:	e17fff15 	stw	r5,-4(fp)
	assert(-1 <= speed && speed <= 1);
 20013bc:	04000044 	movi	r16,1
 20013c0:	e13fff17 	ldw	r4,-4(fp)
 20013c4:	016fe034 	movhi	r5,49024
 20013c8:	2003b1c0 	call	2003b1c <__gesf2>
 20013cc:	1000010e 	bge	r2,zero,20013d4 <set_speed+0x38>
 20013d0:	0021883a 	mov	r16,zero
 20013d4:	8080005c 	xori	r2,r16,1
 20013d8:	10803fcc 	andi	r2,r2,255
 20013dc:	1000091e 	bne	r2,zero,2001404 <set_speed+0x68>
 20013e0:	04000044 	movi	r16,1
 20013e4:	e13fff17 	ldw	r4,-4(fp)
 20013e8:	014fe034 	movhi	r5,16256
 20013ec:	2003b780 	call	2003b78 <__lesf2>
 20013f0:	0080010e 	bge	zero,r2,20013f8 <set_speed+0x5c>
 20013f4:	0021883a 	mov	r16,zero
 20013f8:	8080005c 	xori	r2,r16,1
 20013fc:	10803fcc 	andi	r2,r2,255
 2001400:	10000826 	beq	r2,zero,2001424 <set_speed+0x88>
 2001404:	010080b4 	movhi	r4,514
 2001408:	2130d104 	addi	r4,r4,-15548
 200140c:	01400b04 	movi	r5,44
 2001410:	018080b4 	movhi	r6,514
 2001414:	31b0db04 	addi	r6,r6,-15508
 2001418:	01c080b4 	movhi	r7,514
 200141c:	39f0d404 	addi	r7,r7,-15536
 2001420:	20053980 	call	2005398 <__assert_func>

	unsigned int period = pwm_motor->period_value;
 2001424:	e0bffe17 	ldw	r2,-8(fp)
 2001428:	10800617 	ldw	r2,24(r2)
 200142c:	e0bffd15 	stw	r2,-12(fp)

	if(speed > 0)
 2001430:	e13fff17 	ldw	r4,-4(fp)
 2001434:	000b883a 	mov	r5,zero
 2001438:	2003ac00 	call	2003ac0 <__gtsf2>
 200143c:	0080200e 	bge	zero,r2,20014c0 <set_speed+0x124>
		pwm_setting(pwm_motor, PHASE, (int)      ( speed*period ), PHASE, (int)      ( speed*period ), period, FORWARDS);
 2001440:	e13ffd17 	ldw	r4,-12(fp)
 2001444:	2003cb40 	call	2003cb4 <__floatunsisf>
 2001448:	1007883a 	mov	r3,r2
 200144c:	1809883a 	mov	r4,r3
 2001450:	e17fff17 	ldw	r5,-4(fp)
 2001454:	20039300 	call	2003930 <__mulsf3>
 2001458:	1007883a 	mov	r3,r2
 200145c:	1805883a 	mov	r2,r3
 2001460:	1009883a 	mov	r4,r2
 2001464:	2003bcc0 	call	2003bcc <__fixsfsi>
 2001468:	1021883a 	mov	r16,r2
 200146c:	e13ffd17 	ldw	r4,-12(fp)
 2001470:	2003cb40 	call	2003cb4 <__floatunsisf>
 2001474:	1007883a 	mov	r3,r2
 2001478:	1809883a 	mov	r4,r3
 200147c:	e17fff17 	ldw	r5,-4(fp)
 2001480:	20039300 	call	2003930 <__mulsf3>
 2001484:	1007883a 	mov	r3,r2
 2001488:	1805883a 	mov	r2,r3
 200148c:	1009883a 	mov	r4,r2
 2001490:	2003bcc0 	call	2003bcc <__fixsfsi>
 2001494:	d8800015 	stw	r2,0(sp)
 2001498:	e0bffd17 	ldw	r2,-12(fp)
 200149c:	d8800115 	stw	r2,4(sp)
 20014a0:	00800084 	movi	r2,2
 20014a4:	d8800215 	stw	r2,8(sp)
 20014a8:	e13ffe17 	ldw	r4,-8(fp)
 20014ac:	000b883a 	mov	r5,zero
 20014b0:	800d883a 	mov	r6,r16
 20014b4:	000f883a 	mov	r7,zero
 20014b8:	20013100 	call	2001310 <pwm_setting>
 20014bc:	00002306 	br	200154c <set_speed+0x1b0>
	else
		pwm_setting(pwm_motor, PHASE, (int) ( (-1)*speed*period ), PHASE, (int) ( (-1)*speed*period ), period, BACKWARDS);
 20014c0:	e0bfff17 	ldw	r2,-4(fp)
 20014c4:	1420003c 	xorhi	r16,r2,32768
 20014c8:	e13ffd17 	ldw	r4,-12(fp)
 20014cc:	2003cb40 	call	2003cb4 <__floatunsisf>
 20014d0:	1007883a 	mov	r3,r2
 20014d4:	8009883a 	mov	r4,r16
 20014d8:	180b883a 	mov	r5,r3
 20014dc:	20039300 	call	2003930 <__mulsf3>
 20014e0:	1007883a 	mov	r3,r2
 20014e4:	1805883a 	mov	r2,r3
 20014e8:	1009883a 	mov	r4,r2
 20014ec:	2003bcc0 	call	2003bcc <__fixsfsi>
 20014f0:	1021883a 	mov	r16,r2
 20014f4:	e0bfff17 	ldw	r2,-4(fp)
 20014f8:	1460003c 	xorhi	r17,r2,32768
 20014fc:	e13ffd17 	ldw	r4,-12(fp)
 2001500:	2003cb40 	call	2003cb4 <__floatunsisf>
 2001504:	1007883a 	mov	r3,r2
 2001508:	8809883a 	mov	r4,r17
 200150c:	180b883a 	mov	r5,r3
 2001510:	20039300 	call	2003930 <__mulsf3>
 2001514:	1007883a 	mov	r3,r2
 2001518:	1805883a 	mov	r2,r3
 200151c:	1009883a 	mov	r4,r2
 2001520:	2003bcc0 	call	2003bcc <__fixsfsi>
 2001524:	d8800015 	stw	r2,0(sp)
 2001528:	e0bffd17 	ldw	r2,-12(fp)
 200152c:	d8800115 	stw	r2,4(sp)
 2001530:	00800044 	movi	r2,1
 2001534:	d8800215 	stw	r2,8(sp)
 2001538:	e13ffe17 	ldw	r4,-8(fp)
 200153c:	000b883a 	mov	r5,zero
 2001540:	800d883a 	mov	r6,r16
 2001544:	000f883a 	mov	r7,zero
 2001548:	20013100 	call	2001310 <pwm_setting>

	pwm_motor->current_speed = speed;
 200154c:	e0bffe17 	ldw	r2,-8(fp)
 2001550:	e0ffff17 	ldw	r3,-4(fp)
 2001554:	10c00715 	stw	r3,28(r2)
}
 2001558:	e037883a 	mov	sp,fp
 200155c:	dfc00317 	ldw	ra,12(sp)
 2001560:	df000217 	ldw	fp,8(sp)
 2001564:	dc400117 	ldw	r17,4(sp)
 2001568:	dc000017 	ldw	r16,0(sp)
 200156c:	dec00404 	addi	sp,sp,16
 2001570:	f800283a 	ret

02001574 <get_speed>:

float get_speed(const PWM_Motor *pwm_motor) {
 2001574:	defffe04 	addi	sp,sp,-8
 2001578:	df000115 	stw	fp,4(sp)
 200157c:	df000104 	addi	fp,sp,4
 2001580:	e13fff15 	stw	r4,-4(fp)
	return pwm_motor->current_speed;
 2001584:	e0bfff17 	ldw	r2,-4(fp)
 2001588:	10c00717 	ldw	r3,28(r2)
 200158c:	1805883a 	mov	r2,r3
}
 2001590:	e037883a 	mov	sp,fp
 2001594:	df000017 	ldw	fp,0(sp)
 2001598:	dec00104 	addi	sp,sp,4
 200159c:	f800283a 	ret

020015a0 <I2C_Write>:
bool i2c_write(alt_u32 clk_base, alt_u32 data_base, alt_u8 Data);
void i2c_read(alt_u32 clk_base, alt_u32 data_base, alt_u8 *pData, bool bAck);



bool I2C_Write(alt_u32 clk_base, alt_u32 data_base, alt_8 DeviceAddr, alt_u8 ControlAddr, alt_u8 ControlData){
 20015a0:	defff804 	addi	sp,sp,-32
 20015a4:	dfc00715 	stw	ra,28(sp)
 20015a8:	df000615 	stw	fp,24(sp)
 20015ac:	df000604 	addi	fp,sp,24
 20015b0:	e13ffb15 	stw	r4,-20(fp)
 20015b4:	e17ffc15 	stw	r5,-16(fp)
 20015b8:	3007883a 	mov	r3,r6
 20015bc:	3805883a 	mov	r2,r7
 20015c0:	e1000217 	ldw	r4,8(fp)
 20015c4:	e0fffd05 	stb	r3,-12(fp)
 20015c8:	e0bffe05 	stb	r2,-8(fp)
 20015cc:	e13fff05 	stb	r4,-4(fp)
    bool bSuccess = TRUE;
 20015d0:	00800044 	movi	r2,1
 20015d4:	e0bffa15 	stw	r2,-24(fp)
    //alt_u8 DeviceAddr;
    
    // device id
    //DeviceAddr = HMB_E2_I2C_ID;

    i2c_start(clk_base, data_base);
 20015d8:	e13ffb17 	ldw	r4,-20(fp)
 20015dc:	e17ffc17 	ldw	r5,-16(fp)
 20015e0:	20019e00 	call	20019e0 <i2c_start>
    if (!i2c_write(clk_base, data_base, DeviceAddr)){  // send ID
 20015e4:	e0bffd03 	ldbu	r2,-12(fp)
 20015e8:	10803fcc 	andi	r2,r2,255
 20015ec:	e13ffb17 	ldw	r4,-20(fp)
 20015f0:	e17ffc17 	ldw	r5,-16(fp)
 20015f4:	100d883a 	mov	r6,r2
 20015f8:	2001ad40 	call	2001ad4 <i2c_write>
 20015fc:	1000011e 	bne	r2,zero,2001604 <I2C_Write+0x64>
        bSuccess = FALSE;
 2001600:	e03ffa15 	stw	zero,-24(fp)
        I2C_DEBUG(("I2C HMB_E2 Fail: Address NACK!\n"));
    }
    if (bSuccess && !i2c_write(clk_base, data_base, ControlAddr)){ // send sub-address
 2001604:	e0bffa17 	ldw	r2,-24(fp)
 2001608:	10000726 	beq	r2,zero,2001628 <I2C_Write+0x88>
 200160c:	e0bffe03 	ldbu	r2,-8(fp)
 2001610:	e13ffb17 	ldw	r4,-20(fp)
 2001614:	e17ffc17 	ldw	r5,-16(fp)
 2001618:	100d883a 	mov	r6,r2
 200161c:	2001ad40 	call	2001ad4 <i2c_write>
 2001620:	1000011e 	bne	r2,zero,2001628 <I2C_Write+0x88>
        bSuccess = FALSE;
 2001624:	e03ffa15 	stw	zero,-24(fp)
        I2C_DEBUG(("I2C HMB_E2 Fail: SubAddress NACK!\n"));
    }            
    if (bSuccess && !i2c_write(clk_base, data_base, ControlData)){  
 2001628:	e0bffa17 	ldw	r2,-24(fp)
 200162c:	10000726 	beq	r2,zero,200164c <I2C_Write+0xac>
 2001630:	e0bfff03 	ldbu	r2,-4(fp)
 2001634:	e13ffb17 	ldw	r4,-20(fp)
 2001638:	e17ffc17 	ldw	r5,-16(fp)
 200163c:	100d883a 	mov	r6,r2
 2001640:	2001ad40 	call	2001ad4 <i2c_write>
 2001644:	1000011e 	bne	r2,zero,200164c <I2C_Write+0xac>
        bSuccess = FALSE;
 2001648:	e03ffa15 	stw	zero,-24(fp)
        I2C_DEBUG(("I2C HMB_E2 Fail: write NACK!\n"));
    }
    i2c_stop(clk_base, data_base);
 200164c:	e13ffb17 	ldw	r4,-20(fp)
 2001650:	e17ffc17 	ldw	r5,-16(fp)
 2001654:	2001a640 	call	2001a64 <i2c_stop>
    
    usleep(7*1000); // delay to wait EE2 ready (at least 5 ms delay is required)
 2001658:	0106d604 	movi	r4,7000
 200165c:	200fbd40 	call	200fbd4 <usleep>
    
    return bSuccess;
 2001660:	e0bffa17 	ldw	r2,-24(fp)

    
}
 2001664:	e037883a 	mov	sp,fp
 2001668:	dfc00117 	ldw	ra,4(sp)
 200166c:	df000017 	ldw	fp,0(sp)
 2001670:	dec00204 	addi	sp,sp,8
 2001674:	f800283a 	ret

02001678 <I2C_Read>:

bool I2C_Read(alt_u32 clk_base, alt_u32 data_base, alt_8 DeviceAddr, alt_u8 ControlAddr, alt_u8 *pControlData){
 2001678:	defff904 	addi	sp,sp,-28
 200167c:	dfc00615 	stw	ra,24(sp)
 2001680:	df000515 	stw	fp,20(sp)
 2001684:	df000504 	addi	fp,sp,20
 2001688:	e13ffc15 	stw	r4,-16(fp)
 200168c:	e17ffd15 	stw	r5,-12(fp)
 2001690:	3007883a 	mov	r3,r6
 2001694:	3805883a 	mov	r2,r7
 2001698:	e0fffe05 	stb	r3,-8(fp)
 200169c:	e0bfff05 	stb	r2,-4(fp)
    bool bSuccess = TRUE;
 20016a0:	00800044 	movi	r2,1
 20016a4:	e0bffb15 	stw	r2,-20(fp)
    //alt_u8 DeviceAddr;
   
    // device id
    //DeviceAddr = HMB_E2_I2C_ID;

    i2c_start(clk_base, data_base);
 20016a8:	e13ffc17 	ldw	r4,-16(fp)
 20016ac:	e17ffd17 	ldw	r5,-12(fp)
 20016b0:	20019e00 	call	20019e0 <i2c_start>
    if (!i2c_write(clk_base, data_base, DeviceAddr)){  // send ID
 20016b4:	e0bffe03 	ldbu	r2,-8(fp)
 20016b8:	10803fcc 	andi	r2,r2,255
 20016bc:	e13ffc17 	ldw	r4,-16(fp)
 20016c0:	e17ffd17 	ldw	r5,-12(fp)
 20016c4:	100d883a 	mov	r6,r2
 20016c8:	2001ad40 	call	2001ad4 <i2c_write>
 20016cc:	1000011e 	bne	r2,zero,20016d4 <I2C_Read+0x5c>
        bSuccess = FALSE;
 20016d0:	e03ffb15 	stw	zero,-20(fp)
        I2C_DEBUG(("I2C HMB_E2 Fail: Address NACK!\n"));
    }
    if (bSuccess && !i2c_write(clk_base, data_base, ControlAddr)){ // send sub-address
 20016d4:	e0bffb17 	ldw	r2,-20(fp)
 20016d8:	10000726 	beq	r2,zero,20016f8 <I2C_Read+0x80>
 20016dc:	e0bfff03 	ldbu	r2,-4(fp)
 20016e0:	e13ffc17 	ldw	r4,-16(fp)
 20016e4:	e17ffd17 	ldw	r5,-12(fp)
 20016e8:	100d883a 	mov	r6,r2
 20016ec:	2001ad40 	call	2001ad4 <i2c_write>
 20016f0:	1000011e 	bne	r2,zero,20016f8 <I2C_Read+0x80>
        bSuccess = FALSE;
 20016f4:	e03ffb15 	stw	zero,-20(fp)
        I2C_DEBUG(("I2C HMB_E2 Fail: SubAddress NACK!\n"));
    }            
    i2c_start(clk_base, data_base);  // restart
 20016f8:	e13ffc17 	ldw	r4,-16(fp)
 20016fc:	e17ffd17 	ldw	r5,-12(fp)
 2001700:	20019e00 	call	20019e0 <i2c_start>
    DeviceAddr |= 1; // Read
 2001704:	e0bffe03 	ldbu	r2,-8(fp)
 2001708:	10800054 	ori	r2,r2,1
 200170c:	e0bffe05 	stb	r2,-8(fp)
    if (bSuccess && !i2c_write(clk_base, data_base, DeviceAddr)){  // send id
 2001710:	e0bffb17 	ldw	r2,-20(fp)
 2001714:	10000826 	beq	r2,zero,2001738 <I2C_Read+0xc0>
 2001718:	e0bffe03 	ldbu	r2,-8(fp)
 200171c:	10803fcc 	andi	r2,r2,255
 2001720:	e13ffc17 	ldw	r4,-16(fp)
 2001724:	e17ffd17 	ldw	r5,-12(fp)
 2001728:	100d883a 	mov	r6,r2
 200172c:	2001ad40 	call	2001ad4 <i2c_write>
 2001730:	1000011e 	bne	r2,zero,2001738 <I2C_Read+0xc0>
        bSuccess = FALSE;
 2001734:	e03ffb15 	stw	zero,-20(fp)
        I2C_DEBUG(("I2C HMB_E2 Fail: Address+1 NACK!\n"));
    }
    
    if (bSuccess){
 2001738:	e0bffb17 	ldw	r2,-20(fp)
 200173c:	10000526 	beq	r2,zero,2001754 <I2C_Read+0xdc>
        i2c_read(clk_base, data_base, pControlData, FALSE);  // read
 2001740:	e13ffc17 	ldw	r4,-16(fp)
 2001744:	e17ffd17 	ldw	r5,-12(fp)
 2001748:	e1800217 	ldw	r6,8(fp)
 200174c:	000f883a 	mov	r7,zero
 2001750:	2001c000 	call	2001c00 <i2c_read>
    }        
    i2c_stop(clk_base, data_base);
 2001754:	e13ffc17 	ldw	r4,-16(fp)
 2001758:	e17ffd17 	ldw	r5,-12(fp)
 200175c:	2001a640 	call	2001a64 <i2c_stop>
    
    return bSuccess;
 2001760:	e0bffb17 	ldw	r2,-20(fp)
}
 2001764:	e037883a 	mov	sp,fp
 2001768:	dfc00117 	ldw	ra,4(sp)
 200176c:	df000017 	ldw	fp,0(sp)
 2001770:	dec00204 	addi	sp,sp,8
 2001774:	f800283a 	ret

02001778 <I2C_MultipleWrite>:


bool I2C_MultipleWrite(alt_u32 clk_base, alt_u32 data_base, alt_8 DeviceAddr, alt_u8 ControlAddr, alt_u8 *pData, alt_u16 len){
 2001778:	defff704 	addi	sp,sp,-36
 200177c:	dfc00815 	stw	ra,32(sp)
 2001780:	df000715 	stw	fp,28(sp)
 2001784:	df000704 	addi	fp,sp,28
 2001788:	e13ffb15 	stw	r4,-20(fp)
 200178c:	e17ffc15 	stw	r5,-16(fp)
 2001790:	3007883a 	mov	r3,r6
 2001794:	3805883a 	mov	r2,r7
 2001798:	e1000317 	ldw	r4,12(fp)
 200179c:	e0fffd05 	stb	r3,-12(fp)
 20017a0:	e0bffe05 	stb	r2,-8(fp)
 20017a4:	e13fff0d 	sth	r4,-4(fp)
    bool bSuccess = TRUE;
 20017a8:	00800044 	movi	r2,1
 20017ac:	e0bff915 	stw	r2,-28(fp)
    int i;

    i2c_start(clk_base, data_base);
 20017b0:	e13ffb17 	ldw	r4,-20(fp)
 20017b4:	e17ffc17 	ldw	r5,-16(fp)
 20017b8:	20019e00 	call	20019e0 <i2c_start>
    if (!i2c_write(clk_base, data_base, DeviceAddr)){  // send ID
 20017bc:	e0bffd03 	ldbu	r2,-12(fp)
 20017c0:	10803fcc 	andi	r2,r2,255
 20017c4:	e13ffb17 	ldw	r4,-20(fp)
 20017c8:	e17ffc17 	ldw	r5,-16(fp)
 20017cc:	100d883a 	mov	r6,r2
 20017d0:	2001ad40 	call	2001ad4 <i2c_write>
 20017d4:	1000011e 	bne	r2,zero,20017dc <I2C_MultipleWrite+0x64>
        bSuccess = FALSE;
 20017d8:	e03ff915 	stw	zero,-28(fp)
        I2C_DEBUG(("I2C HMB_E2 Fail: Address NACK!\n"));
    }
    if (bSuccess && !i2c_write(clk_base, data_base, ControlAddr)){ // send sub-address
 20017dc:	e0bff917 	ldw	r2,-28(fp)
 20017e0:	10000726 	beq	r2,zero,2001800 <I2C_MultipleWrite+0x88>
 20017e4:	e0bffe03 	ldbu	r2,-8(fp)
 20017e8:	e13ffb17 	ldw	r4,-20(fp)
 20017ec:	e17ffc17 	ldw	r5,-16(fp)
 20017f0:	100d883a 	mov	r6,r2
 20017f4:	2001ad40 	call	2001ad4 <i2c_write>
 20017f8:	1000011e 	bne	r2,zero,2001800 <I2C_MultipleWrite+0x88>
        bSuccess = FALSE;
 20017fc:	e03ff915 	stw	zero,-28(fp)
        I2C_DEBUG(("I2C HMB_E2 Fail: SubAddress NACK!\n"));
    }            
    if (bSuccess){
 2001800:	e0bff917 	ldw	r2,-28(fp)
 2001804:	10001526 	beq	r2,zero,200185c <I2C_MultipleWrite+0xe4>
        for(i=0;i<len && bSuccess;i++){
 2001808:	e03ffa15 	stw	zero,-24(fp)
 200180c:	00000e06 	br	2001848 <I2C_MultipleWrite+0xd0>
            bSuccess = i2c_write(clk_base, data_base, *pData);
 2001810:	e0800217 	ldw	r2,8(fp)
 2001814:	10800003 	ldbu	r2,0(r2)
 2001818:	10803fcc 	andi	r2,r2,255
 200181c:	e13ffb17 	ldw	r4,-20(fp)
 2001820:	e17ffc17 	ldw	r5,-16(fp)
 2001824:	100d883a 	mov	r6,r2
 2001828:	2001ad40 	call	2001ad4 <i2c_write>
 200182c:	e0bff915 	stw	r2,-28(fp)
            pData++;
 2001830:	e0800217 	ldw	r2,8(fp)
 2001834:	10800044 	addi	r2,r2,1
 2001838:	e0800215 	stw	r2,8(fp)
    if (bSuccess && !i2c_write(clk_base, data_base, ControlAddr)){ // send sub-address
        bSuccess = FALSE;
        I2C_DEBUG(("I2C HMB_E2 Fail: SubAddress NACK!\n"));
    }            
    if (bSuccess){
        for(i=0;i<len && bSuccess;i++){
 200183c:	e0bffa17 	ldw	r2,-24(fp)
 2001840:	10800044 	addi	r2,r2,1
 2001844:	e0bffa15 	stw	r2,-24(fp)
 2001848:	e0bfff0b 	ldhu	r2,-4(fp)
 200184c:	e0fffa17 	ldw	r3,-24(fp)
 2001850:	1880020e 	bge	r3,r2,200185c <I2C_MultipleWrite+0xe4>
 2001854:	e0bff917 	ldw	r2,-28(fp)
 2001858:	103fed1e 	bne	r2,zero,2001810 <I2C_MultipleWrite+0x98>
            pData++;
        }
        if (!bSuccess)         
            I2C_DEBUG(("I2C HMB_E2 Fail: write NACK!\n"));
    }
    i2c_stop(clk_base, data_base);
 200185c:	e13ffb17 	ldw	r4,-20(fp)
 2001860:	e17ffc17 	ldw	r5,-16(fp)
 2001864:	2001a640 	call	2001a64 <i2c_stop>
    
    usleep(7*1000); // delay to wait EE2 ready (at least 5 ms delay is required)
 2001868:	0106d604 	movi	r4,7000
 200186c:	200fbd40 	call	200fbd4 <usleep>
    
    return bSuccess;
 2001870:	e0bff917 	ldw	r2,-28(fp)

    
}
 2001874:	e037883a 	mov	sp,fp
 2001878:	dfc00117 	ldw	ra,4(sp)
 200187c:	df000017 	ldw	fp,0(sp)
 2001880:	dec00204 	addi	sp,sp,8
 2001884:	f800283a 	ret

02001888 <I2C_MultipleRead>:

bool I2C_MultipleRead(alt_u32 clk_base, alt_u32 data_base, alt_8 DeviceAddr, alt_u8 ControlAddr, alt_u8 *pBuf, alt_u16 len){
 2001888:	defff704 	addi	sp,sp,-36
 200188c:	dfc00815 	stw	ra,32(sp)
 2001890:	df000715 	stw	fp,28(sp)
 2001894:	df000704 	addi	fp,sp,28
 2001898:	e13ffb15 	stw	r4,-20(fp)
 200189c:	e17ffc15 	stw	r5,-16(fp)
 20018a0:	3007883a 	mov	r3,r6
 20018a4:	3805883a 	mov	r2,r7
 20018a8:	e1000317 	ldw	r4,12(fp)
 20018ac:	e0fffd05 	stb	r3,-12(fp)
 20018b0:	e0bffe05 	stb	r2,-8(fp)
 20018b4:	e13fff0d 	sth	r4,-4(fp)
    int i;
    bool bSuccess = TRUE;
 20018b8:	00800044 	movi	r2,1
 20018bc:	e0bffa15 	stw	r2,-24(fp)
    
   
    // device id
    //DeviceAddr = HMB_E2_I2C_ID;

    i2c_start(clk_base, data_base);
 20018c0:	e13ffb17 	ldw	r4,-20(fp)
 20018c4:	e17ffc17 	ldw	r5,-16(fp)
 20018c8:	20019e00 	call	20019e0 <i2c_start>
    if (!i2c_write(clk_base, data_base, DeviceAddr)){  // send ID
 20018cc:	e0bffd03 	ldbu	r2,-12(fp)
 20018d0:	10803fcc 	andi	r2,r2,255
 20018d4:	e13ffb17 	ldw	r4,-20(fp)
 20018d8:	e17ffc17 	ldw	r5,-16(fp)
 20018dc:	100d883a 	mov	r6,r2
 20018e0:	2001ad40 	call	2001ad4 <i2c_write>
 20018e4:	1000011e 	bne	r2,zero,20018ec <I2C_MultipleRead+0x64>
        bSuccess = FALSE;
 20018e8:	e03ffa15 	stw	zero,-24(fp)
        I2C_DEBUG(("I2C HMB_E2 Fail: Address NACK!\n"));
    }
    if (bSuccess && !i2c_write(clk_base, data_base, ControlAddr)){ // send sub-address
 20018ec:	e0bffa17 	ldw	r2,-24(fp)
 20018f0:	10000726 	beq	r2,zero,2001910 <I2C_MultipleRead+0x88>
 20018f4:	e0bffe03 	ldbu	r2,-8(fp)
 20018f8:	e13ffb17 	ldw	r4,-20(fp)
 20018fc:	e17ffc17 	ldw	r5,-16(fp)
 2001900:	100d883a 	mov	r6,r2
 2001904:	2001ad40 	call	2001ad4 <i2c_write>
 2001908:	1000011e 	bne	r2,zero,2001910 <I2C_MultipleRead+0x88>
        bSuccess = FALSE;
 200190c:	e03ffa15 	stw	zero,-24(fp)
        I2C_DEBUG(("I2C HMB_E2 Fail: SubAddress NACK!\n"));
    }    
    if (bSuccess)        
 2001910:	e0bffa17 	ldw	r2,-24(fp)
 2001914:	10000326 	beq	r2,zero,2001924 <I2C_MultipleRead+0x9c>
        i2c_start(clk_base, data_base);  // restart
 2001918:	e13ffb17 	ldw	r4,-20(fp)
 200191c:	e17ffc17 	ldw	r5,-16(fp)
 2001920:	20019e00 	call	20019e0 <i2c_start>
    DeviceAddr |= 1; // Read
 2001924:	e0bffd03 	ldbu	r2,-12(fp)
 2001928:	10800054 	ori	r2,r2,1
 200192c:	e0bffd05 	stb	r2,-12(fp)
    if (bSuccess && !i2c_write(clk_base, data_base, DeviceAddr)){  // send id
 2001930:	e0bffa17 	ldw	r2,-24(fp)
 2001934:	10000826 	beq	r2,zero,2001958 <I2C_MultipleRead+0xd0>
 2001938:	e0bffd03 	ldbu	r2,-12(fp)
 200193c:	10803fcc 	andi	r2,r2,255
 2001940:	e13ffb17 	ldw	r4,-20(fp)
 2001944:	e17ffc17 	ldw	r5,-16(fp)
 2001948:	100d883a 	mov	r6,r2
 200194c:	2001ad40 	call	2001ad4 <i2c_write>
 2001950:	1000011e 	bne	r2,zero,2001958 <I2C_MultipleRead+0xd0>
        bSuccess = FALSE;
 2001954:	e03ffa15 	stw	zero,-24(fp)
        I2C_DEBUG(("I2C HMB_E2 Fail: Address+1 NACK!\n"));
    }
    
    if (bSuccess){
 2001958:	e0bffa17 	ldw	r2,-24(fp)
 200195c:	10001726 	beq	r2,zero,20019bc <I2C_MultipleRead+0x134>
        for(i=0;i<len && bSuccess;i++){
 2001960:	e03ff915 	stw	zero,-28(fp)
 2001964:	00001006 	br	20019a8 <I2C_MultipleRead+0x120>
            i2c_read(clk_base, data_base, pBuf, (i==(len-1))?FALSE:TRUE);  // read
 2001968:	e0bfff0b 	ldhu	r2,-4(fp)
 200196c:	10ffffc4 	addi	r3,r2,-1
 2001970:	e0bff917 	ldw	r2,-28(fp)
 2001974:	1884c03a 	cmpne	r2,r3,r2
 2001978:	10803fcc 	andi	r2,r2,255
 200197c:	e13ffb17 	ldw	r4,-20(fp)
 2001980:	e17ffc17 	ldw	r5,-16(fp)
 2001984:	e1800217 	ldw	r6,8(fp)
 2001988:	100f883a 	mov	r7,r2
 200198c:	2001c000 	call	2001c00 <i2c_read>
            pBuf++;
 2001990:	e0800217 	ldw	r2,8(fp)
 2001994:	10800044 	addi	r2,r2,1
 2001998:	e0800215 	stw	r2,8(fp)
        bSuccess = FALSE;
        I2C_DEBUG(("I2C HMB_E2 Fail: Address+1 NACK!\n"));
    }
    
    if (bSuccess){
        for(i=0;i<len && bSuccess;i++){
 200199c:	e0bff917 	ldw	r2,-28(fp)
 20019a0:	10800044 	addi	r2,r2,1
 20019a4:	e0bff915 	stw	r2,-28(fp)
 20019a8:	e0bfff0b 	ldhu	r2,-4(fp)
 20019ac:	e0fff917 	ldw	r3,-28(fp)
 20019b0:	1880020e 	bge	r3,r2,20019bc <I2C_MultipleRead+0x134>
 20019b4:	e0bffa17 	ldw	r2,-24(fp)
 20019b8:	103feb1e 	bne	r2,zero,2001968 <I2C_MultipleRead+0xe0>
            i2c_read(clk_base, data_base, pBuf, (i==(len-1))?FALSE:TRUE);  // read
            pBuf++;
        }            
    }        
    i2c_stop(clk_base, data_base);
 20019bc:	e13ffb17 	ldw	r4,-20(fp)
 20019c0:	e17ffc17 	ldw	r5,-16(fp)
 20019c4:	2001a640 	call	2001a64 <i2c_stop>
    
    return bSuccess;    
 20019c8:	e0bffa17 	ldw	r2,-24(fp)
    
}
 20019cc:	e037883a 	mov	sp,fp
 20019d0:	dfc00117 	ldw	ra,4(sp)
 20019d4:	df000017 	ldw	fp,0(sp)
 20019d8:	dec00204 	addi	sp,sp,8
 20019dc:	f800283a 	ret

020019e0 <i2c_start>:
///////////// Interncal function (i2cXXX) body //////////////////////////////////////////////
/////////////////////////////////////////////////////////////////////////////////////////////


//SDA 1->0 while SCL=1
void i2c_start(alt_u32 clk_base, alt_u32 data_base){
 20019e0:	defffc04 	addi	sp,sp,-16
 20019e4:	dfc00315 	stw	ra,12(sp)
 20019e8:	df000215 	stw	fp,8(sp)
 20019ec:	df000204 	addi	fp,sp,8
 20019f0:	e13ffe15 	stw	r4,-8(fp)
 20019f4:	e17fff15 	stw	r5,-4(fp)
    
    // make sure it is in normal state
    SDA_DIR_OUT(data_base);  // data output enabled
 20019f8:	e0bfff17 	ldw	r2,-4(fp)
 20019fc:	10800104 	addi	r2,r2,4
 2001a00:	00c00044 	movi	r3,1
 2001a04:	10c00035 	stwio	r3,0(r2)
    
    
    
    // start condition
    SDA_HIGH(data_base); // data high
 2001a08:	e0bfff17 	ldw	r2,-4(fp)
 2001a0c:	00c00044 	movi	r3,1
 2001a10:	10c00035 	stwio	r3,0(r2)
    SCL_HIGH(clk_base);
 2001a14:	e0bffe17 	ldw	r2,-8(fp)
 2001a18:	00c00044 	movi	r3,1
 2001a1c:	10c00035 	stwio	r3,0(r2)
    SCL_DELAY;
 2001a20:	01000044 	movi	r4,1
 2001a24:	200fbd40 	call	200fbd4 <usleep>
     
    SDA_LOW(data_base); // data low
 2001a28:	e0bfff17 	ldw	r2,-4(fp)
 2001a2c:	0007883a 	mov	r3,zero
 2001a30:	10c00035 	stwio	r3,0(r2)
    SCL_DELAY; 
 2001a34:	01000044 	movi	r4,1
 2001a38:	200fbd40 	call	200fbd4 <usleep>
    SCL_LOW(clk_base); // clock low
 2001a3c:	e0bffe17 	ldw	r2,-8(fp)
 2001a40:	0007883a 	mov	r3,zero
 2001a44:	10c00035 	stwio	r3,0(r2)
    SCL_DELAY;
 2001a48:	01000044 	movi	r4,1
 2001a4c:	200fbd40 	call	200fbd4 <usleep>
}
 2001a50:	e037883a 	mov	sp,fp
 2001a54:	dfc00117 	ldw	ra,4(sp)
 2001a58:	df000017 	ldw	fp,0(sp)
 2001a5c:	dec00204 	addi	sp,sp,8
 2001a60:	f800283a 	ret

02001a64 <i2c_stop>:

// SDA 0->1 while SCL=1
void i2c_stop(alt_u32 clk_base, alt_u32 data_base){
 2001a64:	defffc04 	addi	sp,sp,-16
 2001a68:	dfc00315 	stw	ra,12(sp)
 2001a6c:	df000215 	stw	fp,8(sp)
 2001a70:	df000204 	addi	fp,sp,8
 2001a74:	e13ffe15 	stw	r4,-8(fp)
 2001a78:	e17fff15 	stw	r5,-4(fp)
    // assume SCL = 0
    
    SDA_DIR_OUT(data_base);  // data output enabled
 2001a7c:	e0bfff17 	ldw	r2,-4(fp)
 2001a80:	10800104 	addi	r2,r2,4
 2001a84:	00c00044 	movi	r3,1
 2001a88:	10c00035 	stwio	r3,0(r2)
    SDA_LOW(data_base); // Data Low
 2001a8c:	e0bfff17 	ldw	r2,-4(fp)
 2001a90:	0007883a 	mov	r3,zero
 2001a94:	10c00035 	stwio	r3,0(r2)
    //SCL_DELAY; 
    SCL_HIGH(clk_base);  // clock high
 2001a98:	e0bffe17 	ldw	r2,-8(fp)
 2001a9c:	00c00044 	movi	r3,1
 2001aa0:	10c00035 	stwio	r3,0(r2)
    SCL_DELAY; // clock high long delay
 2001aa4:	01000044 	movi	r4,1
 2001aa8:	200fbd40 	call	200fbd4 <usleep>
    SDA_HIGH(data_base); // data high
 2001aac:	e0bfff17 	ldw	r2,-4(fp)
 2001ab0:	00c00044 	movi	r3,1
 2001ab4:	10c00035 	stwio	r3,0(r2)
    SCL_DELAY; // data high delay
 2001ab8:	01000044 	movi	r4,1
 2001abc:	200fbd40 	call	200fbd4 <usleep>
    

    
}
 2001ac0:	e037883a 	mov	sp,fp
 2001ac4:	dfc00117 	ldw	ra,4(sp)
 2001ac8:	df000017 	ldw	fp,0(sp)
 2001acc:	dec00204 	addi	sp,sp,8
 2001ad0:	f800283a 	ret

02001ad4 <i2c_write>:

bool i2c_write(alt_u32 clk_base, alt_u32 data_base, alt_u8 Data){ // return true if device response ack
 2001ad4:	defff804 	addi	sp,sp,-32
 2001ad8:	dfc00715 	stw	ra,28(sp)
 2001adc:	df000615 	stw	fp,24(sp)
 2001ae0:	df000604 	addi	fp,sp,24
 2001ae4:	e13ffd15 	stw	r4,-12(fp)
 2001ae8:	e17ffe15 	stw	r5,-8(fp)
 2001aec:	3005883a 	mov	r2,r6
 2001af0:	e0bfff05 	stb	r2,-4(fp)
    alt_u8 Mask = 0x80;
 2001af4:	00bfe004 	movi	r2,-128
 2001af8:	e0bffa05 	stb	r2,-24(fp)
    bool bAck;
    int i;
    
    // assume, SCL = 0
    
    SDA_DIR_OUT(data_base);  // data write mode
 2001afc:	e0bffe17 	ldw	r2,-8(fp)
 2001b00:	10800104 	addi	r2,r2,4
 2001b04:	00c00044 	movi	r3,1
 2001b08:	10c00035 	stwio	r3,0(r2)
    
    for(i=0;i<8;i++){
 2001b0c:	e03ffb15 	stw	zero,-20(fp)
 2001b10:	00001f06 	br	2001b90 <i2c_write+0xbc>
        SCL_LOW(clk_base);  // new, make sure data change at clk low
 2001b14:	e0bffd17 	ldw	r2,-12(fp)
 2001b18:	0007883a 	mov	r3,zero
 2001b1c:	10c00035 	stwio	r3,0(r2)
        // output data on bus
        if (Data & Mask){ // there is a delay in this command
 2001b20:	e0ffff03 	ldbu	r3,-4(fp)
 2001b24:	e0bffa03 	ldbu	r2,-24(fp)
 2001b28:	1884703a 	and	r2,r3,r2
 2001b2c:	10803fcc 	andi	r2,r2,255
 2001b30:	10000426 	beq	r2,zero,2001b44 <i2c_write+0x70>
            SDA_HIGH(data_base);
 2001b34:	e0bffe17 	ldw	r2,-8(fp)
 2001b38:	00c00044 	movi	r3,1
 2001b3c:	10c00035 	stwio	r3,0(r2)
 2001b40:	00000306 	br	2001b50 <i2c_write+0x7c>
        }else{    
            SDA_LOW(data_base);
 2001b44:	e0bffe17 	ldw	r2,-8(fp)
 2001b48:	0007883a 	mov	r3,zero
 2001b4c:	10c00035 	stwio	r3,0(r2)
        }
        Mask >>= 1; // there is a delay in this command
 2001b50:	e0bffa03 	ldbu	r2,-24(fp)
 2001b54:	1004d07a 	srli	r2,r2,1
 2001b58:	e0bffa05 	stb	r2,-24(fp)
        // clock high
        SCL_HIGH(clk_base);
 2001b5c:	e0bffd17 	ldw	r2,-12(fp)
 2001b60:	00c00044 	movi	r3,1
 2001b64:	10c00035 	stwio	r3,0(r2)
        SCL_DELAY;
 2001b68:	01000044 	movi	r4,1
 2001b6c:	200fbd40 	call	200fbd4 <usleep>
        SCL_LOW(clk_base);
 2001b70:	e0bffd17 	ldw	r2,-12(fp)
 2001b74:	0007883a 	mov	r3,zero
 2001b78:	10c00035 	stwio	r3,0(r2)
        SCL_DELAY;
 2001b7c:	01000044 	movi	r4,1
 2001b80:	200fbd40 	call	200fbd4 <usleep>
    
    // assume, SCL = 0
    
    SDA_DIR_OUT(data_base);  // data write mode
    
    for(i=0;i<8;i++){
 2001b84:	e0bffb17 	ldw	r2,-20(fp)
 2001b88:	10800044 	addi	r2,r2,1
 2001b8c:	e0bffb15 	stw	r2,-20(fp)
 2001b90:	e0bffb17 	ldw	r2,-20(fp)
 2001b94:	10800210 	cmplti	r2,r2,8
 2001b98:	103fde1e 	bne	r2,zero,2001b14 <i2c_write+0x40>
        SCL_LOW(clk_base);
        SCL_DELAY;
    }
    
    //===== get ack
    SDA_DIR_IN(data_base);  // data read mode
 2001b9c:	e0bffe17 	ldw	r2,-8(fp)
 2001ba0:	10800104 	addi	r2,r2,4
 2001ba4:	0007883a 	mov	r3,zero
 2001ba8:	10c00035 	stwio	r3,0(r2)
    //SCL_DELAY;
    // clock high
    SCL_HIGH(clk_base);  // clock high
 2001bac:	e0bffd17 	ldw	r2,-12(fp)
 2001bb0:	00c00044 	movi	r3,1
 2001bb4:	10c00035 	stwio	r3,0(r2)
    SCL_DELAY;  // clock high delay
 2001bb8:	01000044 	movi	r4,1
 2001bbc:	200fbd40 	call	200fbd4 <usleep>
    bAck = SDA_READ(data_base)?FALSE:TRUE;  // get ack
 2001bc0:	e0bffe17 	ldw	r2,-8(fp)
 2001bc4:	10800037 	ldwio	r2,0(r2)
 2001bc8:	1005003a 	cmpeq	r2,r2,zero
 2001bcc:	10803fcc 	andi	r2,r2,255
 2001bd0:	e0bffc15 	stw	r2,-16(fp)
    //SCL_DELAY;
    //SDA_DIR_OUT;
    SCL_LOW(clk_base); // clock low         
 2001bd4:	e0bffd17 	ldw	r2,-12(fp)
 2001bd8:	0007883a 	mov	r3,zero
 2001bdc:	10c00035 	stwio	r3,0(r2)
    SCL_DELAY; // clock low delay
 2001be0:	01000044 	movi	r4,1
 2001be4:	200fbd40 	call	200fbd4 <usleep>
    return bAck;
 2001be8:	e0bffc17 	ldw	r2,-16(fp)
}    
 2001bec:	e037883a 	mov	sp,fp
 2001bf0:	dfc00117 	ldw	ra,4(sp)
 2001bf4:	df000017 	ldw	fp,0(sp)
 2001bf8:	dec00204 	addi	sp,sp,8
 2001bfc:	f800283a 	ret

02001c00 <i2c_read>:

void i2c_read(alt_u32 clk_base, alt_u32 data_base, alt_u8 *pData, bool bAck){ // return true if device response ack
 2001c00:	defff804 	addi	sp,sp,-32
 2001c04:	dfc00715 	stw	ra,28(sp)
 2001c08:	df000615 	stw	fp,24(sp)
 2001c0c:	df000604 	addi	fp,sp,24
 2001c10:	e13ffc15 	stw	r4,-16(fp)
 2001c14:	e17ffd15 	stw	r5,-12(fp)
 2001c18:	e1bffe15 	stw	r6,-8(fp)
 2001c1c:	e1ffff15 	stw	r7,-4(fp)
    alt_u8 Data=0;
 2001c20:	e03ffa05 	stb	zero,-24(fp)
    int i;
    
    // assume SCL = low
    
    SDA_DIR_IN(data_base);  // set data read mode
 2001c24:	e0bffd17 	ldw	r2,-12(fp)
 2001c28:	10800104 	addi	r2,r2,4
 2001c2c:	0007883a 	mov	r3,zero
 2001c30:	10c00035 	stwio	r3,0(r2)
    SCL_LOW(clk_base); // clock low
 2001c34:	e0bffc17 	ldw	r2,-16(fp)
 2001c38:	0007883a 	mov	r3,zero
 2001c3c:	10c00035 	stwio	r3,0(r2)
    SCL_DELAY; // clock low delay
 2001c40:	01000044 	movi	r4,1
 2001c44:	200fbd40 	call	200fbd4 <usleep>

    for(i=0;i<8;i++){
 2001c48:	e03ffb15 	stw	zero,-20(fp)
 2001c4c:	00001606 	br	2001ca8 <i2c_read+0xa8>
        Data <<= 1;
 2001c50:	e0bffa03 	ldbu	r2,-24(fp)
 2001c54:	1085883a 	add	r2,r2,r2
 2001c58:	e0bffa05 	stb	r2,-24(fp)
        SCL_HIGH(clk_base);  // clock high
 2001c5c:	e0bffc17 	ldw	r2,-16(fp)
 2001c60:	00c00044 	movi	r3,1
 2001c64:	10c00035 	stwio	r3,0(r2)
        SCL_DELAY;
 2001c68:	01000044 	movi	r4,1
 2001c6c:	200fbd40 	call	200fbd4 <usleep>
        if (SDA_READ(data_base))  // read data   
 2001c70:	e0bffd17 	ldw	r2,-12(fp)
 2001c74:	10800037 	ldwio	r2,0(r2)
 2001c78:	10000326 	beq	r2,zero,2001c88 <i2c_read+0x88>
            Data |= 0x01;
 2001c7c:	e0bffa03 	ldbu	r2,-24(fp)
 2001c80:	10800054 	ori	r2,r2,1
 2001c84:	e0bffa05 	stb	r2,-24(fp)
        SCL_LOW(clk_base);  // clock log  
 2001c88:	e0bffc17 	ldw	r2,-16(fp)
 2001c8c:	0007883a 	mov	r3,zero
 2001c90:	10c00035 	stwio	r3,0(r2)
        SCL_DELAY;
 2001c94:	01000044 	movi	r4,1
 2001c98:	200fbd40 	call	200fbd4 <usleep>
    
    SDA_DIR_IN(data_base);  // set data read mode
    SCL_LOW(clk_base); // clock low
    SCL_DELAY; // clock low delay

    for(i=0;i<8;i++){
 2001c9c:	e0bffb17 	ldw	r2,-20(fp)
 2001ca0:	10800044 	addi	r2,r2,1
 2001ca4:	e0bffb15 	stw	r2,-20(fp)
 2001ca8:	e0bffb17 	ldw	r2,-20(fp)
 2001cac:	10800210 	cmplti	r2,r2,8
 2001cb0:	103fe71e 	bne	r2,zero,2001c50 <i2c_read+0x50>
        SCL_LOW(clk_base);  // clock log  
        SCL_DELAY;
    }
    
    // send ACK
    SCL_LOW(clk_base);  // new, make sure data change at clk low
 2001cb4:	e0bffc17 	ldw	r2,-16(fp)
 2001cb8:	0007883a 	mov	r3,zero
 2001cbc:	10c00035 	stwio	r3,0(r2)
    SDA_DIR_OUT(data_base);  // set data write mode
 2001cc0:	e0bffd17 	ldw	r2,-12(fp)
 2001cc4:	10800104 	addi	r2,r2,4
 2001cc8:	00c00044 	movi	r3,1
 2001ccc:	10c00035 	stwio	r3,0(r2)
    if (bAck)
 2001cd0:	e0bfff17 	ldw	r2,-4(fp)
 2001cd4:	10000426 	beq	r2,zero,2001ce8 <i2c_read+0xe8>
        SDA_LOW(data_base);
 2001cd8:	e0bffd17 	ldw	r2,-12(fp)
 2001cdc:	0007883a 	mov	r3,zero
 2001ce0:	10c00035 	stwio	r3,0(r2)
 2001ce4:	00000306 	br	2001cf4 <i2c_read+0xf4>
    else
        SDA_HIGH(data_base);
 2001ce8:	e0bffd17 	ldw	r2,-12(fp)
 2001cec:	00c00044 	movi	r3,1
 2001cf0:	10c00035 	stwio	r3,0(r2)
    SCL_HIGH(clk_base); // clock high
 2001cf4:	e0bffc17 	ldw	r2,-16(fp)
 2001cf8:	00c00044 	movi	r3,1
 2001cfc:	10c00035 	stwio	r3,0(r2)
    SCL_DELAY; // clock high  delay
 2001d00:	01000044 	movi	r4,1
 2001d04:	200fbd40 	call	200fbd4 <usleep>
    SCL_LOW(clk_base); // clock low
 2001d08:	e0bffc17 	ldw	r2,-16(fp)
 2001d0c:	0007883a 	mov	r3,zero
 2001d10:	10c00035 	stwio	r3,0(r2)
    SCL_DELAY; // clock low delay
 2001d14:	01000044 	movi	r4,1
 2001d18:	200fbd40 	call	200fbd4 <usleep>
    SDA_LOW(data_base);  // data low
 2001d1c:	e0bffd17 	ldw	r2,-12(fp)
 2001d20:	0007883a 	mov	r3,zero
 2001d24:	10c00035 	stwio	r3,0(r2)
    SCL_DELAY; // data low delay
 2001d28:	01000044 	movi	r4,1
 2001d2c:	200fbd40 	call	200fbd4 <usleep>
//    SDA_DIR_IN;  // set data read mode
    
    *pData = Data;
 2001d30:	e0bffe17 	ldw	r2,-8(fp)
 2001d34:	e0fffa03 	ldbu	r3,-24(fp)
 2001d38:	10c00005 	stb	r3,0(r2)
}
 2001d3c:	e037883a 	mov	sp,fp
 2001d40:	dfc00117 	ldw	ra,4(sp)
 2001d44:	df000017 	ldw	fp,0(sp)
 2001d48:	dec00204 	addi	sp,sp,8
 2001d4c:	f800283a 	ret

02001d50 <i2c_data_verify>:

//==========================================================
// function for verify

bool i2c_data_verify(alt_u32 scl_base, alt_u32 sda_base, alt_u8 ControlAddr){
 2001d50:	defff804 	addi	sp,sp,-32
 2001d54:	dfc00715 	stw	ra,28(sp)
 2001d58:	df000615 	stw	fp,24(sp)
 2001d5c:	df000604 	addi	fp,sp,24
 2001d60:	e13ffd15 	stw	r4,-12(fp)
 2001d64:	e17ffe15 	stw	r5,-8(fp)
 2001d68:	3005883a 	mov	r2,r6
 2001d6c:	e0bfff05 	stb	r2,-4(fp)
    bool bPass;
    const alt_8 DeviceAddr = 0xA0;
 2001d70:	00bfe804 	movi	r2,-96
 2001d74:	e0bffc45 	stb	r2,-15(fp)
 * alt_nticks() returns the elapsed number of system clock ticks since reset.
 */

static ALT_INLINE alt_u32 ALT_ALWAYS_INLINE alt_nticks (void)
{
  return _alt_nticks;
 2001d78:	008080b4 	movhi	r2,514
 2001d7c:	1080d104 	addi	r2,r2,836
 2001d80:	10800017 	ldw	r2,0(r2)
    alt_u8 OrgData, TestData, Data;
    
    TestData = alt_nticks();
 2001d84:	e0bffc05 	stb	r2,-16(fp)
    if (TestData == 0)
 2001d88:	e0bffc03 	ldbu	r2,-16(fp)
 2001d8c:	1000021e 	bne	r2,zero,2001d98 <i2c_data_verify+0x48>
        TestData = 0x12;
 2001d90:	00800484 	movi	r2,18
 2001d94:	e0bffc05 	stb	r2,-16(fp)
    
    bPass = I2C_Read(scl_base, sda_base, DeviceAddr, ControlAddr, &OrgData);
 2001d98:	e0fffc47 	ldb	r3,-15(fp)
 2001d9c:	e0bfff03 	ldbu	r2,-4(fp)
 2001da0:	e13ffc84 	addi	r4,fp,-14
 2001da4:	d9000015 	stw	r4,0(sp)
 2001da8:	e13ffd17 	ldw	r4,-12(fp)
 2001dac:	e17ffe17 	ldw	r5,-8(fp)
 2001db0:	180d883a 	mov	r6,r3
 2001db4:	100f883a 	mov	r7,r2
 2001db8:	20016780 	call	2001678 <I2C_Read>
 2001dbc:	e0bffb15 	stw	r2,-20(fp)
    if (bPass) // write
 2001dc0:	e0bffb17 	ldw	r2,-20(fp)
 2001dc4:	10000a26 	beq	r2,zero,2001df0 <i2c_data_verify+0xa0>
        bPass = I2C_Write(scl_base, sda_base, DeviceAddr, ControlAddr, TestData);
 2001dc8:	e0fffc47 	ldb	r3,-15(fp)
 2001dcc:	e0bfff03 	ldbu	r2,-4(fp)
 2001dd0:	e13ffc03 	ldbu	r4,-16(fp)
 2001dd4:	d9000015 	stw	r4,0(sp)
 2001dd8:	e13ffd17 	ldw	r4,-12(fp)
 2001ddc:	e17ffe17 	ldw	r5,-8(fp)
 2001de0:	180d883a 	mov	r6,r3
 2001de4:	100f883a 	mov	r7,r2
 2001de8:	20015a00 	call	20015a0 <I2C_Write>
 2001dec:	e0bffb15 	stw	r2,-20(fp)
    if (bPass) // read        
 2001df0:	e0bffb17 	ldw	r2,-20(fp)
 2001df4:	10000a26 	beq	r2,zero,2001e20 <i2c_data_verify+0xd0>
        bPass = I2C_Read(scl_base, sda_base, DeviceAddr, ControlAddr, &Data);
 2001df8:	e0fffc47 	ldb	r3,-15(fp)
 2001dfc:	e0bfff03 	ldbu	r2,-4(fp)
 2001e00:	e13ffcc4 	addi	r4,fp,-13
 2001e04:	d9000015 	stw	r4,0(sp)
 2001e08:	e13ffd17 	ldw	r4,-12(fp)
 2001e0c:	e17ffe17 	ldw	r5,-8(fp)
 2001e10:	180d883a 	mov	r6,r3
 2001e14:	100f883a 	mov	r7,r2
 2001e18:	20016780 	call	2001678 <I2C_Read>
 2001e1c:	e0bffb15 	stw	r2,-20(fp)
    if (bPass && (Data != TestData)) // verify
 2001e20:	e0bffb17 	ldw	r2,-20(fp)
 2001e24:	10000526 	beq	r2,zero,2001e3c <i2c_data_verify+0xec>
 2001e28:	e0bffcc3 	ldbu	r2,-13(fp)
 2001e2c:	10c03fcc 	andi	r3,r2,255
 2001e30:	e0bffc03 	ldbu	r2,-16(fp)
 2001e34:	18800126 	beq	r3,r2,2001e3c <i2c_data_verify+0xec>
        bPass = FALSE;        
 2001e38:	e03ffb15 	stw	zero,-20(fp)
    // restore        
    if (bPass) // write back
 2001e3c:	e0bffb17 	ldw	r2,-20(fp)
 2001e40:	10000b26 	beq	r2,zero,2001e70 <i2c_data_verify+0x120>
        bPass = I2C_Write(scl_base, sda_base, DeviceAddr, ControlAddr, OrgData);
 2001e44:	e0fffc47 	ldb	r3,-15(fp)
 2001e48:	e0bfff03 	ldbu	r2,-4(fp)
 2001e4c:	e13ffc83 	ldbu	r4,-14(fp)
 2001e50:	21003fcc 	andi	r4,r4,255
 2001e54:	d9000015 	stw	r4,0(sp)
 2001e58:	e13ffd17 	ldw	r4,-12(fp)
 2001e5c:	e17ffe17 	ldw	r5,-8(fp)
 2001e60:	180d883a 	mov	r6,r3
 2001e64:	100f883a 	mov	r7,r2
 2001e68:	20015a00 	call	20015a0 <I2C_Write>
 2001e6c:	e0bffb15 	stw	r2,-20(fp)
    if (bPass) // read        
 2001e70:	e0bffb17 	ldw	r2,-20(fp)
 2001e74:	10000a26 	beq	r2,zero,2001ea0 <i2c_data_verify+0x150>
        bPass = I2C_Read(scl_base, sda_base, DeviceAddr, ControlAddr, &Data);
 2001e78:	e0fffc47 	ldb	r3,-15(fp)
 2001e7c:	e0bfff03 	ldbu	r2,-4(fp)
 2001e80:	e13ffcc4 	addi	r4,fp,-13
 2001e84:	d9000015 	stw	r4,0(sp)
 2001e88:	e13ffd17 	ldw	r4,-12(fp)
 2001e8c:	e17ffe17 	ldw	r5,-8(fp)
 2001e90:	180d883a 	mov	r6,r3
 2001e94:	100f883a 	mov	r7,r2
 2001e98:	20016780 	call	2001678 <I2C_Read>
 2001e9c:	e0bffb15 	stw	r2,-20(fp)
    if (bPass && (Data != OrgData)) // verify
 2001ea0:	e0bffb17 	ldw	r2,-20(fp)
 2001ea4:	10000626 	beq	r2,zero,2001ec0 <i2c_data_verify+0x170>
 2001ea8:	e0fffcc3 	ldbu	r3,-13(fp)
 2001eac:	e0bffc83 	ldbu	r2,-14(fp)
 2001eb0:	18c03fcc 	andi	r3,r3,255
 2001eb4:	10803fcc 	andi	r2,r2,255
 2001eb8:	18800126 	beq	r3,r2,2001ec0 <i2c_data_verify+0x170>
        bPass = FALSE; 
 2001ebc:	e03ffb15 	stw	zero,-20(fp)
        
    return bPass;
 2001ec0:	e0bffb17 	ldw	r2,-20(fp)
}
 2001ec4:	e037883a 	mov	sp,fp
 2001ec8:	dfc00117 	ldw	ra,4(sp)
 2001ecc:	df000017 	ldw	fp,0(sp)
 2001ed0:	dec00204 	addi	sp,sp,8
 2001ed4:	f800283a 	ret

02001ed8 <I2C_Verify>:




bool I2C_Verify(alt_u32 scl_base, alt_u32 sda_base, alt_u32 size){
 2001ed8:	defffa04 	addi	sp,sp,-24
 2001edc:	dfc00515 	stw	ra,20(sp)
 2001ee0:	df000415 	stw	fp,16(sp)
 2001ee4:	df000404 	addi	fp,sp,16
 2001ee8:	e13ffd15 	stw	r4,-12(fp)
 2001eec:	e17ffe15 	stw	r5,-8(fp)
 2001ef0:	e1bfff15 	stw	r6,-4(fp)
    bool bPass;
    if (size <= 256){
 2001ef4:	e0bfff17 	ldw	r2,-4(fp)
 2001ef8:	10804068 	cmpgeui	r2,r2,257
 2001efc:	1000101e 	bne	r2,zero,2001f40 <I2C_Verify+0x68>
        // less or equal to 256 Bytes
        bPass = i2c_data_verify(scl_base, sda_base, 0);
 2001f00:	e13ffd17 	ldw	r4,-12(fp)
 2001f04:	e17ffe17 	ldw	r5,-8(fp)
 2001f08:	000d883a 	mov	r6,zero
 2001f0c:	2001d500 	call	2001d50 <i2c_data_verify>
 2001f10:	e0bffc15 	stw	r2,-16(fp)
        if (bPass)
 2001f14:	e0bffc17 	ldw	r2,-16(fp)
 2001f18:	10000a26 	beq	r2,zero,2001f44 <I2C_Verify+0x6c>
            bPass = i2c_data_verify(scl_base, sda_base, size-1);
 2001f1c:	e0bfff17 	ldw	r2,-4(fp)
 2001f20:	10bfffc4 	addi	r2,r2,-1
 2001f24:	10803fcc 	andi	r2,r2,255
 2001f28:	e13ffd17 	ldw	r4,-12(fp)
 2001f2c:	e17ffe17 	ldw	r5,-8(fp)
 2001f30:	100d883a 	mov	r6,r2
 2001f34:	2001d500 	call	2001d50 <i2c_data_verify>
 2001f38:	e0bffc15 	stw	r2,-16(fp)
 2001f3c:	00000106 	br	2001f44 <I2C_Verify+0x6c>
    }else{
        bPass = FALSE;
 2001f40:	e03ffc15 	stw	zero,-16(fp)
        bPass = i2cl_data_verify(scl_base, sda_base, 0);
        if (bPass)
            bPass = i2cl_data_verify(scl_base, sda_base, size-1);
            */
    }
    return bPass;
 2001f44:	e0bffc17 	ldw	r2,-16(fp)
}
 2001f48:	e037883a 	mov	sp,fp
 2001f4c:	dfc00117 	ldw	ra,4(sp)
 2001f50:	df000017 	ldw	fp,0(sp)
 2001f54:	dec00204 	addi	sp,sp,8
 2001f58:	f800283a 	ret

02001f5c <ADXL345_SPI_Init>:

#define DATA_READY_TIMEOUT  (alt_ticks_per_second()/3)



bool ADXL345_SPI_Init(alt_u32 device_base){
 2001f5c:	defffc04 	addi	sp,sp,-16
 2001f60:	dfc00315 	stw	ra,12(sp)
 2001f64:	df000215 	stw	fp,8(sp)
 2001f68:	df000204 	addi	fp,sp,8
 2001f6c:	e13fff15 	stw	r4,-4(fp)
    bool bSuccess;
    
    // clear fifo
    SPI_Init(device_base);
 2001f70:	e13fff17 	ldw	r4,-4(fp)
 2001f74:	20030bc0 	call	20030bc <SPI_Init>
   
    // 3-wire spi
    bSuccess = SPI_Write(device_base, ADXL345_REG_DATA_FORMAT, XL345_SPI3WIRE);
 2001f78:	e13fff17 	ldw	r4,-4(fp)
 2001f7c:	01400c44 	movi	r5,49
 2001f80:	01801004 	movi	r6,64
 2001f84:	200322c0 	call	200322c <SPI_Write>
 2001f88:	e0bffe15 	stw	r2,-8(fp)
 
    // clear fifo   
    SPI_Init(device_base);
 2001f8c:	e13fff17 	ldw	r4,-4(fp)
 2001f90:	20030bc0 	call	20030bc <SPI_Init>
        
    //Output Data Rate: 40Hz
    if (bSuccess){
 2001f94:	e0bffe17 	ldw	r2,-8(fp)
 2001f98:	10000526 	beq	r2,zero,2001fb0 <ADXL345_SPI_Init+0x54>
        bSuccess = SPI_Write(device_base, ADXL345_REG_BW_RATE, XL345_RATE_400); // 400 MHZ
 2001f9c:	e13fff17 	ldw	r4,-4(fp)
 2001fa0:	01400b04 	movi	r5,44
 2001fa4:	01800304 	movi	r6,12
 2001fa8:	200322c0 	call	200322c <SPI_Write>
 2001fac:	e0bffe15 	stw	r2,-8(fp)
    }
    
            
        
    //INT_Enable: Data Ready
    if (bSuccess){   
 2001fb0:	e0bffe17 	ldw	r2,-8(fp)
 2001fb4:	10000526 	beq	r2,zero,2001fcc <ADXL345_SPI_Init+0x70>
        bSuccess = SPI_Write(device_base, ADXL345_REG_INT_ENALBE, XL345_DATAREADY);
 2001fb8:	e13fff17 	ldw	r4,-4(fp)
 2001fbc:	01400b84 	movi	r5,46
 2001fc0:	01802004 	movi	r6,128
 2001fc4:	200322c0 	call	200322c <SPI_Write>
 2001fc8:	e0bffe15 	stw	r2,-8(fp)
    }
    
    // stop measure
    if (bSuccess){
 2001fcc:	e0bffe17 	ldw	r2,-8(fp)
 2001fd0:	10000526 	beq	r2,zero,2001fe8 <ADXL345_SPI_Init+0x8c>
        bSuccess = SPI_Write(device_base, ADXL345_REG_POWER_CTL, XL345_STANDBY);
 2001fd4:	e13fff17 	ldw	r4,-4(fp)
 2001fd8:	01400b44 	movi	r5,45
 2001fdc:	000d883a 	mov	r6,zero
 2001fe0:	200322c0 	call	200322c <SPI_Write>
 2001fe4:	e0bffe15 	stw	r2,-8(fp)
    }

    // start measure
    if (bSuccess){
 2001fe8:	e0bffe17 	ldw	r2,-8(fp)
 2001fec:	10000526 	beq	r2,zero,2002004 <ADXL345_SPI_Init+0xa8>
        bSuccess = SPI_Write(device_base, ADXL345_REG_POWER_CTL, XL345_MEASURE);
 2001ff0:	e13fff17 	ldw	r4,-4(fp)
 2001ff4:	01400b44 	movi	r5,45
 2001ff8:	01800204 	movi	r6,8
 2001ffc:	200322c0 	call	200322c <SPI_Write>
 2002000:	e0bffe15 	stw	r2,-8(fp)
        
    }
    
            
    return bSuccess;    
 2002004:	e0bffe17 	ldw	r2,-8(fp)
        
}
 2002008:	e037883a 	mov	sp,fp
 200200c:	dfc00117 	ldw	ra,4(sp)
 2002010:	df000017 	ldw	fp,0(sp)
 2002014:	dec00204 	addi	sp,sp,8
 2002018:	f800283a 	ret

0200201c <ADXL345_SPI_WaitDataReady>:


    
bool ADXL345_SPI_WaitDataReady(alt_u32 device_base){
 200201c:	defffa04 	addi	sp,sp,-24
 2002020:	dfc00515 	stw	ra,20(sp)
 2002024:	df000415 	stw	fp,16(sp)
 2002028:	dc000315 	stw	r16,12(sp)
 200202c:	df000304 	addi	fp,sp,12
 2002030:	e13fff15 	stw	r4,-4(fp)
 2002034:	008080b4 	movhi	r2,514
 2002038:	1080d104 	addi	r2,r2,836
 200203c:	10800017 	ldw	r2,0(r2)
    bool bDataReady;
    alt_u32 TimeStart;
    
    TimeStart = alt_nticks();
 2002040:	e0bffd15 	stw	r2,-12(fp)
    do{
        bDataReady = ADXL345_SPI_IsDataReady(device_base);
 2002044:	e13fff17 	ldw	r4,-4(fp)
 2002048:	20020b80 	call	20020b8 <ADXL345_SPI_IsDataReady>
 200204c:	e0bffe15 	stw	r2,-8(fp)
        if (!bDataReady)
 2002050:	e0bffe17 	ldw	r2,-8(fp)
 2002054:	1000021e 	bne	r2,zero,2002060 <ADXL345_SPI_WaitDataReady+0x44>
            usleep(500); 
 2002058:	01007d04 	movi	r4,500
 200205c:	200fbd40 	call	200fbd4 <usleep>
    }while (!bDataReady && ( (alt_nticks() - TimeStart) < DATA_READY_TIMEOUT) );
 2002060:	e0bffe17 	ldw	r2,-8(fp)
 2002064:	10000d1e 	bne	r2,zero,200209c <ADXL345_SPI_WaitDataReady+0x80>
 2002068:	008080b4 	movhi	r2,514
 200206c:	1080d104 	addi	r2,r2,836
 2002070:	10800017 	ldw	r2,0(r2)
 2002074:	1007883a 	mov	r3,r2
 2002078:	e0bffd17 	ldw	r2,-12(fp)
 200207c:	18a1c83a 	sub	r16,r3,r2
 * Obtain the system clock rate in ticks/s. 
 */

static ALT_INLINE alt_u32 ALT_ALWAYS_INLINE alt_ticks_per_second (void)
{
  return _alt_tick_rate;
 2002080:	008080b4 	movhi	r2,514
 2002084:	1080d004 	addi	r2,r2,832
 2002088:	10800017 	ldw	r2,0(r2)
 200208c:	1009883a 	mov	r4,r2
 2002090:	014000c4 	movi	r5,3
 2002094:	2004a480 	call	2004a48 <__udivsi3>
 2002098:	80bfea36 	bltu	r16,r2,2002044 <ADXL345_SPI_WaitDataReady+0x28>
    
    return bDataReady;
 200209c:	e0bffe17 	ldw	r2,-8(fp)
        
}    
 20020a0:	e037883a 	mov	sp,fp
 20020a4:	dfc00217 	ldw	ra,8(sp)
 20020a8:	df000117 	ldw	fp,4(sp)
 20020ac:	dc000017 	ldw	r16,0(sp)
 20020b0:	dec00304 	addi	sp,sp,12
 20020b4:	f800283a 	ret

020020b8 <ADXL345_SPI_IsDataReady>:

bool ADXL345_SPI_IsDataReady(alt_u32 device_base){
 20020b8:	defffb04 	addi	sp,sp,-20
 20020bc:	dfc00415 	stw	ra,16(sp)
 20020c0:	df000315 	stw	fp,12(sp)
 20020c4:	df000304 	addi	fp,sp,12
 20020c8:	e13fff15 	stw	r4,-4(fp)
    bool bReady = FALSE;
 20020cc:	e03ffd15 	stw	zero,-12(fp)
    alt_u8 data8;
    
    if (SPI_Read(device_base, ADXL345_REG_INT_SOURCE,&data8)){
 20020d0:	e0bffe04 	addi	r2,fp,-8
 20020d4:	e13fff17 	ldw	r4,-4(fp)
 20020d8:	01400c04 	movi	r5,48
 20020dc:	100d883a 	mov	r6,r2
 20020e0:	20033b80 	call	20033b8 <SPI_Read>
 20020e4:	10000726 	beq	r2,zero,2002104 <ADXL345_SPI_IsDataReady+0x4c>
        if (data8 & XL345_DATAREADY)
 20020e8:	e0bffe03 	ldbu	r2,-8(fp)
 20020ec:	10803fcc 	andi	r2,r2,255
 20020f0:	1080201c 	xori	r2,r2,128
 20020f4:	10bfe004 	addi	r2,r2,-128
 20020f8:	1000020e 	bge	r2,zero,2002104 <ADXL345_SPI_IsDataReady+0x4c>
            bReady = TRUE;
 20020fc:	00800044 	movi	r2,1
 2002100:	e0bffd15 	stw	r2,-12(fp)
    }            
    
    return bReady;
 2002104:	e0bffd17 	ldw	r2,-12(fp)
}
 2002108:	e037883a 	mov	sp,fp
 200210c:	dfc00117 	ldw	ra,4(sp)
 2002110:	df000017 	ldw	fp,0(sp)
 2002114:	dec00204 	addi	sp,sp,8
 2002118:	f800283a 	ret

0200211c <ADXL345_SPI_XYZ_Read>:



bool ADXL345_SPI_XYZ_Read(alt_u32 device_base, alt_u16 szData16[3]){
 200211c:	defff904 	addi	sp,sp,-28
 2002120:	dfc00615 	stw	ra,24(sp)
 2002124:	df000515 	stw	fp,20(sp)
 2002128:	df000504 	addi	fp,sp,20
 200212c:	e13ffe15 	stw	r4,-8(fp)
 2002130:	e17fff15 	stw	r5,-4(fp)
    bool bPass;
    alt_u8 szData8[6];
    bPass = SPI_MultipleRead(device_base, 0x32, (alt_u8 *)&szData8, sizeof(szData8));
 2002134:	e0bffc04 	addi	r2,fp,-16
 2002138:	e13ffe17 	ldw	r4,-8(fp)
 200213c:	01400c84 	movi	r5,50
 2002140:	100d883a 	mov	r6,r2
 2002144:	01c00184 	movi	r7,6
 2002148:	20032800 	call	2003280 <SPI_MultipleRead>
 200214c:	e0bffb15 	stw	r2,-20(fp)
    if (bPass){
 2002150:	e0bffb17 	ldw	r2,-20(fp)
 2002154:	10001e26 	beq	r2,zero,20021d0 <ADXL345_SPI_XYZ_Read+0xb4>
        szData16[0] = (szData8[1] << 8) | szData8[0]; 
 2002158:	e0bffc43 	ldbu	r2,-15(fp)
 200215c:	10803fcc 	andi	r2,r2,255
 2002160:	1004923a 	slli	r2,r2,8
 2002164:	1007883a 	mov	r3,r2
 2002168:	e0bffc03 	ldbu	r2,-16(fp)
 200216c:	10803fcc 	andi	r2,r2,255
 2002170:	1884b03a 	or	r2,r3,r2
 2002174:	1007883a 	mov	r3,r2
 2002178:	e0bfff17 	ldw	r2,-4(fp)
 200217c:	10c0000d 	sth	r3,0(r2)
        szData16[1] = (szData8[3] << 8) | szData8[2];
 2002180:	e0bfff17 	ldw	r2,-4(fp)
 2002184:	10800084 	addi	r2,r2,2
 2002188:	e0fffcc3 	ldbu	r3,-13(fp)
 200218c:	18c03fcc 	andi	r3,r3,255
 2002190:	1806923a 	slli	r3,r3,8
 2002194:	1809883a 	mov	r4,r3
 2002198:	e0fffc83 	ldbu	r3,-14(fp)
 200219c:	18c03fcc 	andi	r3,r3,255
 20021a0:	20c6b03a 	or	r3,r4,r3
 20021a4:	10c0000d 	sth	r3,0(r2)
        szData16[2] = (szData8[5] << 8) | szData8[4];
 20021a8:	e0bfff17 	ldw	r2,-4(fp)
 20021ac:	10800104 	addi	r2,r2,4
 20021b0:	e0fffd43 	ldbu	r3,-11(fp)
 20021b4:	18c03fcc 	andi	r3,r3,255
 20021b8:	1806923a 	slli	r3,r3,8
 20021bc:	1809883a 	mov	r4,r3
 20021c0:	e0fffd03 	ldbu	r3,-12(fp)
 20021c4:	18c03fcc 	andi	r3,r3,255
 20021c8:	20c6b03a 	or	r3,r4,r3
 20021cc:	10c0000d 	sth	r3,0(r2)
    }        
    
    return bPass;
 20021d0:	e0bffb17 	ldw	r2,-20(fp)
}
 20021d4:	e037883a 	mov	sp,fp
 20021d8:	dfc00117 	ldw	ra,4(sp)
 20021dc:	df000017 	ldw	fp,0(sp)
 20021e0:	dec00204 	addi	sp,sp,8
 20021e4:	f800283a 	ret

020021e8 <ADXL345_SPI_IdRead>:

bool ADXL345_SPI_IdRead(alt_u32 device_base, alt_u8 *pId){
 20021e8:	defffb04 	addi	sp,sp,-20
 20021ec:	dfc00415 	stw	ra,16(sp)
 20021f0:	df000315 	stw	fp,12(sp)
 20021f4:	df000304 	addi	fp,sp,12
 20021f8:	e13ffe15 	stw	r4,-8(fp)
 20021fc:	e17fff15 	stw	r5,-4(fp)
    bool bPass;
    bPass = SPI_Read(device_base, ADXL345_REG_DEVID, pId);
 2002200:	e13ffe17 	ldw	r4,-8(fp)
 2002204:	000b883a 	mov	r5,zero
 2002208:	e1bfff17 	ldw	r6,-4(fp)
 200220c:	20033b80 	call	20033b8 <SPI_Read>
 2002210:	e0bffd15 	stw	r2,-12(fp)
    
    return bPass;
 2002214:	e0bffd17 	ldw	r2,-12(fp)
}
 2002218:	e037883a 	mov	sp,fp
 200221c:	dfc00117 	ldw	ra,4(sp)
 2002220:	df000017 	ldw	fp,0(sp)
 2002224:	dec00204 	addi	sp,sp,8
 2002228:	f800283a 	ret

0200222c <ADC_Read>:
#include "adc_spi_read.h"

#define START_FLAG  0x8000
#define DONE_FLAG   0x8000

alt_u16 ADC_Read(alt_u8 NextChannel){
 200222c:	defff904 	addi	sp,sp,-28
 2002230:	dfc00615 	stw	ra,24(sp)
 2002234:	df000515 	stw	fp,20(sp)
 2002238:	df000504 	addi	fp,sp,20
 200223c:	2005883a 	mov	r2,r4
 2002240:	e0bfff05 	stb	r2,-4(fp)
    alt_u16 Data16, DigitalValue = 0;
 2002244:	e03ffb8d 	sth	zero,-18(fp)
    bool bDone = FALSE;
 2002248:	e03ffc15 	stw	zero,-16(fp)
    const int nMaxWait = 1000;
 200224c:	0080fa04 	movi	r2,1000
 2002250:	e0bffe15 	stw	r2,-8(fp)
    int nWaitCnt = 0;
 2002254:	e03ffd15 	stw	zero,-12(fp)
    
    // start
    Data16 = NextChannel;
 2002258:	e0bfff03 	ldbu	r2,-4(fp)
 200225c:	e0bffb0d 	sth	r2,-20(fp)
    IOWR(ADC_SPI_READ_BASE, 0, Data16);
 2002260:	e0fffb0b 	ldhu	r3,-20(fp)
 2002264:	00818034 	movhi	r2,1536
 2002268:	10845e04 	addi	r2,r2,4472
 200226c:	10c00035 	stwio	r3,0(r2)
    Data16 |= START_FLAG;
 2002270:	e0fffb0b 	ldhu	r3,-20(fp)
 2002274:	00a00004 	movi	r2,-32768
 2002278:	1884b03a 	or	r2,r3,r2
 200227c:	e0bffb0d 	sth	r2,-20(fp)
    IOWR(ADC_SPI_READ_BASE, 0, Data16);
 2002280:	e0fffb0b 	ldhu	r3,-20(fp)
 2002284:	00818034 	movhi	r2,1536
 2002288:	10845e04 	addi	r2,r2,4472
 200228c:	10c00035 	stwio	r3,0(r2)
    usleep(10000); // wait 10ms
 2002290:	0109c404 	movi	r4,10000
 2002294:	200fbd40 	call	200fbd4 <usleep>
    
    // wait done
    while(!bDone && nWaitCnt++ <= nMaxWait){
 2002298:	00000906 	br	20022c0 <ADC_Read+0x94>
        Data16 = IORD(ADC_SPI_READ_BASE,0);
 200229c:	00818034 	movhi	r2,1536
 20022a0:	10845e04 	addi	r2,r2,4472
 20022a4:	10800037 	ldwio	r2,0(r2)
 20022a8:	e0bffb0d 	sth	r2,-20(fp)
        bDone = (Data16 & DONE_FLAG)?TRUE:FALSE;
 20022ac:	e0bffb0b 	ldhu	r2,-20(fp)
 20022b0:	10bfffcc 	andi	r2,r2,65535
 20022b4:	1004d3fa 	srli	r2,r2,15
 20022b8:	10803fcc 	andi	r2,r2,255
 20022bc:	e0bffc15 	stw	r2,-16(fp)
    Data16 |= START_FLAG;
    IOWR(ADC_SPI_READ_BASE, 0, Data16);
    usleep(10000); // wait 10ms
    
    // wait done
    while(!bDone && nWaitCnt++ <= nMaxWait){
 20022c0:	e0bffc17 	ldw	r2,-16(fp)
 20022c4:	1000081e 	bne	r2,zero,20022e8 <ADC_Read+0xbc>
 20022c8:	e0bffd17 	ldw	r2,-12(fp)
 20022cc:	e0fffe17 	ldw	r3,-8(fp)
 20022d0:	1884403a 	cmpge	r2,r3,r2
 20022d4:	e0fffd17 	ldw	r3,-12(fp)
 20022d8:	18c00044 	addi	r3,r3,1
 20022dc:	e0fffd15 	stw	r3,-12(fp)
 20022e0:	10803fcc 	andi	r2,r2,255
 20022e4:	103fed1e 	bne	r2,zero,200229c <ADC_Read+0x70>
        Data16 = IORD(ADC_SPI_READ_BASE,0);
        bDone = (Data16 & DONE_FLAG)?TRUE:FALSE;
    }
    
    if (bDone)
 20022e8:	e0bffc17 	ldw	r2,-16(fp)
 20022ec:	10000326 	beq	r2,zero,20022fc <ADC_Read+0xd0>
        DigitalValue = Data16 & 0xFFF; // 12 bits
 20022f0:	e0bffb0b 	ldhu	r2,-20(fp)
 20022f4:	1083ffcc 	andi	r2,r2,4095
 20022f8:	e0bffb8d 	sth	r2,-18(fp)
    
    // stop
    IOWR(ADC_SPI_READ_BASE, 0, 0);
 20022fc:	0007883a 	mov	r3,zero
 2002300:	00818034 	movhi	r2,1536
 2002304:	10845e04 	addi	r2,r2,4472
 2002308:	10c00035 	stwio	r3,0(r2)
    
    return DigitalValue;
 200230c:	e0bffb8b 	ldhu	r2,-18(fp)
}
 2002310:	e037883a 	mov	sp,fp
 2002314:	dfc00117 	ldw	ra,4(sp)
 2002318:	df000017 	ldw	fp,0(sp)
 200231c:	dec00204 	addi	sp,sp,8
 2002320:	f800283a 	ret

02002324 <Flash_InfoDump>:
    int number_of_regions_flash;
}FLASH_INFO;



bool Flash_InfoDump(char *pFlashName){
 2002324:	defff304 	addi	sp,sp,-52
 2002328:	dfc00c15 	stw	ra,48(sp)
 200232c:	df000b15 	stw	fp,44(sp)
 2002330:	df000b04 	addi	fp,sp,44
 2002334:	e13fff15 	stw	r4,-4(fp)
    bool bSuccess = FALSE;
 2002338:	e03ff515 	stw	zero,-44(fp)
    alt_flash_fd* fd;
    int number_of_regions;
    int ret_code;
    /* Set write_data to all 0xa */
    FLASH_DEBUG(("Flash_InfoDump\r\n"));
    fd = alt_flash_open_dev(pFlashName);
 200233c:	e13fff17 	ldw	r4,-4(fp)
 2002340:	200f09c0 	call	200f09c <alt_flash_open_dev>
 2002344:	e0bff815 	stw	r2,-32(fp)
    if (fd){
 2002348:	e0bff817 	ldw	r2,-32(fp)
 200234c:	10002026 	beq	r2,zero,20023d0 <Flash_InfoDump+0xac>
 2002350:	e0bff817 	ldw	r2,-32(fp)
 2002354:	e0bffa15 	stw	r2,-24(fp)
        ret_code = alt_get_flash_info(fd,&regions,&number_of_regions);
 2002358:	e0bffd04 	addi	r2,fp,-12
 200235c:	e0bffb15 	stw	r2,-20(fp)
 2002360:	e0bffe04 	addi	r2,fp,-8
 2002364:	e0bffc15 	stw	r2,-16(fp)
 */
static __inline__ int __attribute__ ((always_inline)) alt_get_flash_info( 
                                      alt_flash_fd* fd, flash_region** info, 
                                      int* number_of_regions)
{
  return fd->get_info( fd, info, number_of_regions);
 2002368:	e0bffa17 	ldw	r2,-24(fp)
 200236c:	10800717 	ldw	r2,28(r2)
 2002370:	e13ffa17 	ldw	r4,-24(fp)
 2002374:	e17ffb17 	ldw	r5,-20(fp)
 2002378:	e1bffc17 	ldw	r6,-16(fp)
 200237c:	103ee83a 	callr	r2
 2002380:	e0bff915 	stw	r2,-28(fp)
        if (ret_code == 0){
 2002384:	e0bff917 	ldw	r2,-28(fp)
 2002388:	10000f1e 	bne	r2,zero,20023c8 <Flash_InfoDump+0xa4>
            int i;
            bSuccess = TRUE;
 200238c:	00800044 	movi	r2,1
 2002390:	e0bff515 	stw	r2,-44(fp)
            nextreg = regions;
 2002394:	e0bffd17 	ldw	r2,-12(fp)
 2002398:	e0bff615 	stw	r2,-40(fp)
            FLASH_DEBUG(("number_of_regsion:%d\r\n", number_of_regions));
            for(i=0;i<number_of_regions;i++){
 200239c:	e03ff715 	stw	zero,-36(fp)
 20023a0:	00000606 	br	20023bc <Flash_InfoDump+0x98>
                FLASH_DEBUG(("regsion[%d]\r\n", i));
                FLASH_DEBUG(("  offset:%d\r\n", nextreg->offset));
                FLASH_DEBUG(("  region_size:%d\r\n", nextreg->region_size));
                FLASH_DEBUG(("  number_of_blocks:%d\r\n", nextreg->number_of_blocks));
                FLASH_DEBUG(("  block_size;:%d\r\n", nextreg->block_size));
                nextreg++;
 20023a4:	e0bff617 	ldw	r2,-40(fp)
 20023a8:	10800404 	addi	r2,r2,16
 20023ac:	e0bff615 	stw	r2,-40(fp)
        if (ret_code == 0){
            int i;
            bSuccess = TRUE;
            nextreg = regions;
            FLASH_DEBUG(("number_of_regsion:%d\r\n", number_of_regions));
            for(i=0;i<number_of_regions;i++){
 20023b0:	e0bff717 	ldw	r2,-36(fp)
 20023b4:	10800044 	addi	r2,r2,1
 20023b8:	e0bff715 	stw	r2,-36(fp)
 20023bc:	e0bffe17 	ldw	r2,-8(fp)
 20023c0:	e0fff717 	ldw	r3,-36(fp)
 20023c4:	18bff716 	blt	r3,r2,20023a4 <Flash_InfoDump+0x80>
                nextreg++;
            }                
        }else{
            FLASH_DEBUG(("alt_get_flash_info error, ret_code:%d fail\r\n", ret_code));
        }
        alt_flash_close_dev(fd);
 20023c8:	e13ff817 	ldw	r4,-32(fp)
 20023cc:	200f1040 	call	200f104 <alt_flash_close_dev>
    }
    
    if (!bSuccess)        
        FLASH_DEBUG(("Flash_InfoDump fail\r\n"));

    return bSuccess;
 20023d0:	e0bff517 	ldw	r2,-44(fp)
    
}
 20023d4:	e037883a 	mov	sp,fp
 20023d8:	dfc00117 	ldw	ra,4(sp)
 20023dc:	df000017 	ldw	fp,0(sp)
 20023e0:	dec00204 	addi	sp,sp,8
 20023e4:	f800283a 	ret

020023e8 <Flash_Open>:



FLASH_HANDLE Flash_Open(char *pFlashName){
 20023e8:	defff704 	addi	sp,sp,-36
 20023ec:	dfc00815 	stw	ra,32(sp)
 20023f0:	df000715 	stw	fp,28(sp)
 20023f4:	df000704 	addi	fp,sp,28
 20023f8:	e13fff15 	stw	r4,-4(fp)
    int error_code;
    bool bSuccess = FALSE;
 20023fc:	e03ff915 	stw	zero,-28(fp)
    FLASH_INFO *pFlash=NULL;
 2002400:	e03ffa15 	stw	zero,-24(fp)
    
    pFlash = (FLASH_INFO *)malloc(sizeof(FLASH_INFO));
 2002404:	01000304 	movi	r4,12
 2002408:	200546c0 	call	200546c <malloc>
 200240c:	e0bffa15 	stw	r2,-24(fp)
    pFlash->fd_flash = alt_flash_open_dev(pFlashName);
 2002410:	e13fff17 	ldw	r4,-4(fp)
 2002414:	200f09c0 	call	200f09c <alt_flash_open_dev>
 2002418:	e0fffa17 	ldw	r3,-24(fp)
 200241c:	18800015 	stw	r2,0(r3)
    if (pFlash->fd_flash){
 2002420:	e0bffa17 	ldw	r2,-24(fp)
 2002424:	10800017 	ldw	r2,0(r2)
 2002428:	10001426 	beq	r2,zero,200247c <Flash_Open+0x94>
        error_code = alt_get_flash_info(pFlash->fd_flash,&pFlash->regions_flash,&pFlash->number_of_regions_flash);
 200242c:	e0bffa17 	ldw	r2,-24(fp)
 2002430:	11000017 	ldw	r4,0(r2)
 2002434:	e0bffa17 	ldw	r2,-24(fp)
 2002438:	10c00104 	addi	r3,r2,4
 200243c:	e0bffa17 	ldw	r2,-24(fp)
 2002440:	10800204 	addi	r2,r2,8
 2002444:	e13ffc15 	stw	r4,-16(fp)
 2002448:	e0fffd15 	stw	r3,-12(fp)
 200244c:	e0bffe15 	stw	r2,-8(fp)
 2002450:	e0bffc17 	ldw	r2,-16(fp)
 2002454:	10800717 	ldw	r2,28(r2)
 2002458:	e13ffc17 	ldw	r4,-16(fp)
 200245c:	e17ffd17 	ldw	r5,-12(fp)
 2002460:	e1bffe17 	ldw	r6,-8(fp)
 2002464:	103ee83a 	callr	r2
 2002468:	e0bffb15 	stw	r2,-20(fp)
        if (error_code == 0){
 200246c:	e0bffb17 	ldw	r2,-20(fp)
 2002470:	1000021e 	bne	r2,zero,200247c <Flash_Open+0x94>
            bSuccess = TRUE;
 2002474:	00800044 	movi	r2,1
 2002478:	e0bff915 	stw	r2,-28(fp)
        }            
    }
    
    if (!bSuccess){
 200247c:	e0bff917 	ldw	r2,-28(fp)
 2002480:	1000031e 	bne	r2,zero,2002490 <Flash_Open+0xa8>
        free(pFlash);
 2002484:	e13ffa17 	ldw	r4,-24(fp)
 2002488:	20054800 	call	2005480 <free>
        pFlash= NULL;
 200248c:	e03ffa15 	stw	zero,-24(fp)
    }        
    return pFlash;
 2002490:	e0bffa17 	ldw	r2,-24(fp)
            
}
 2002494:	e037883a 	mov	sp,fp
 2002498:	dfc00117 	ldw	ra,4(sp)
 200249c:	df000017 	ldw	fp,0(sp)
 20024a0:	dec00204 	addi	sp,sp,8
 20024a4:	f800283a 	ret

020024a8 <Flash_Close>:

bool Flash_Close(FLASH_HANDLE Handle){
 20024a8:	defffc04 	addi	sp,sp,-16
 20024ac:	dfc00315 	stw	ra,12(sp)
 20024b0:	df000215 	stw	fp,8(sp)
 20024b4:	df000204 	addi	fp,sp,8
 20024b8:	e13fff15 	stw	r4,-4(fp)
    FLASH_INFO *pFlash = (FLASH_INFO *)Handle;
 20024bc:	e0bfff17 	ldw	r2,-4(fp)
 20024c0:	e0bffe15 	stw	r2,-8(fp)
    if (pFlash->fd_flash){
 20024c4:	e0bffe17 	ldw	r2,-8(fp)
 20024c8:	10800017 	ldw	r2,0(r2)
 20024cc:	10000426 	beq	r2,zero,20024e0 <Flash_Close+0x38>
        alt_flash_close_dev(pFlash->fd_flash);
 20024d0:	e0bffe17 	ldw	r2,-8(fp)
 20024d4:	10800017 	ldw	r2,0(r2)
 20024d8:	1009883a 	mov	r4,r2
 20024dc:	200f1040 	call	200f104 <alt_flash_close_dev>
    }
    free(Handle);
 20024e0:	e13fff17 	ldw	r4,-4(fp)
 20024e4:	20054800 	call	2005480 <free>
    return TRUE;
 20024e8:	00800044 	movi	r2,1
}
 20024ec:	e037883a 	mov	sp,fp
 20024f0:	dfc00117 	ldw	ra,4(sp)
 20024f4:	df000017 	ldw	fp,0(sp)
 20024f8:	dec00204 	addi	sp,sp,8
 20024fc:	f800283a 	ret

02002500 <Flash_GetBlockInfo>:

bool Flash_GetBlockInfo(FLASH_HANDLE Handle, alt_u16 block_index, alt_32 *poffset, alt_32 *psize){
 2002500:	defff304 	addi	sp,sp,-52
 2002504:	df000c15 	stw	fp,48(sp)
 2002508:	df000c04 	addi	fp,sp,48
 200250c:	e13ffc15 	stw	r4,-16(fp)
 2002510:	2805883a 	mov	r2,r5
 2002514:	e1bffe15 	stw	r6,-8(fp)
 2002518:	e1ffff15 	stw	r7,-4(fp)
 200251c:	e0bffd0d 	sth	r2,-12(fp)
    FLASH_INFO *pFlash = (FLASH_INFO *)Handle;
 2002520:	e0bffc17 	ldw	r2,-16(fp)
 2002524:	e0bffb15 	stw	r2,-20(fp)
    alt_u32 offset=0, length;        
 2002528:	e03ff415 	stw	zero,-48(fp)
    int r, i, block_count=0;
 200252c:	e03ff815 	stw	zero,-32(fp)
    flash_region *nextreg = pFlash->regions_flash;
 2002530:	e0bffb17 	ldw	r2,-20(fp)
 2002534:	10800117 	ldw	r2,4(r2)
 2002538:	e0bff915 	stw	r2,-28(fp)
    bool bFind = FALSE;
 200253c:	e03ffa15 	stw	zero,-24(fp)
    
    if (!pFlash->fd_flash)
 2002540:	e0bffb17 	ldw	r2,-20(fp)
 2002544:	10800017 	ldw	r2,0(r2)
 2002548:	1000021e 	bne	r2,zero,2002554 <Flash_GetBlockInfo+0x54>
        return FALSE;
 200254c:	0005883a 	mov	r2,zero
 2002550:	00003106 	br	2002618 <Flash_GetBlockInfo+0x118>
    
    
    for(r=0;r<pFlash->number_of_regions_flash && !bFind;r++){
 2002554:	e03ff615 	stw	zero,-40(fp)
 2002558:	00002006 	br	20025dc <Flash_GetBlockInfo+0xdc>
        for(i=0;i<nextreg->number_of_blocks;i++){
 200255c:	e03ff715 	stw	zero,-36(fp)
 2002560:	00001406 	br	20025b4 <Flash_GetBlockInfo+0xb4>
            if (block_count == block_index){
 2002564:	e0fffd0b 	ldhu	r3,-12(fp)
 2002568:	e0bff817 	ldw	r2,-32(fp)
 200256c:	1880061e 	bne	r3,r2,2002588 <Flash_GetBlockInfo+0x88>
                bFind = TRUE;
 2002570:	00800044 	movi	r2,1
 2002574:	e0bffa15 	stw	r2,-24(fp)
                length = nextreg->block_size;
 2002578:	e0bff917 	ldw	r2,-28(fp)
 200257c:	10800317 	ldw	r2,12(r2)
 2002580:	e0bff515 	stw	r2,-44(fp)
 2002584:	00000806 	br	20025a8 <Flash_GetBlockInfo+0xa8>
            }else{
                offset += nextreg->block_size;
 2002588:	e0bff917 	ldw	r2,-28(fp)
 200258c:	10800317 	ldw	r2,12(r2)
 2002590:	e0fff417 	ldw	r3,-48(fp)
 2002594:	1885883a 	add	r2,r3,r2
 2002598:	e0bff415 	stw	r2,-48(fp)
                block_count++;
 200259c:	e0bff817 	ldw	r2,-32(fp)
 20025a0:	10800044 	addi	r2,r2,1
 20025a4:	e0bff815 	stw	r2,-32(fp)
    if (!pFlash->fd_flash)
        return FALSE;
    
    
    for(r=0;r<pFlash->number_of_regions_flash && !bFind;r++){
        for(i=0;i<nextreg->number_of_blocks;i++){
 20025a8:	e0bff717 	ldw	r2,-36(fp)
 20025ac:	10800044 	addi	r2,r2,1
 20025b0:	e0bff715 	stw	r2,-36(fp)
 20025b4:	e0bff917 	ldw	r2,-28(fp)
 20025b8:	10800217 	ldw	r2,8(r2)
 20025bc:	e0fff717 	ldw	r3,-36(fp)
 20025c0:	18bfe816 	blt	r3,r2,2002564 <Flash_GetBlockInfo+0x64>
            }else{
                offset += nextreg->block_size;
                block_count++;
            }
        }
        nextreg++;
 20025c4:	e0bff917 	ldw	r2,-28(fp)
 20025c8:	10800404 	addi	r2,r2,16
 20025cc:	e0bff915 	stw	r2,-28(fp)
    
    if (!pFlash->fd_flash)
        return FALSE;
    
    
    for(r=0;r<pFlash->number_of_regions_flash && !bFind;r++){
 20025d0:	e0bff617 	ldw	r2,-40(fp)
 20025d4:	10800044 	addi	r2,r2,1
 20025d8:	e0bff615 	stw	r2,-40(fp)
 20025dc:	e0bffb17 	ldw	r2,-20(fp)
 20025e0:	10800217 	ldw	r2,8(r2)
 20025e4:	e0fff617 	ldw	r3,-40(fp)
 20025e8:	1880020e 	bge	r3,r2,20025f4 <Flash_GetBlockInfo+0xf4>
 20025ec:	e0bffa17 	ldw	r2,-24(fp)
 20025f0:	103fda26 	beq	r2,zero,200255c <Flash_GetBlockInfo+0x5c>
                block_count++;
            }
        }
        nextreg++;
    }    
    if (bFind){
 20025f4:	e0bffa17 	ldw	r2,-24(fp)
 20025f8:	10000626 	beq	r2,zero,2002614 <Flash_GetBlockInfo+0x114>
        *poffset = offset;
 20025fc:	e0fff417 	ldw	r3,-48(fp)
 2002600:	e0bffe17 	ldw	r2,-8(fp)
 2002604:	10c00015 	stw	r3,0(r2)
        *psize = length;
 2002608:	e0fff517 	ldw	r3,-44(fp)
 200260c:	e0bfff17 	ldw	r2,-4(fp)
 2002610:	10c00015 	stw	r3,0(r2)
    }
    
    return bFind;
 2002614:	e0bffa17 	ldw	r2,-24(fp)
    
}
 2002618:	e037883a 	mov	sp,fp
 200261c:	df000017 	ldw	fp,0(sp)
 2002620:	dec00104 	addi	sp,sp,4
 2002624:	f800283a 	ret

02002628 <Flash_Read>:

bool Flash_Read(FLASH_HANDLE Handle, alt_u32 offset, alt_u8 *szBuf, alt_u32 size){
 2002628:	defff404 	addi	sp,sp,-48
 200262c:	dfc00b15 	stw	ra,44(sp)
 2002630:	df000a15 	stw	fp,40(sp)
 2002634:	df000a04 	addi	fp,sp,40
 2002638:	e13ffc15 	stw	r4,-16(fp)
 200263c:	e17ffd15 	stw	r5,-12(fp)
 2002640:	e1bffe15 	stw	r6,-8(fp)
 2002644:	e1ffff15 	stw	r7,-4(fp)
    FLASH_INFO *pFlash = (FLASH_INFO *)Handle;
 2002648:	e0bffc17 	ldw	r2,-16(fp)
 200264c:	e0bff615 	stw	r2,-40(fp)
    int error_code;
    if (!pFlash->fd_flash)
 2002650:	e0bff617 	ldw	r2,-40(fp)
 2002654:	10800017 	ldw	r2,0(r2)
 2002658:	1000021e 	bne	r2,zero,2002664 <Flash_Read+0x3c>
        return FALSE;
 200265c:	0005883a 	mov	r2,zero
 2002660:	00001606 	br	20026bc <Flash_Read+0x94>
    error_code = alt_read_flash(pFlash->fd_flash, offset, szBuf, size);
 2002664:	e0bff617 	ldw	r2,-40(fp)
 2002668:	11000017 	ldw	r4,0(r2)
 200266c:	e0fffd17 	ldw	r3,-12(fp)
 2002670:	e0bfff17 	ldw	r2,-4(fp)
 2002674:	e13ff815 	stw	r4,-32(fp)
 2002678:	e0fff915 	stw	r3,-28(fp)
 200267c:	e0fffe17 	ldw	r3,-8(fp)
 2002680:	e0fffa15 	stw	r3,-24(fp)
 2002684:	e0bffb15 	stw	r2,-20(fp)
 */
static __inline__ int __attribute__ ((always_inline)) alt_read_flash( 
                                      alt_flash_fd* fd, int offset, 
                                      void* dest_addr, int length )
{
  return fd->read( fd, offset, dest_addr, length );
 2002688:	e0bff817 	ldw	r2,-32(fp)
 200268c:	10800617 	ldw	r2,24(r2)
 2002690:	e13ff817 	ldw	r4,-32(fp)
 2002694:	e17ff917 	ldw	r5,-28(fp)
 2002698:	e1bffa17 	ldw	r6,-24(fp)
 200269c:	e1fffb17 	ldw	r7,-20(fp)
 20026a0:	103ee83a 	callr	r2
 20026a4:	e0bff715 	stw	r2,-36(fp)
    if (error_code == 0)
 20026a8:	e0bff717 	ldw	r2,-36(fp)
 20026ac:	1000021e 	bne	r2,zero,20026b8 <Flash_Read+0x90>
        return TRUE;
 20026b0:	00800044 	movi	r2,1
 20026b4:	00000106 	br	20026bc <Flash_Read+0x94>
    return FALSE;                    
 20026b8:	0005883a 	mov	r2,zero
    
}
 20026bc:	e037883a 	mov	sp,fp
 20026c0:	dfc00117 	ldw	ra,4(sp)
 20026c4:	df000017 	ldw	fp,0(sp)
 20026c8:	dec00204 	addi	sp,sp,8
 20026cc:	f800283a 	ret

020026d0 <Flash_Write>:

bool Flash_Write(FLASH_HANDLE Handle, alt_u32 offset, alt_u8 *szData, alt_u32 size){
 20026d0:	deffe904 	addi	sp,sp,-92
 20026d4:	dfc01615 	stw	ra,88(sp)
 20026d8:	df001515 	stw	fp,84(sp)
 20026dc:	df001504 	addi	fp,sp,84
 20026e0:	e13ffc15 	stw	r4,-16(fp)
 20026e4:	e17ffd15 	stw	r5,-12(fp)
 20026e8:	e1bffe15 	stw	r6,-8(fp)
 20026ec:	e1ffff15 	stw	r7,-4(fp)
    FLASH_INFO *pFlash = (FLASH_INFO *)Handle;
 20026f0:	e0bffc17 	ldw	r2,-16(fp)
 20026f4:	e0bff315 	stw	r2,-52(fp)
    bool bSuccess = TRUE;
 20026f8:	00800044 	movi	r2,1
 20026fc:	e0bfec15 	stw	r2,-80(fp)
    int error_code;
    
    if (!pFlash->fd_flash)
 2002700:	e0bff317 	ldw	r2,-52(fp)
 2002704:	10800017 	ldw	r2,0(r2)
 2002708:	1000021e 	bne	r2,zero,2002714 <Flash_Write+0x44>
        return FALSE;
 200270c:	0005883a 	mov	r2,zero
 2002710:	00007606 	br	20028ec <Flash_Write+0x21c>
    }else{
        FLASH_DEBUG(("alt_write_flash fail, error_code=%d\r\n", error_code));
    }    
#else
    int block_offset, block_size, write_count, this_write_size, r, i;//, first_offset;        
    flash_region *nextreg = pFlash->regions_flash;
 2002714:	e0bff317 	ldw	r2,-52(fp)
 2002718:	10800117 	ldw	r2,4(r2)
 200271c:	e0bff215 	stw	r2,-56(fp)

    
    block_offset = 0;
 2002720:	e03fed15 	stw	zero,-76(fp)
    write_count = 0;
 2002724:	e03fee15 	stw	zero,-72(fp)
    for(r=0;r<pFlash->number_of_regions_flash && bSuccess;r++){
 2002728:	e03ff015 	stw	zero,-64(fp)
 200272c:	00006806 	br	20028d0 <Flash_Write+0x200>
        for(i=0;i<nextreg->number_of_blocks && bSuccess;i++){
 2002730:	e03ff115 	stw	zero,-60(fp)
 2002734:	00005a06 	br	20028a0 <Flash_Write+0x1d0>
            block_size = nextreg->block_size;
 2002738:	e0bff217 	ldw	r2,-56(fp)
 200273c:	10800317 	ldw	r2,12(r2)
 2002740:	e0bff415 	stw	r2,-48(fp)
//            FLASH_DEBUG(("block_offset=%d, block_size=%d\r\n", block_offset, block_size));
//            if ((offset >= block_offset) && ((offset+size) <= (block_offset + block_size))){
            if (((offset+write_count) >= block_offset) && (write_count < size)){
 2002744:	e0ffee17 	ldw	r3,-72(fp)
 2002748:	e0bffd17 	ldw	r2,-12(fp)
 200274c:	1887883a 	add	r3,r3,r2
 2002750:	e0bfed17 	ldw	r2,-76(fp)
 2002754:	18804b36 	bltu	r3,r2,2002884 <Flash_Write+0x1b4>
 2002758:	e0ffee17 	ldw	r3,-72(fp)
 200275c:	e0bfff17 	ldw	r2,-4(fp)
 2002760:	1880482e 	bgeu	r3,r2,2002884 <Flash_Write+0x1b4>
                // write
                this_write_size = size - write_count;
 2002764:	e0bfee17 	ldw	r2,-72(fp)
 2002768:	e0ffff17 	ldw	r3,-4(fp)
 200276c:	1885c83a 	sub	r2,r3,r2
 2002770:	e0bfef15 	stw	r2,-68(fp)
                if (write_count == 0){
 2002774:	e0bfee17 	ldw	r2,-72(fp)
 2002778:	1000101e 	bne	r2,zero,20027bc <Flash_Write+0xec>
                    // first block
                    if (this_write_size > (block_offset + block_size - offset))
 200277c:	e0bfef17 	ldw	r2,-68(fp)
 2002780:	e13fed17 	ldw	r4,-76(fp)
 2002784:	e0fff417 	ldw	r3,-48(fp)
 2002788:	20c7883a 	add	r3,r4,r3
 200278c:	1809883a 	mov	r4,r3
 2002790:	e0fffd17 	ldw	r3,-12(fp)
 2002794:	20c7c83a 	sub	r3,r4,r3
 2002798:	18800d2e 	bgeu	r3,r2,20027d0 <Flash_Write+0x100>
                        this_write_size = block_offset + block_size - offset;
 200279c:	e0ffed17 	ldw	r3,-76(fp)
 20027a0:	e0bff417 	ldw	r2,-48(fp)
 20027a4:	1885883a 	add	r2,r3,r2
 20027a8:	1007883a 	mov	r3,r2
 20027ac:	e0bffd17 	ldw	r2,-12(fp)
 20027b0:	1885c83a 	sub	r2,r3,r2
 20027b4:	e0bfef15 	stw	r2,-68(fp)
 20027b8:	00000506 	br	20027d0 <Flash_Write+0x100>
                }else{
                    // block aligement
                    if (this_write_size > block_size)
 20027bc:	e0bfef17 	ldw	r2,-68(fp)
 20027c0:	e0fff417 	ldw	r3,-48(fp)
 20027c4:	1880020e 	bge	r3,r2,20027d0 <Flash_Write+0x100>
                        this_write_size = block_size;
 20027c8:	e0bff417 	ldw	r2,-48(fp)
 20027cc:	e0bfef15 	stw	r2,-68(fp)
                }        
                error_code = alt_write_flash_block(pFlash->fd_flash, block_offset, offset+write_count, szData+write_count, this_write_size);
 20027d0:	e0bff317 	ldw	r2,-52(fp)
 20027d4:	11000017 	ldw	r4,0(r2)
 20027d8:	e0ffee17 	ldw	r3,-72(fp)
 20027dc:	e0bffd17 	ldw	r2,-12(fp)
 20027e0:	1885883a 	add	r2,r3,r2
 20027e4:	1007883a 	mov	r3,r2
 20027e8:	e0bfee17 	ldw	r2,-72(fp)
 20027ec:	e17ffe17 	ldw	r5,-8(fp)
 20027f0:	2885883a 	add	r2,r5,r2
 20027f4:	e13ff615 	stw	r4,-40(fp)
 20027f8:	e13fed17 	ldw	r4,-76(fp)
 20027fc:	e13ff715 	stw	r4,-36(fp)
 2002800:	e0fff815 	stw	r3,-32(fp)
 2002804:	e0bff915 	stw	r2,-28(fp)
 2002808:	e0bfef17 	ldw	r2,-68(fp)
 200280c:	e0bffa15 	stw	r2,-24(fp)
                                      int data_offset,
                                      const void *data, int length)
{

  int ret_code;
  ret_code = fd->write_block( fd, block_offset, data_offset, data, length );
 2002810:	e0bff617 	ldw	r2,-40(fp)
 2002814:	10800917 	ldw	r2,36(r2)
 2002818:	e0fffa17 	ldw	r3,-24(fp)
 200281c:	d8c00015 	stw	r3,0(sp)
 2002820:	e13ff617 	ldw	r4,-40(fp)
 2002824:	e17ff717 	ldw	r5,-36(fp)
 2002828:	e1bff817 	ldw	r6,-32(fp)
 200282c:	e1fff917 	ldw	r7,-28(fp)
 2002830:	103ee83a 	callr	r2
 2002834:	e0bffb15 	stw	r2,-20(fp)

  if(!ret_code)
 2002838:	e0bffb17 	ldw	r2,-20(fp)
 200283c:	1000081e 	bne	r2,zero,2002860 <Flash_Write+0x190>
      alt_dcache_flush((alt_u8*)fd->base_addr + data_offset, length);
 2002840:	e0bff617 	ldw	r2,-40(fp)
 2002844:	10c00a17 	ldw	r3,40(r2)
 2002848:	e0bff817 	ldw	r2,-32(fp)
 200284c:	1887883a 	add	r3,r3,r2
 2002850:	e0bffa17 	ldw	r2,-24(fp)
 2002854:	1809883a 	mov	r4,r3
 2002858:	100b883a 	mov	r5,r2
 200285c:	200efec0 	call	200efec <alt_dcache_flush>

  return ret_code;
 2002860:	e0bffb17 	ldw	r2,-20(fp)
 2002864:	e0bff515 	stw	r2,-44(fp)
                //FLASH_DEBUG(("alt_write_flash_block, block_offset:%d, offset:%d, len:%d, this block_size:%d\r\n", block_offset, offset+write_count, this_write_size, block_size));
                if (error_code != 0){
 2002868:	e0bff517 	ldw	r2,-44(fp)
 200286c:	10000126 	beq	r2,zero,2002874 <Flash_Write+0x1a4>
                    bSuccess = FALSE;
 2002870:	e03fec15 	stw	zero,-80(fp)
                    FLASH_DEBUG(("alt_write_flash_block fail, error_code=%d\r\n", error_code));
                }    
                write_count += this_write_size;
 2002874:	e0ffee17 	ldw	r3,-72(fp)
 2002878:	e0bfef17 	ldw	r2,-68(fp)
 200287c:	1885883a 	add	r2,r3,r2
 2002880:	e0bfee15 	stw	r2,-72(fp)
            }
            block_offset += block_size;
 2002884:	e0ffed17 	ldw	r3,-76(fp)
 2002888:	e0bff417 	ldw	r2,-48(fp)
 200288c:	1885883a 	add	r2,r3,r2
 2002890:	e0bfed15 	stw	r2,-76(fp)

    
    block_offset = 0;
    write_count = 0;
    for(r=0;r<pFlash->number_of_regions_flash && bSuccess;r++){
        for(i=0;i<nextreg->number_of_blocks && bSuccess;i++){
 2002894:	e0bff117 	ldw	r2,-60(fp)
 2002898:	10800044 	addi	r2,r2,1
 200289c:	e0bff115 	stw	r2,-60(fp)
 20028a0:	e0bff217 	ldw	r2,-56(fp)
 20028a4:	10800217 	ldw	r2,8(r2)
 20028a8:	e0fff117 	ldw	r3,-60(fp)
 20028ac:	1880020e 	bge	r3,r2,20028b8 <Flash_Write+0x1e8>
 20028b0:	e0bfec17 	ldw	r2,-80(fp)
 20028b4:	103fa01e 	bne	r2,zero,2002738 <Flash_Write+0x68>
                }    
                write_count += this_write_size;
            }
            block_offset += block_size;
        }
        nextreg++;
 20028b8:	e0bff217 	ldw	r2,-56(fp)
 20028bc:	10800404 	addi	r2,r2,16
 20028c0:	e0bff215 	stw	r2,-56(fp)
    flash_region *nextreg = pFlash->regions_flash;

    
    block_offset = 0;
    write_count = 0;
    for(r=0;r<pFlash->number_of_regions_flash && bSuccess;r++){
 20028c4:	e0bff017 	ldw	r2,-64(fp)
 20028c8:	10800044 	addi	r2,r2,1
 20028cc:	e0bff015 	stw	r2,-64(fp)
 20028d0:	e0bff317 	ldw	r2,-52(fp)
 20028d4:	10800217 	ldw	r2,8(r2)
 20028d8:	e0fff017 	ldw	r3,-64(fp)
 20028dc:	1880020e 	bge	r3,r2,20028e8 <Flash_Write+0x218>
 20028e0:	e0bfec17 	ldw	r2,-80(fp)
 20028e4:	103f921e 	bne	r2,zero,2002730 <Flash_Write+0x60>
    error_code = alt_write_flash(fd_flash, offset, szData, size); // it will erase flash block content before write data
//    error_code = alt_write_flash_block(fd_flash, offset, offset+size, szData, size); // it will preserve flash content
    if (error_code == 0)
        return TRUE;
*/        
    return bSuccess;                    
 20028e8:	e0bfec17 	ldw	r2,-80(fp)
}
 20028ec:	e037883a 	mov	sp,fp
 20028f0:	dfc00117 	ldw	ra,4(sp)
 20028f4:	df000017 	ldw	fp,0(sp)
 20028f8:	dec00204 	addi	sp,sp,8
 20028fc:	f800283a 	ret

02002900 <Flash_Erase>:

bool Flash_Erase(FLASH_HANDLE Handle, alt_u16 block_index){
 2002900:	defff304 	addi	sp,sp,-52
 2002904:	dfc00c15 	stw	ra,48(sp)
 2002908:	df000b15 	stw	fp,44(sp)
 200290c:	df000b04 	addi	fp,sp,44
 2002910:	e13ffe15 	stw	r4,-8(fp)
 2002914:	2805883a 	mov	r2,r5
 2002918:	e0bfff0d 	sth	r2,-4(fp)
    FLASH_INFO *pFlash = (FLASH_INFO *)Handle;
 200291c:	e0bffe17 	ldw	r2,-8(fp)
 2002920:	e0bff615 	stw	r2,-40(fp)
    if (!pFlash->fd_flash)
 2002924:	e0bff617 	ldw	r2,-40(fp)
 2002928:	10800017 	ldw	r2,0(r2)
 200292c:	1000021e 	bne	r2,zero,2002938 <Flash_Erase+0x38>
        return FALSE;
 2002930:	0005883a 	mov	r2,zero
 2002934:	00002806 	br	20029d8 <Flash_Erase+0xd8>
    alt_u32 offset;
    alt_u32 length;        
    int error_code;
    bool bSuccess = FALSE;
 2002938:	e03ff515 	stw	zero,-44(fp)

    
    if (Flash_GetBlockInfo(Handle, block_index, &offset, &length)){
 200293c:	e17fff0b 	ldhu	r5,-4(fp)
 2002940:	e0fffc04 	addi	r3,fp,-16
 2002944:	e0bffd04 	addi	r2,fp,-12
 2002948:	e13ffe17 	ldw	r4,-8(fp)
 200294c:	180d883a 	mov	r6,r3
 2002950:	100f883a 	mov	r7,r2
 2002954:	20025000 	call	2002500 <Flash_GetBlockInfo>
 2002958:	10001e26 	beq	r2,zero,20029d4 <Flash_Erase+0xd4>
        error_code = alt_erase_flash_block(pFlash->fd_flash, offset, length);
 200295c:	e0bff617 	ldw	r2,-40(fp)
 2002960:	11000017 	ldw	r4,0(r2)
 2002964:	e0bffc17 	ldw	r2,-16(fp)
 2002968:	1007883a 	mov	r3,r2
 200296c:	e0bffd17 	ldw	r2,-12(fp)
 2002970:	e13ff815 	stw	r4,-32(fp)
 2002974:	e0fff915 	stw	r3,-28(fp)
 2002978:	e0bffa15 	stw	r2,-24(fp)
 */
static __inline__ int __attribute__ ((always_inline)) alt_erase_flash_block( 
                                      alt_flash_fd* fd, int offset, int length) 
{
  int ret_code;
  ret_code = fd->erase_block( fd, offset );
 200297c:	e0bff817 	ldw	r2,-32(fp)
 2002980:	10800817 	ldw	r2,32(r2)
 2002984:	e13ff817 	ldw	r4,-32(fp)
 2002988:	e17ff917 	ldw	r5,-28(fp)
 200298c:	103ee83a 	callr	r2
 2002990:	e0bffb15 	stw	r2,-20(fp)
  
  if(!ret_code)
 2002994:	e0bffb17 	ldw	r2,-20(fp)
 2002998:	1000081e 	bne	r2,zero,20029bc <Flash_Erase+0xbc>
      alt_dcache_flush((alt_u8*)fd->base_addr + offset, length);
 200299c:	e0bff817 	ldw	r2,-32(fp)
 20029a0:	10c00a17 	ldw	r3,40(r2)
 20029a4:	e0bff917 	ldw	r2,-28(fp)
 20029a8:	1887883a 	add	r3,r3,r2
 20029ac:	e0bffa17 	ldw	r2,-24(fp)
 20029b0:	1809883a 	mov	r4,r3
 20029b4:	100b883a 	mov	r5,r2
 20029b8:	200efec0 	call	200efec <alt_dcache_flush>

  return ret_code;
 20029bc:	e0bffb17 	ldw	r2,-20(fp)
 20029c0:	e0bff715 	stw	r2,-36(fp)
        //DEBUG_FLASH("Erase block[%d], offset=%Xh, lenght=%Xh", block_no, offset, length);
        if (error_code == 0)
 20029c4:	e0bff717 	ldw	r2,-36(fp)
 20029c8:	1000021e 	bne	r2,zero,20029d4 <Flash_Erase+0xd4>
            bSuccess = TRUE;
 20029cc:	00800044 	movi	r2,1
 20029d0:	e0bff515 	stw	r2,-44(fp)
    }        
    
    return bSuccess;    
 20029d4:	e0bff517 	ldw	r2,-44(fp)
}
 20029d8:	e037883a 	mov	sp,fp
 20029dc:	dfc00117 	ldw	ra,4(sp)
 20029e0:	df000017 	ldw	fp,0(sp)
 20029e4:	dec00204 	addi	sp,sp,8
 20029e8:	f800283a 	ret

020029ec <Flash_GetBlockCount>:

alt_u16 Flash_GetBlockCount(FLASH_HANDLE Handle){
 20029ec:	defffa04 	addi	sp,sp,-24
 20029f0:	df000515 	stw	fp,20(sp)
 20029f4:	df000504 	addi	fp,sp,20
 20029f8:	e13fff15 	stw	r4,-4(fp)
    FLASH_INFO *pFlash = (FLASH_INFO *)Handle;    
 20029fc:	e0bfff17 	ldw	r2,-4(fp)
 2002a00:	e0bffe15 	stw	r2,-8(fp)
    alt_u16 no=0;
 2002a04:	e03ffb0d 	sth	zero,-20(fp)
    flash_region *nextreg = pFlash->regions_flash;
 2002a08:	e0bffe17 	ldw	r2,-8(fp)
 2002a0c:	10800117 	ldw	r2,4(r2)
 2002a10:	e0bffc15 	stw	r2,-16(fp)
    int r;
    for(r=0;r<pFlash->number_of_regions_flash;r++){
 2002a14:	e03ffd15 	stw	zero,-12(fp)
 2002a18:	00000c06 	br	2002a4c <Flash_GetBlockCount+0x60>
        no += nextreg->number_of_blocks;
 2002a1c:	e0bffc17 	ldw	r2,-16(fp)
 2002a20:	10800217 	ldw	r2,8(r2)
 2002a24:	1007883a 	mov	r3,r2
 2002a28:	e0bffb0b 	ldhu	r2,-20(fp)
 2002a2c:	1885883a 	add	r2,r3,r2
 2002a30:	e0bffb0d 	sth	r2,-20(fp)
        nextreg++;
 2002a34:	e0bffc17 	ldw	r2,-16(fp)
 2002a38:	10800404 	addi	r2,r2,16
 2002a3c:	e0bffc15 	stw	r2,-16(fp)
alt_u16 Flash_GetBlockCount(FLASH_HANDLE Handle){
    FLASH_INFO *pFlash = (FLASH_INFO *)Handle;    
    alt_u16 no=0;
    flash_region *nextreg = pFlash->regions_flash;
    int r;
    for(r=0;r<pFlash->number_of_regions_flash;r++){
 2002a40:	e0bffd17 	ldw	r2,-12(fp)
 2002a44:	10800044 	addi	r2,r2,1
 2002a48:	e0bffd15 	stw	r2,-12(fp)
 2002a4c:	e0bffe17 	ldw	r2,-8(fp)
 2002a50:	10800217 	ldw	r2,8(r2)
 2002a54:	e0fffd17 	ldw	r3,-12(fp)
 2002a58:	18bff016 	blt	r3,r2,2002a1c <Flash_GetBlockCount+0x30>
        no += nextreg->number_of_blocks;
        nextreg++;
    }
    return no;
 2002a5c:	e0bffb0b 	ldhu	r2,-20(fp)
}
 2002a60:	e037883a 	mov	sp,fp
 2002a64:	df000017 	ldw	fp,0(sp)
 2002a68:	dec00104 	addi	sp,sp,4
 2002a6c:	f800283a 	ret

02002a70 <Flash_Size>:


alt_u32 Flash_Size(char *pFlashName){
 2002a70:	defff304 	addi	sp,sp,-52
 2002a74:	dfc00c15 	stw	ra,48(sp)
 2002a78:	df000b15 	stw	fp,44(sp)
 2002a7c:	df000b04 	addi	fp,sp,44
 2002a80:	e13fff15 	stw	r4,-4(fp)
    alt_u32 FlashSize = 0;
 2002a84:	e03ff515 	stw	zero,-44(fp)
    flash_region *regions, *nextreg;
    alt_flash_fd* fd;
    int number_of_regions;
    int ret_code, i;
    /* Set write_data to all 0xa */
    fd = alt_flash_open_dev(pFlashName);
 2002a88:	e13fff17 	ldw	r4,-4(fp)
 2002a8c:	200f09c0 	call	200f09c <alt_flash_open_dev>
 2002a90:	e0bff815 	stw	r2,-32(fp)
    if (fd){
 2002a94:	e0bff817 	ldw	r2,-32(fp)
 2002a98:	10002526 	beq	r2,zero,2002b30 <Flash_Size+0xc0>
 2002a9c:	e0bff817 	ldw	r2,-32(fp)
 2002aa0:	e0bffa15 	stw	r2,-24(fp)
        ret_code = alt_get_flash_info(fd,&regions,&number_of_regions);
 2002aa4:	e0bffd04 	addi	r2,fp,-12
 2002aa8:	e0bffb15 	stw	r2,-20(fp)
 2002aac:	e0bffe04 	addi	r2,fp,-8
 2002ab0:	e0bffc15 	stw	r2,-16(fp)
 */
static __inline__ int __attribute__ ((always_inline)) alt_get_flash_info( 
                                      alt_flash_fd* fd, flash_region** info, 
                                      int* number_of_regions)
{
  return fd->get_info( fd, info, number_of_regions);
 2002ab4:	e0bffa17 	ldw	r2,-24(fp)
 2002ab8:	10800717 	ldw	r2,28(r2)
 2002abc:	e13ffa17 	ldw	r4,-24(fp)
 2002ac0:	e17ffb17 	ldw	r5,-20(fp)
 2002ac4:	e1bffc17 	ldw	r6,-16(fp)
 2002ac8:	103ee83a 	callr	r2
 2002acc:	e0bff915 	stw	r2,-28(fp)
        if (ret_code == 0 && number_of_regions >= 1){
 2002ad0:	e0bff917 	ldw	r2,-28(fp)
 2002ad4:	1000141e 	bne	r2,zero,2002b28 <Flash_Size+0xb8>
 2002ad8:	e0bffe17 	ldw	r2,-8(fp)
 2002adc:	0080120e 	bge	zero,r2,2002b28 <Flash_Size+0xb8>
            nextreg = regions;
 2002ae0:	e0bffd17 	ldw	r2,-12(fp)
 2002ae4:	e0bff615 	stw	r2,-40(fp)
            for(i=0;i<number_of_regions;i++){
 2002ae8:	e03ff715 	stw	zero,-36(fp)
 2002aec:	00000b06 	br	2002b1c <Flash_Size+0xac>
                FlashSize += nextreg->region_size;
 2002af0:	e0bff617 	ldw	r2,-40(fp)
 2002af4:	10800117 	ldw	r2,4(r2)
 2002af8:	e0fff517 	ldw	r3,-44(fp)
 2002afc:	1885883a 	add	r2,r3,r2
 2002b00:	e0bff515 	stw	r2,-44(fp)
                nextreg++;
 2002b04:	e0bff617 	ldw	r2,-40(fp)
 2002b08:	10800404 	addi	r2,r2,16
 2002b0c:	e0bff615 	stw	r2,-40(fp)
    fd = alt_flash_open_dev(pFlashName);
    if (fd){
        ret_code = alt_get_flash_info(fd,&regions,&number_of_regions);
        if (ret_code == 0 && number_of_regions >= 1){
            nextreg = regions;
            for(i=0;i<number_of_regions;i++){
 2002b10:	e0bff717 	ldw	r2,-36(fp)
 2002b14:	10800044 	addi	r2,r2,1
 2002b18:	e0bff715 	stw	r2,-36(fp)
 2002b1c:	e0bffe17 	ldw	r2,-8(fp)
 2002b20:	e0fff717 	ldw	r3,-36(fp)
 2002b24:	18bff216 	blt	r3,r2,2002af0 <Flash_Size+0x80>
                FlashSize += nextreg->region_size;
                nextreg++;
            }
        }
        alt_flash_close_dev(fd);
 2002b28:	e13ff817 	ldw	r4,-32(fp)
 2002b2c:	200f1040 	call	200f104 <alt_flash_close_dev>
    }
    return FlashSize;
 2002b30:	e0bff517 	ldw	r2,-44(fp)
}    
 2002b34:	e037883a 	mov	sp,fp
 2002b38:	dfc00117 	ldw	ra,4(sp)
 2002b3c:	df000017 	ldw	fp,0(sp)
 2002b40:	dec00204 	addi	sp,sp,8
 2002b44:	f800283a 	ret

02002b48 <FLASH_Verify>:



// bQuick=TRUE: just check first and last block 
bool FLASH_Verify(char *pFlashName, alt_u8 InitValue, bool bShowMessage, bool bQuickVerify){
 2002b48:	deffeb04 	addi	sp,sp,-84
 2002b4c:	dfc01415 	stw	ra,80(sp)
 2002b50:	df001315 	stw	fp,76(sp)
 2002b54:	df001304 	addi	fp,sp,76
 2002b58:	e13ffc15 	stw	r4,-16(fp)
 2002b5c:	2805883a 	mov	r2,r5
 2002b60:	e1bffe15 	stw	r6,-8(fp)
 2002b64:	e1ffff15 	stw	r7,-4(fp)
 2002b68:	e0bffd05 	stb	r2,-12(fp)
    bool bPass = TRUE;
 2002b6c:	00800044 	movi	r2,1
 2002b70:	e0bfee15 	stw	r2,-72(fp)
    int i, k, BlockNum;
    FLASH_HANDLE hFlash;
    alt_u32 Offset, Size;
    alt_u8 *pBuf, Cnt;
    const int nBufSize = 8*1024; // 16K
 2002b74:	00880004 	movi	r2,8192
 2002b78:	e0bff615 	stw	r2,-40(fp)
    int nWriteSizeSum, nWriteSize;
    int nReadSizeSum, nReadSize;
    
    hFlash = Flash_Open(pFlashName);
 2002b7c:	e13ffc17 	ldw	r4,-16(fp)
 2002b80:	20023e80 	call	20023e8 <Flash_Open>
 2002b84:	e0bff715 	stw	r2,-36(fp)
    if (!hFlash){
 2002b88:	e0bff717 	ldw	r2,-36(fp)
 2002b8c:	1000071e 	bne	r2,zero,2002bac <FLASH_Verify+0x64>
        if (bShowMessage)
 2002b90:	e0bffe17 	ldw	r2,-8(fp)
 2002b94:	10000326 	beq	r2,zero,2002ba4 <FLASH_Verify+0x5c>
            printf("Failed to open flash.\r\n");
 2002b98:	010080b4 	movhi	r4,514
 2002b9c:	2130de04 	addi	r4,r4,-15496
 2002ba0:	2005d040 	call	2005d04 <puts>
        return FALSE;
 2002ba4:	0005883a 	mov	r2,zero
 2002ba8:	00013f06 	br	20030a8 <FLASH_Verify+0x560>
    }        
        
        
    BlockNum = Flash_GetBlockCount(hFlash);
 2002bac:	e13ff717 	ldw	r4,-36(fp)
 2002bb0:	20029ec0 	call	20029ec <Flash_GetBlockCount>
 2002bb4:	10bfffcc 	andi	r2,r2,65535
 2002bb8:	e0bff815 	stw	r2,-32(fp)
    
    //===== alloc buffer
    pBuf = (alt_u8 *)malloc(nBufSize);
 2002bbc:	e0bff617 	ldw	r2,-40(fp)
 2002bc0:	1009883a 	mov	r4,r2
 2002bc4:	200546c0 	call	200546c <malloc>
 2002bc8:	e0bff915 	stw	r2,-28(fp)
    if (!pBuf){
 2002bcc:	e0bff917 	ldw	r2,-28(fp)
 2002bd0:	1000071e 	bne	r2,zero,2002bf0 <FLASH_Verify+0xa8>
        if (bShowMessage)
 2002bd4:	e0bffe17 	ldw	r2,-8(fp)
 2002bd8:	10000326 	beq	r2,zero,2002be8 <FLASH_Verify+0xa0>
            printf("[Error] Failed to alloc memory.\r\n");
 2002bdc:	010080b4 	movhi	r4,514
 2002be0:	2130e404 	addi	r4,r4,-15472
 2002be4:	2005d040 	call	2005d04 <puts>
        return FALSE;
 2002be8:	0005883a 	mov	r2,zero
 2002bec:	00012e06 	br	20030a8 <FLASH_Verify+0x560>
    }        
    
    
    //===== erase
    for(i=0;i<BlockNum && bPass;i++){
 2002bf0:	e03fef15 	stw	zero,-68(fp)
 2002bf4:	00002206 	br	2002c80 <FLASH_Verify+0x138>
        if (bQuickVerify && (i !=0 )&& (i != (BlockNum-1)))
 2002bf8:	e0bfff17 	ldw	r2,-4(fp)
 2002bfc:	10000626 	beq	r2,zero,2002c18 <FLASH_Verify+0xd0>
 2002c00:	e0bfef17 	ldw	r2,-68(fp)
 2002c04:	10000426 	beq	r2,zero,2002c18 <FLASH_Verify+0xd0>
 2002c08:	e0bff817 	ldw	r2,-32(fp)
 2002c0c:	10ffffc4 	addi	r3,r2,-1
 2002c10:	e0bfef17 	ldw	r2,-68(fp)
 2002c14:	1880161e 	bne	r3,r2,2002c70 <FLASH_Verify+0x128>
            continue;
        bPass = Flash_Erase(hFlash, i);
 2002c18:	e0bfef17 	ldw	r2,-68(fp)
 2002c1c:	10bfffcc 	andi	r2,r2,65535
 2002c20:	e13ff717 	ldw	r4,-36(fp)
 2002c24:	100b883a 	mov	r5,r2
 2002c28:	20029000 	call	2002900 <Flash_Erase>
 2002c2c:	e0bfee15 	stw	r2,-72(fp)
        if (bShowMessage){
 2002c30:	e0bffe17 	ldw	r2,-8(fp)
 2002c34:	10000f26 	beq	r2,zero,2002c74 <FLASH_Verify+0x12c>
            if (!bPass)
 2002c38:	e0bfee17 	ldw	r2,-72(fp)
 2002c3c:	1000061e 	bne	r2,zero,2002c58 <FLASH_Verify+0x110>
                printf("[Error] Failed to erase flash block %d/%d\r\n.\r\n", i, BlockNum);
 2002c40:	010080b4 	movhi	r4,514
 2002c44:	2130ed04 	addi	r4,r4,-15436
 2002c48:	e17fef17 	ldw	r5,-68(fp)
 2002c4c:	e1bff817 	ldw	r6,-32(fp)
 2002c50:	2005c440 	call	2005c44 <printf>
 2002c54:	00000706 	br	2002c74 <FLASH_Verify+0x12c>
            else
                printf("Erase Block %d/%d\r\n", i, BlockNum);
 2002c58:	010080b4 	movhi	r4,514
 2002c5c:	2130f904 	addi	r4,r4,-15388
 2002c60:	e17fef17 	ldw	r5,-68(fp)
 2002c64:	e1bff817 	ldw	r6,-32(fp)
 2002c68:	2005c440 	call	2005c44 <printf>
 2002c6c:	00000106 	br	2002c74 <FLASH_Verify+0x12c>
    
    
    //===== erase
    for(i=0;i<BlockNum && bPass;i++){
        if (bQuickVerify && (i !=0 )&& (i != (BlockNum-1)))
            continue;
 2002c70:	0001883a 	nop
        return FALSE;
    }        
    
    
    //===== erase
    for(i=0;i<BlockNum && bPass;i++){
 2002c74:	e0bfef17 	ldw	r2,-68(fp)
 2002c78:	10800044 	addi	r2,r2,1
 2002c7c:	e0bfef15 	stw	r2,-68(fp)
 2002c80:	e0ffef17 	ldw	r3,-68(fp)
 2002c84:	e0bff817 	ldw	r2,-32(fp)
 2002c88:	1880020e 	bge	r3,r2,2002c94 <FLASH_Verify+0x14c>
 2002c8c:	e0bfee17 	ldw	r2,-72(fp)
 2002c90:	103fd91e 	bne	r2,zero,2002bf8 <FLASH_Verify+0xb0>
                printf("Erase Block %d/%d\r\n", i, BlockNum);
        }            
    }        
    
    //===== write
    if (bPass){
 2002c94:	e0bfee17 	ldw	r2,-72(fp)
 2002c98:	10006726 	beq	r2,zero,2002e38 <FLASH_Verify+0x2f0>
        Cnt = InitValue;
 2002c9c:	e0bffd03 	ldbu	r2,-12(fp)
 2002ca0:	e0bff105 	stb	r2,-60(fp)
        for(i=0;i<BlockNum && bPass;i++){
 2002ca4:	e03fef15 	stw	zero,-68(fp)
 2002ca8:	00005e06 	br	2002e24 <FLASH_Verify+0x2dc>
            if (bQuickVerify && (i !=0 )&& (i != (BlockNum-1)))
 2002cac:	e0bfff17 	ldw	r2,-4(fp)
 2002cb0:	10000626 	beq	r2,zero,2002ccc <FLASH_Verify+0x184>
 2002cb4:	e0bfef17 	ldw	r2,-68(fp)
 2002cb8:	10000426 	beq	r2,zero,2002ccc <FLASH_Verify+0x184>
 2002cbc:	e0bff817 	ldw	r2,-32(fp)
 2002cc0:	10ffffc4 	addi	r3,r2,-1
 2002cc4:	e0bfef17 	ldw	r2,-68(fp)
 2002cc8:	1880501e 	bne	r3,r2,2002e0c <FLASH_Verify+0x2c4>
                continue;
            
            bPass = Flash_GetBlockInfo(hFlash, i, &Offset, &Size);
 2002ccc:	e0bfef17 	ldw	r2,-68(fp)
 2002cd0:	117fffcc 	andi	r5,r2,65535
 2002cd4:	e0fffa04 	addi	r3,fp,-24
 2002cd8:	e0bffb04 	addi	r2,fp,-20
 2002cdc:	e13ff717 	ldw	r4,-36(fp)
 2002ce0:	180d883a 	mov	r6,r3
 2002ce4:	100f883a 	mov	r7,r2
 2002ce8:	20025000 	call	2002500 <Flash_GetBlockInfo>
 2002cec:	e0bfee15 	stw	r2,-72(fp)
            if (!bPass)
 2002cf0:	e0bfee17 	ldw	r2,-72(fp)
 2002cf4:	10004726 	beq	r2,zero,2002e14 <FLASH_Verify+0x2cc>
                continue;
                
            if (bShowMessage)            
 2002cf8:	e0bffe17 	ldw	r2,-8(fp)
 2002cfc:	10000726 	beq	r2,zero,2002d1c <FLASH_Verify+0x1d4>
                printf("Write Block[%d/%d], size=%d\r\n", i, BlockNum, (int)Size);
 2002d00:	e0bffb17 	ldw	r2,-20(fp)
 2002d04:	010080b4 	movhi	r4,514
 2002d08:	2130fe04 	addi	r4,r4,-15368
 2002d0c:	e17fef17 	ldw	r5,-68(fp)
 2002d10:	e1bff817 	ldw	r6,-32(fp)
 2002d14:	100f883a 	mov	r7,r2
 2002d18:	2005c440 	call	2005c44 <printf>
            nWriteSizeSum = 0;
 2002d1c:	e03ff215 	stw	zero,-56(fp)
            while(nWriteSizeSum < Size && bPass){
 2002d20:	00003406 	br	2002df4 <FLASH_Verify+0x2ac>
                // cal write size
                nWriteSize = nBufSize;
 2002d24:	e0bff617 	ldw	r2,-40(fp)
 2002d28:	e0bff315 	stw	r2,-52(fp)
                if (nWriteSize > (Size - nWriteSizeSum))
 2002d2c:	e0bff317 	ldw	r2,-52(fp)
 2002d30:	e13ffb17 	ldw	r4,-20(fp)
 2002d34:	e0fff217 	ldw	r3,-56(fp)
 2002d38:	20c7c83a 	sub	r3,r4,r3
 2002d3c:	1880042e 	bgeu	r3,r2,2002d50 <FLASH_Verify+0x208>
                    nWriteSize = Size - nWriteSizeSum;
 2002d40:	e0fffb17 	ldw	r3,-20(fp)
 2002d44:	e0bff217 	ldw	r2,-56(fp)
 2002d48:	1885c83a 	sub	r2,r3,r2
 2002d4c:	e0bff315 	stw	r2,-52(fp)
                // fill data
                for(k=0;k<nWriteSize;k++){
 2002d50:	e03ff015 	stw	zero,-64(fp)
 2002d54:	00000b06 	br	2002d84 <FLASH_Verify+0x23c>
                    *(pBuf+k) = Cnt++;
 2002d58:	e0bff017 	ldw	r2,-64(fp)
 2002d5c:	e0fff917 	ldw	r3,-28(fp)
 2002d60:	1885883a 	add	r2,r3,r2
 2002d64:	e0fff103 	ldbu	r3,-60(fp)
 2002d68:	10c00005 	stb	r3,0(r2)
 2002d6c:	e0bff103 	ldbu	r2,-60(fp)
 2002d70:	10800044 	addi	r2,r2,1
 2002d74:	e0bff105 	stb	r2,-60(fp)
                // cal write size
                nWriteSize = nBufSize;
                if (nWriteSize > (Size - nWriteSizeSum))
                    nWriteSize = Size - nWriteSizeSum;
                // fill data
                for(k=0;k<nWriteSize;k++){
 2002d78:	e0bff017 	ldw	r2,-64(fp)
 2002d7c:	10800044 	addi	r2,r2,1
 2002d80:	e0bff015 	stw	r2,-64(fp)
 2002d84:	e0fff017 	ldw	r3,-64(fp)
 2002d88:	e0bff317 	ldw	r2,-52(fp)
 2002d8c:	18bff216 	blt	r3,r2,2002d58 <FLASH_Verify+0x210>
                    *(pBuf+k) = Cnt++;
                }                     
                // write data block
                bPass = Flash_Write(hFlash, Offset+nWriteSizeSum, pBuf, nWriteSize);
 2002d90:	e0fffa17 	ldw	r3,-24(fp)
 2002d94:	e0bff217 	ldw	r2,-56(fp)
 2002d98:	1887883a 	add	r3,r3,r2
 2002d9c:	e0bff317 	ldw	r2,-52(fp)
 2002da0:	e13ff717 	ldw	r4,-36(fp)
 2002da4:	180b883a 	mov	r5,r3
 2002da8:	e1bff917 	ldw	r6,-28(fp)
 2002dac:	100f883a 	mov	r7,r2
 2002db0:	20026d00 	call	20026d0 <Flash_Write>
 2002db4:	e0bfee15 	stw	r2,-72(fp)
                if (bShowMessage && !bPass)            
 2002db8:	e0bffe17 	ldw	r2,-8(fp)
 2002dbc:	10000726 	beq	r2,zero,2002ddc <FLASH_Verify+0x294>
 2002dc0:	e0bfee17 	ldw	r2,-72(fp)
 2002dc4:	1000051e 	bne	r2,zero,2002ddc <FLASH_Verify+0x294>
                    printf("[Error] Write Block[%d/%d] NG\r\n", i, BlockNum);
 2002dc8:	010080b4 	movhi	r4,514
 2002dcc:	21310604 	addi	r4,r4,-15336
 2002dd0:	e17fef17 	ldw	r5,-68(fp)
 2002dd4:	e1bff817 	ldw	r6,-32(fp)
 2002dd8:	2005c440 	call	2005c44 <printf>
                //
                usleep(20*1000);
 2002ddc:	01138804 	movi	r4,20000
 2002de0:	200fbd40 	call	200fbd4 <usleep>
                //
                nWriteSizeSum += nWriteSize;
 2002de4:	e0fff217 	ldw	r3,-56(fp)
 2002de8:	e0bff317 	ldw	r2,-52(fp)
 2002dec:	1885883a 	add	r2,r3,r2
 2002df0:	e0bff215 	stw	r2,-56(fp)
                continue;
                
            if (bShowMessage)            
                printf("Write Block[%d/%d], size=%d\r\n", i, BlockNum, (int)Size);
            nWriteSizeSum = 0;
            while(nWriteSizeSum < Size && bPass){
 2002df4:	e0fff217 	ldw	r3,-56(fp)
 2002df8:	e0bffb17 	ldw	r2,-20(fp)
 2002dfc:	1880062e 	bgeu	r3,r2,2002e18 <FLASH_Verify+0x2d0>
 2002e00:	e0bfee17 	ldw	r2,-72(fp)
 2002e04:	103fc71e 	bne	r2,zero,2002d24 <FLASH_Verify+0x1dc>
 2002e08:	00000306 	br	2002e18 <FLASH_Verify+0x2d0>
    //===== write
    if (bPass){
        Cnt = InitValue;
        for(i=0;i<BlockNum && bPass;i++){
            if (bQuickVerify && (i !=0 )&& (i != (BlockNum-1)))
                continue;
 2002e0c:	0001883a 	nop
 2002e10:	00000106 	br	2002e18 <FLASH_Verify+0x2d0>
            
            bPass = Flash_GetBlockInfo(hFlash, i, &Offset, &Size);
            if (!bPass)
                continue;
 2002e14:	0001883a 	nop
    }        
    
    //===== write
    if (bPass){
        Cnt = InitValue;
        for(i=0;i<BlockNum && bPass;i++){
 2002e18:	e0bfef17 	ldw	r2,-68(fp)
 2002e1c:	10800044 	addi	r2,r2,1
 2002e20:	e0bfef15 	stw	r2,-68(fp)
 2002e24:	e0ffef17 	ldw	r3,-68(fp)
 2002e28:	e0bff817 	ldw	r2,-32(fp)
 2002e2c:	1880020e 	bge	r3,r2,2002e38 <FLASH_Verify+0x2f0>
 2002e30:	e0bfee17 	ldw	r2,-72(fp)
 2002e34:	103f9d1e 	bne	r2,zero,2002cac <FLASH_Verify+0x164>
                nWriteSizeSum += nWriteSize;
            }
        }
    }
  
    if (bPass){
 2002e38:	e0bfee17 	ldw	r2,-72(fp)
 2002e3c:	10000626 	beq	r2,zero,2002e58 <FLASH_Verify+0x310>
        if (bShowMessage)      
 2002e40:	e0bffe17 	ldw	r2,-8(fp)
 2002e44:	10000326 	beq	r2,zero,2002e54 <FLASH_Verify+0x30c>
            printf("alt_dcache_flush_all\r\n");
 2002e48:	010080b4 	movhi	r4,514
 2002e4c:	21310e04 	addi	r4,r4,-15304
 2002e50:	2005d040 	call	2005d04 <puts>
        alt_dcache_flush_all();
 2002e54:	200f0100 	call	200f010 <alt_dcache_flush_all>
    }        
      
    //===== read & verify
    if (bPass){
 2002e58:	e0bfee17 	ldw	r2,-72(fp)
 2002e5c:	10008926 	beq	r2,zero,2003084 <FLASH_Verify+0x53c>
        Cnt = InitValue;
 2002e60:	e0bffd03 	ldbu	r2,-12(fp)
 2002e64:	e0bff105 	stb	r2,-60(fp)
        for(i=0;i<BlockNum && bPass;i++){
 2002e68:	e03fef15 	stw	zero,-68(fp)
 2002e6c:	00008006 	br	2003070 <FLASH_Verify+0x528>
            if (bQuickVerify && (i !=0 )&& (i != (BlockNum-1)))
 2002e70:	e0bfff17 	ldw	r2,-4(fp)
 2002e74:	10000626 	beq	r2,zero,2002e90 <FLASH_Verify+0x348>
 2002e78:	e0bfef17 	ldw	r2,-68(fp)
 2002e7c:	10000426 	beq	r2,zero,2002e90 <FLASH_Verify+0x348>
 2002e80:	e0bff817 	ldw	r2,-32(fp)
 2002e84:	10ffffc4 	addi	r3,r2,-1
 2002e88:	e0bfef17 	ldw	r2,-68(fp)
 2002e8c:	1880721e 	bne	r3,r2,2003058 <FLASH_Verify+0x510>
                continue;
            
            bPass = Flash_GetBlockInfo(hFlash, i, &Offset, &Size);
 2002e90:	e0bfef17 	ldw	r2,-68(fp)
 2002e94:	117fffcc 	andi	r5,r2,65535
 2002e98:	e0fffa04 	addi	r3,fp,-24
 2002e9c:	e0bffb04 	addi	r2,fp,-20
 2002ea0:	e13ff717 	ldw	r4,-36(fp)
 2002ea4:	180d883a 	mov	r6,r3
 2002ea8:	100f883a 	mov	r7,r2
 2002eac:	20025000 	call	2002500 <Flash_GetBlockInfo>
 2002eb0:	e0bfee15 	stw	r2,-72(fp)
            if (!bPass){
 2002eb4:	e0bfee17 	ldw	r2,-72(fp)
 2002eb8:	1000071e 	bne	r2,zero,2002ed8 <FLASH_Verify+0x390>
                if (bShowMessage)      
 2002ebc:	e0bffe17 	ldw	r2,-8(fp)
 2002ec0:	10006726 	beq	r2,zero,2003060 <FLASH_Verify+0x518>
                    printf("[Error] Flash_GetBlockInfo at block %d\r\n", i);
 2002ec4:	010080b4 	movhi	r4,514
 2002ec8:	21311404 	addi	r4,r4,-15280
 2002ecc:	e17fef17 	ldw	r5,-68(fp)
 2002ed0:	2005c440 	call	2005c44 <printf>
                continue;
 2002ed4:	00006206 	br	2003060 <FLASH_Verify+0x518>
            }    
            if (bShowMessage)            
 2002ed8:	e0bffe17 	ldw	r2,-8(fp)
 2002edc:	10000726 	beq	r2,zero,2002efc <FLASH_Verify+0x3b4>
                printf("Read Block[%d/%d], size=%d\r\n", i, BlockNum, (int)Size);
 2002ee0:	e0bffb17 	ldw	r2,-20(fp)
 2002ee4:	010080b4 	movhi	r4,514
 2002ee8:	21311f04 	addi	r4,r4,-15236
 2002eec:	e17fef17 	ldw	r5,-68(fp)
 2002ef0:	e1bff817 	ldw	r6,-32(fp)
 2002ef4:	100f883a 	mov	r7,r2
 2002ef8:	2005c440 	call	2005c44 <printf>
            nReadSizeSum = 0;
 2002efc:	e03ff415 	stw	zero,-48(fp)
            while(nReadSizeSum < Size && bPass){
 2002f00:	00004f06 	br	2003040 <FLASH_Verify+0x4f8>
                // cal write size
                nReadSize = nBufSize;
 2002f04:	e0bff617 	ldw	r2,-40(fp)
 2002f08:	e0bff515 	stw	r2,-44(fp)
                if (nReadSize > (Size - nReadSizeSum))
 2002f0c:	e0bff517 	ldw	r2,-44(fp)
 2002f10:	e13ffb17 	ldw	r4,-20(fp)
 2002f14:	e0fff417 	ldw	r3,-48(fp)
 2002f18:	20c7c83a 	sub	r3,r4,r3
 2002f1c:	1880042e 	bgeu	r3,r2,2002f30 <FLASH_Verify+0x3e8>
                    nReadSize = Size - nReadSizeSum;
 2002f20:	e0fffb17 	ldw	r3,-20(fp)
 2002f24:	e0bff417 	ldw	r2,-48(fp)
 2002f28:	1885c83a 	sub	r2,r3,r2
 2002f2c:	e0bff515 	stw	r2,-44(fp)
                    
                // read data block
                bPass = Flash_Read(hFlash, Offset+nReadSizeSum, pBuf, nReadSize);
 2002f30:	e0fffa17 	ldw	r3,-24(fp)
 2002f34:	e0bff417 	ldw	r2,-48(fp)
 2002f38:	1887883a 	add	r3,r3,r2
 2002f3c:	e0bff517 	ldw	r2,-44(fp)
 2002f40:	e13ff717 	ldw	r4,-36(fp)
 2002f44:	180b883a 	mov	r5,r3
 2002f48:	e1bff917 	ldw	r6,-28(fp)
 2002f4c:	100f883a 	mov	r7,r2
 2002f50:	20026280 	call	2002628 <Flash_Read>
 2002f54:	e0bfee15 	stw	r2,-72(fp)
                if (!bPass){
 2002f58:	e0bfee17 	ldw	r2,-72(fp)
 2002f5c:	10000c1e 	bne	r2,zero,2002f90 <FLASH_Verify+0x448>
                    if (bShowMessage)      
 2002f60:	e0bffe17 	ldw	r2,-8(fp)
 2002f64:	10003226 	beq	r2,zero,2003030 <FLASH_Verify+0x4e8>
                        printf("[Error] Flash_Read fail at block-offset %d-%d\r\n", i, (int)Offset+nReadSizeSum);
 2002f68:	e0bffa17 	ldw	r2,-24(fp)
 2002f6c:	1007883a 	mov	r3,r2
 2002f70:	e0bff417 	ldw	r2,-48(fp)
 2002f74:	1885883a 	add	r2,r3,r2
 2002f78:	010080b4 	movhi	r4,514
 2002f7c:	21312704 	addi	r4,r4,-15204
 2002f80:	e17fef17 	ldw	r5,-68(fp)
 2002f84:	100d883a 	mov	r6,r2
 2002f88:	2005c440 	call	2005c44 <printf>
 2002f8c:	00002806 	br	2003030 <FLASH_Verify+0x4e8>
                }else{
                    // verify
                    // verify data
                    for(k=0;k<nReadSize && bPass;k++){
 2002f90:	e03ff015 	stw	zero,-64(fp)
 2002f94:	00002106 	br	200301c <FLASH_Verify+0x4d4>
                        if (*(pBuf+k) != Cnt){
 2002f98:	e0bff017 	ldw	r2,-64(fp)
 2002f9c:	e0fff917 	ldw	r3,-28(fp)
 2002fa0:	1885883a 	add	r2,r3,r2
 2002fa4:	10800003 	ldbu	r2,0(r2)
 2002fa8:	10c03fcc 	andi	r3,r2,255
 2002fac:	e0bff103 	ldbu	r2,-60(fp)
 2002fb0:	18801426 	beq	r3,r2,2003004 <FLASH_Verify+0x4bc>
                            if (bShowMessage)      
 2002fb4:	e0bffe17 	ldw	r2,-8(fp)
 2002fb8:	10001026 	beq	r2,zero,2002ffc <FLASH_Verify+0x4b4>
                                printf("[Error] Verify fail, block:%d, index:%d, read=%Xh, expected=%Xh\r\n", i, nReadSizeSum+k, *(pBuf+k), Cnt);
 2002fbc:	e0fff417 	ldw	r3,-48(fp)
 2002fc0:	e0bff017 	ldw	r2,-64(fp)
 2002fc4:	1887883a 	add	r3,r3,r2
 2002fc8:	e0bff017 	ldw	r2,-64(fp)
 2002fcc:	e13ff917 	ldw	r4,-28(fp)
 2002fd0:	2085883a 	add	r2,r4,r2
 2002fd4:	10800003 	ldbu	r2,0(r2)
 2002fd8:	10803fcc 	andi	r2,r2,255
 2002fdc:	e13ff103 	ldbu	r4,-60(fp)
 2002fe0:	d9000015 	stw	r4,0(sp)
 2002fe4:	010080b4 	movhi	r4,514
 2002fe8:	21313304 	addi	r4,r4,-15156
 2002fec:	e17fef17 	ldw	r5,-68(fp)
 2002ff0:	180d883a 	mov	r6,r3
 2002ff4:	100f883a 	mov	r7,r2
 2002ff8:	2005c440 	call	2005c44 <printf>
                            bPass = FALSE;
 2002ffc:	e03fee15 	stw	zero,-72(fp)
 2003000:	00000306 	br	2003010 <FLASH_Verify+0x4c8>
                        }else{    
                            Cnt++;
 2003004:	e0bff103 	ldbu	r2,-60(fp)
 2003008:	10800044 	addi	r2,r2,1
 200300c:	e0bff105 	stb	r2,-60(fp)
                    if (bShowMessage)      
                        printf("[Error] Flash_Read fail at block-offset %d-%d\r\n", i, (int)Offset+nReadSizeSum);
                }else{
                    // verify
                    // verify data
                    for(k=0;k<nReadSize && bPass;k++){
 2003010:	e0bff017 	ldw	r2,-64(fp)
 2003014:	10800044 	addi	r2,r2,1
 2003018:	e0bff015 	stw	r2,-64(fp)
 200301c:	e0fff017 	ldw	r3,-64(fp)
 2003020:	e0bff517 	ldw	r2,-44(fp)
 2003024:	1880020e 	bge	r3,r2,2003030 <FLASH_Verify+0x4e8>
 2003028:	e0bfee17 	ldw	r2,-72(fp)
 200302c:	103fda1e 	bne	r2,zero,2002f98 <FLASH_Verify+0x450>
                            Cnt++;
                        }
                    }                     
                }                        
                //
                nReadSizeSum += nReadSize;
 2003030:	e0fff417 	ldw	r3,-48(fp)
 2003034:	e0bff517 	ldw	r2,-44(fp)
 2003038:	1885883a 	add	r2,r3,r2
 200303c:	e0bff415 	stw	r2,-48(fp)
                continue;
            }    
            if (bShowMessage)            
                printf("Read Block[%d/%d], size=%d\r\n", i, BlockNum, (int)Size);
            nReadSizeSum = 0;
            while(nReadSizeSum < Size && bPass){
 2003040:	e0fff417 	ldw	r3,-48(fp)
 2003044:	e0bffb17 	ldw	r2,-20(fp)
 2003048:	1880062e 	bgeu	r3,r2,2003064 <FLASH_Verify+0x51c>
 200304c:	e0bfee17 	ldw	r2,-72(fp)
 2003050:	103fac1e 	bne	r2,zero,2002f04 <FLASH_Verify+0x3bc>
 2003054:	00000306 	br	2003064 <FLASH_Verify+0x51c>
    //===== read & verify
    if (bPass){
        Cnt = InitValue;
        for(i=0;i<BlockNum && bPass;i++){
            if (bQuickVerify && (i !=0 )&& (i != (BlockNum-1)))
                continue;
 2003058:	0001883a 	nop
 200305c:	00000106 	br	2003064 <FLASH_Verify+0x51c>
            
            bPass = Flash_GetBlockInfo(hFlash, i, &Offset, &Size);
            if (!bPass){
                if (bShowMessage)      
                    printf("[Error] Flash_GetBlockInfo at block %d\r\n", i);
                continue;
 2003060:	0001883a 	nop
    }        
      
    //===== read & verify
    if (bPass){
        Cnt = InitValue;
        for(i=0;i<BlockNum && bPass;i++){
 2003064:	e0bfef17 	ldw	r2,-68(fp)
 2003068:	10800044 	addi	r2,r2,1
 200306c:	e0bfef15 	stw	r2,-68(fp)
 2003070:	e0ffef17 	ldw	r3,-68(fp)
 2003074:	e0bff817 	ldw	r2,-32(fp)
 2003078:	1880020e 	bge	r3,r2,2003084 <FLASH_Verify+0x53c>
 200307c:	e0bfee17 	ldw	r2,-72(fp)
 2003080:	103f7b1e 	bne	r2,zero,2002e70 <FLASH_Verify+0x328>
                nReadSizeSum += nReadSize;
            }
        }  
    }
    
    if (pBuf)
 2003084:	e0bff917 	ldw	r2,-28(fp)
 2003088:	10000226 	beq	r2,zero,2003094 <FLASH_Verify+0x54c>
        free(pBuf);
 200308c:	e13ff917 	ldw	r4,-28(fp)
 2003090:	20054800 	call	2005480 <free>
    
    if (hFlash)
 2003094:	e0bff717 	ldw	r2,-36(fp)
 2003098:	10000226 	beq	r2,zero,20030a4 <FLASH_Verify+0x55c>
        Flash_Close(hFlash);
 200309c:	e13ff717 	ldw	r4,-36(fp)
 20030a0:	20024a80 	call	20024a8 <Flash_Close>
    
    //
    return bPass;
 20030a4:	e0bfee17 	ldw	r2,-72(fp)
}
 20030a8:	e037883a 	mov	sp,fp
 20030ac:	dfc00117 	ldw	ra,4(sp)
 20030b0:	df000017 	ldw	fp,0(sp)
 20030b4:	dec00204 	addi	sp,sp,8
 20030b8:	f800283a 	ret

020030bc <SPI_Init>:

typedef enum{
        SPI_STATUS_FLAG_DONE = 0x01
}SPI_STATUS_FLAG;

void SPI_Init(alt_u32 spi_base){
 20030bc:	defffe04 	addi	sp,sp,-8
 20030c0:	df000115 	stw	fp,4(sp)
 20030c4:	df000104 	addi	fp,sp,4
 20030c8:	e13fff15 	stw	r4,-4(fp)
    // clear fifo
    IOWR(spi_base, SPI_REG_CTRL_STATUS, 0);
 20030cc:	e0bfff17 	ldw	r2,-4(fp)
 20030d0:	10800104 	addi	r2,r2,4
 20030d4:	0007883a 	mov	r3,zero
 20030d8:	10c00035 	stwio	r3,0(r2)
    IOWR(spi_base, SPI_REG_CTRL_STATUS, SPI_FLAG_CLEAR_FIFO);
 20030dc:	e0bfff17 	ldw	r2,-4(fp)
 20030e0:	10800104 	addi	r2,r2,4
 20030e4:	00c00104 	movi	r3,4
 20030e8:	10c00035 	stwio	r3,0(r2)
    IOWR(spi_base, SPI_REG_CTRL_STATUS, 0);
 20030ec:	e0bfff17 	ldw	r2,-4(fp)
 20030f0:	10800104 	addi	r2,r2,4
 20030f4:	0007883a 	mov	r3,zero
 20030f8:	10c00035 	stwio	r3,0(r2)
   
}
 20030fc:	e037883a 	mov	sp,fp
 2003100:	df000017 	ldw	fp,0(sp)
 2003104:	dec00104 	addi	sp,sp,4
 2003108:	f800283a 	ret

0200310c <SPI_MultipleWrite>:


bool SPI_MultipleWrite(alt_u32 spi_base, alt_u8 RegIndex, alt_u8 szData[], alt_u8 nByteNum){
 200310c:	defff604 	addi	sp,sp,-40
 2003110:	dfc00915 	stw	ra,36(sp)
 2003114:	df000815 	stw	fp,32(sp)
 2003118:	df000804 	addi	fp,sp,32
 200311c:	e13ffc15 	stw	r4,-16(fp)
 2003120:	2807883a 	mov	r3,r5
 2003124:	e1bffe15 	stw	r6,-8(fp)
 2003128:	3805883a 	mov	r2,r7
 200312c:	e0fffd05 	stb	r3,-12(fp)
 2003130:	e0bfff05 	stb	r2,-4(fp)
    alt_u8 Status;
    const int nMaxTry = 100;
 2003134:	00801904 	movi	r2,100
 2003138:	e0bffa15 	stw	r2,-24(fp)
    int nTryCnt = 0;
 200313c:	e03ff815 	stw	zero,-32(fp)
    int i;
    
    // make sure processs is stoped, and set write flag
    IOWR(spi_base, SPI_REG_CTRL_STATUS, 0);
 2003140:	e0bffc17 	ldw	r2,-16(fp)
 2003144:	10800104 	addi	r2,r2,4
 2003148:	0007883a 	mov	r3,zero
 200314c:	10c00035 	stwio	r3,0(r2)
    
    // set register index
    IOWR(spi_base, SPI_REG_INDEX, RegIndex);
 2003150:	e0bffc17 	ldw	r2,-16(fp)
 2003154:	10800204 	addi	r2,r2,8
 2003158:	e0fffd03 	ldbu	r3,-12(fp)
 200315c:	10c00035 	stwio	r3,0(r2)
    
    // write data to fifo
    for(i=0;i<nByteNum;i++)
 2003160:	e03ff915 	stw	zero,-28(fp)
 2003164:	00000a06 	br	2003190 <SPI_MultipleWrite+0x84>
        IOWR(spi_base, SPI_REG_DATA, szData[i]);
 2003168:	e0bffc17 	ldw	r2,-16(fp)
 200316c:	e0fff917 	ldw	r3,-28(fp)
 2003170:	e13ffe17 	ldw	r4,-8(fp)
 2003174:	20c7883a 	add	r3,r4,r3
 2003178:	18c00003 	ldbu	r3,0(r3)
 200317c:	18c03fcc 	andi	r3,r3,255
 2003180:	10c00035 	stwio	r3,0(r2)
    
    // set register index
    IOWR(spi_base, SPI_REG_INDEX, RegIndex);
    
    // write data to fifo
    for(i=0;i<nByteNum;i++)
 2003184:	e0bff917 	ldw	r2,-28(fp)
 2003188:	10800044 	addi	r2,r2,1
 200318c:	e0bff915 	stw	r2,-28(fp)
 2003190:	e0bfff03 	ldbu	r2,-4(fp)
 2003194:	e0fff917 	ldw	r3,-28(fp)
 2003198:	18bff316 	blt	r3,r2,2003168 <SPI_MultipleWrite+0x5c>
        IOWR(spi_base, SPI_REG_DATA, szData[i]);
    
    // start
    IOWR(spi_base, SPI_REG_CTRL_STATUS, SPI_FLAG_STATR);
 200319c:	e0bffc17 	ldw	r2,-16(fp)
 20031a0:	10800104 	addi	r2,r2,4
 20031a4:	00c00044 	movi	r3,1
 20031a8:	10c00035 	stwio	r3,0(r2)
    
    // check status
    usleep(10);
 20031ac:	01000284 	movi	r4,10
 20031b0:	200fbd40 	call	200fbd4 <usleep>
    do{    
        Status = IORD(spi_base, SPI_REG_CTRL_STATUS);
 20031b4:	e0bffc17 	ldw	r2,-16(fp)
 20031b8:	10800104 	addi	r2,r2,4
 20031bc:	10800037 	ldwio	r2,0(r2)
 20031c0:	e0bffb05 	stb	r2,-20(fp)
    }while (!(Status & SPI_STATUS_FLAG_DONE) && (nTryCnt++ < nMaxTry));
 20031c4:	e0bffb03 	ldbu	r2,-20(fp)
 20031c8:	1080004c 	andi	r2,r2,1
 20031cc:	1000081e 	bne	r2,zero,20031f0 <SPI_MultipleWrite+0xe4>
 20031d0:	e0fff817 	ldw	r3,-32(fp)
 20031d4:	e0bffa17 	ldw	r2,-24(fp)
 20031d8:	1884803a 	cmplt	r2,r3,r2
 20031dc:	e0fff817 	ldw	r3,-32(fp)
 20031e0:	18c00044 	addi	r3,r3,1
 20031e4:	e0fff815 	stw	r3,-32(fp)
 20031e8:	10803fcc 	andi	r2,r2,255
 20031ec:	103ff11e 	bne	r2,zero,20031b4 <SPI_MultipleWrite+0xa8>
    
    IOWR(spi_base, SPI_REG_CTRL_STATUS, 0);  //stop
 20031f0:	e0bffc17 	ldw	r2,-16(fp)
 20031f4:	10800104 	addi	r2,r2,4
 20031f8:	0007883a 	mov	r3,zero
 20031fc:	10c00035 	stwio	r3,0(r2)
    
    if (Status & SPI_STATUS_FLAG_DONE)
 2003200:	e0bffb03 	ldbu	r2,-20(fp)
 2003204:	1080004c 	andi	r2,r2,1
 2003208:	10000226 	beq	r2,zero,2003214 <SPI_MultipleWrite+0x108>
        return TRUE;
 200320c:	00800044 	movi	r2,1
 2003210:	00000106 	br	2003218 <SPI_MultipleWrite+0x10c>
    
    return FALSE;
 2003214:	0005883a 	mov	r2,zero
}
 2003218:	e037883a 	mov	sp,fp
 200321c:	dfc00117 	ldw	ra,4(sp)
 2003220:	df000017 	ldw	fp,0(sp)
 2003224:	dec00204 	addi	sp,sp,8
 2003228:	f800283a 	ret

0200322c <SPI_Write>:

bool SPI_Write(alt_u32 spi_base, alt_u8 RegIndex, alt_u8 Value){
 200322c:	defffb04 	addi	sp,sp,-20
 2003230:	dfc00415 	stw	ra,16(sp)
 2003234:	df000315 	stw	fp,12(sp)
 2003238:	df000304 	addi	fp,sp,12
 200323c:	e13ffd15 	stw	r4,-12(fp)
 2003240:	2807883a 	mov	r3,r5
 2003244:	3005883a 	mov	r2,r6
 2003248:	e0fffe05 	stb	r3,-8(fp)
 200324c:	e0bfff05 	stb	r2,-4(fp)
    return SPI_MultipleWrite(spi_base, RegIndex, &Value, 1);
 2003250:	e0fffe03 	ldbu	r3,-8(fp)
 2003254:	e0bfff04 	addi	r2,fp,-4
 2003258:	e13ffd17 	ldw	r4,-12(fp)
 200325c:	180b883a 	mov	r5,r3
 2003260:	100d883a 	mov	r6,r2
 2003264:	01c00044 	movi	r7,1
 2003268:	200310c0 	call	200310c <SPI_MultipleWrite>
}    
 200326c:	e037883a 	mov	sp,fp
 2003270:	dfc00117 	ldw	ra,4(sp)
 2003274:	df000017 	ldw	fp,0(sp)
 2003278:	dec00204 	addi	sp,sp,8
 200327c:	f800283a 	ret

02003280 <SPI_MultipleRead>:

bool SPI_MultipleRead(alt_u32 spi_base, alt_u8 RegIndex, alt_u8 szBuf[], alt_u8 nByteNum){
 2003280:	defff604 	addi	sp,sp,-40
 2003284:	dfc00915 	stw	ra,36(sp)
 2003288:	df000815 	stw	fp,32(sp)
 200328c:	df000804 	addi	fp,sp,32
 2003290:	e13ffc15 	stw	r4,-16(fp)
 2003294:	2807883a 	mov	r3,r5
 2003298:	e1bffe15 	stw	r6,-8(fp)
 200329c:	3805883a 	mov	r2,r7
 20032a0:	e0fffd05 	stb	r3,-12(fp)
 20032a4:	e0bfff05 	stb	r2,-4(fp)
    alt_u8 Status, Value8;
    const int nMaxTry = 100;
 20032a8:	00801904 	movi	r2,100
 20032ac:	e0bffa15 	stw	r2,-24(fp)
    int nTryCnt = 0;
 20032b0:	e03ff815 	stw	zero,-32(fp)
    int i;
    
    // make sure processs is stoped, and set read flag
    IOWR(spi_base, SPI_REG_CTRL_STATUS, SPI_FLGA_REG_READ);
 20032b4:	e0bffc17 	ldw	r2,-16(fp)
 20032b8:	10800104 	addi	r2,r2,4
 20032bc:	00c00084 	movi	r3,2
 20032c0:	10c00035 	stwio	r3,0(r2)
    

    // set register index
    IOWR(spi_base, SPI_REG_INDEX, RegIndex);
 20032c4:	e0bffc17 	ldw	r2,-16(fp)
 20032c8:	10800204 	addi	r2,r2,8
 20032cc:	e0fffd03 	ldbu	r3,-12(fp)
 20032d0:	10c00035 	stwio	r3,0(r2)

    // set read byte count
    IOWR(spi_base, SPI_REG_READ_NUM, nByteNum-1);
 20032d4:	e0bffc17 	ldw	r2,-16(fp)
 20032d8:	10800304 	addi	r2,r2,12
 20032dc:	e0ffff03 	ldbu	r3,-4(fp)
 20032e0:	18ffffc4 	addi	r3,r3,-1
 20032e4:	10c00035 	stwio	r3,0(r2)
    
    // start
    IOWR(spi_base, SPI_REG_CTRL_STATUS, SPI_FLAG_STATR | SPI_FLGA_REG_READ);
 20032e8:	e0bffc17 	ldw	r2,-16(fp)
 20032ec:	10800104 	addi	r2,r2,4
 20032f0:	00c000c4 	movi	r3,3
 20032f4:	10c00035 	stwio	r3,0(r2)
    
    // check status
    usleep(10);
 20032f8:	01000284 	movi	r4,10
 20032fc:	200fbd40 	call	200fbd4 <usleep>
    do{    
        Status = IORD(spi_base, SPI_REG_CTRL_STATUS);
 2003300:	e0bffc17 	ldw	r2,-16(fp)
 2003304:	10800104 	addi	r2,r2,4
 2003308:	10800037 	ldwio	r2,0(r2)
 200330c:	e0bffb05 	stb	r2,-20(fp)
    }while (!(Status & SPI_STATUS_FLAG_DONE) && (nTryCnt++ < nMaxTry));
 2003310:	e0bffb03 	ldbu	r2,-20(fp)
 2003314:	1080004c 	andi	r2,r2,1
 2003318:	1000081e 	bne	r2,zero,200333c <SPI_MultipleRead+0xbc>
 200331c:	e0fff817 	ldw	r3,-32(fp)
 2003320:	e0bffa17 	ldw	r2,-24(fp)
 2003324:	1884803a 	cmplt	r2,r3,r2
 2003328:	e0fff817 	ldw	r3,-32(fp)
 200332c:	18c00044 	addi	r3,r3,1
 2003330:	e0fff815 	stw	r3,-32(fp)
 2003334:	10803fcc 	andi	r2,r2,255
 2003338:	103ff11e 	bne	r2,zero,2003300 <SPI_MultipleRead+0x80>
    
    IOWR(spi_base, SPI_REG_CTRL_STATUS, 0);  //stop
 200333c:	e0bffc17 	ldw	r2,-16(fp)
 2003340:	10800104 	addi	r2,r2,4
 2003344:	0007883a 	mov	r3,zero
 2003348:	10c00035 	stwio	r3,0(r2)
    
    if (Status & SPI_STATUS_FLAG_DONE){
 200334c:	e0bffb03 	ldbu	r2,-20(fp)
 2003350:	1080004c 	andi	r2,r2,1
 2003354:	10001226 	beq	r2,zero,20033a0 <SPI_MultipleRead+0x120>
        for(i=0;i<nByteNum;i++){
 2003358:	e03ff915 	stw	zero,-28(fp)
 200335c:	00000b06 	br	200338c <SPI_MultipleRead+0x10c>
            Value8 = IORD(spi_base, SPI_REG_DATA);
 2003360:	e0bffc17 	ldw	r2,-16(fp)
 2003364:	10800037 	ldwio	r2,0(r2)
 2003368:	e0bffb45 	stb	r2,-19(fp)
            szBuf[i] = Value8;
 200336c:	e0bff917 	ldw	r2,-28(fp)
 2003370:	e0fffe17 	ldw	r3,-8(fp)
 2003374:	1885883a 	add	r2,r3,r2
 2003378:	e0fffb43 	ldbu	r3,-19(fp)
 200337c:	10c00005 	stb	r3,0(r2)
    }while (!(Status & SPI_STATUS_FLAG_DONE) && (nTryCnt++ < nMaxTry));
    
    IOWR(spi_base, SPI_REG_CTRL_STATUS, 0);  //stop
    
    if (Status & SPI_STATUS_FLAG_DONE){
        for(i=0;i<nByteNum;i++){
 2003380:	e0bff917 	ldw	r2,-28(fp)
 2003384:	10800044 	addi	r2,r2,1
 2003388:	e0bff915 	stw	r2,-28(fp)
 200338c:	e0bfff03 	ldbu	r2,-4(fp)
 2003390:	e0fff917 	ldw	r3,-28(fp)
 2003394:	18bff216 	blt	r3,r2,2003360 <SPI_MultipleRead+0xe0>
            Value8 = IORD(spi_base, SPI_REG_DATA);
            szBuf[i] = Value8;
        }
        return TRUE;
 2003398:	00800044 	movi	r2,1
 200339c:	00000106 	br	20033a4 <SPI_MultipleRead+0x124>
    }        
    return FALSE;
 20033a0:	0005883a 	mov	r2,zero
}
 20033a4:	e037883a 	mov	sp,fp
 20033a8:	dfc00117 	ldw	ra,4(sp)
 20033ac:	df000017 	ldw	fp,0(sp)
 20033b0:	dec00204 	addi	sp,sp,8
 20033b4:	f800283a 	ret

020033b8 <SPI_Read>:

bool SPI_Read(alt_u32 spi_base, alt_u8 RegIndex, alt_u8 *pBuf){
 20033b8:	defffb04 	addi	sp,sp,-20
 20033bc:	dfc00415 	stw	ra,16(sp)
 20033c0:	df000315 	stw	fp,12(sp)
 20033c4:	df000304 	addi	fp,sp,12
 20033c8:	e13ffd15 	stw	r4,-12(fp)
 20033cc:	2805883a 	mov	r2,r5
 20033d0:	e1bfff15 	stw	r6,-4(fp)
 20033d4:	e0bffe05 	stb	r2,-8(fp)
    return SPI_MultipleRead(spi_base, RegIndex, pBuf, 1);
 20033d8:	e0bffe03 	ldbu	r2,-8(fp)
 20033dc:	e13ffd17 	ldw	r4,-12(fp)
 20033e0:	100b883a 	mov	r5,r2
 20033e4:	e1bfff17 	ldw	r6,-4(fp)
 20033e8:	01c00044 	movi	r7,1
 20033ec:	20032800 	call	2003280 <SPI_MultipleRead>
}
 20033f0:	e037883a 	mov	sp,fp
 20033f4:	dfc00117 	ldw	ra,4(sp)
 20033f8:	df000017 	ldw	fp,0(sp)
 20033fc:	dec00204 	addi	sp,sp,8
 2003400:	f800283a 	ret

02003404 <init_direction>:
#include "assert.h"

#define TURNING_INTERVAL 0.4


int init_direction(PWM_Motor *direction_motor) {
 2003404:	defffd04 	addi	sp,sp,-12
 2003408:	dfc00215 	stw	ra,8(sp)
 200340c:	df000115 	stw	fp,4(sp)
 2003410:	df000104 	addi	fp,sp,4
 2003414:	e13fff15 	stw	r4,-4(fp)
	// align wheel straight
	set_direction(direction_motor, 0.f);
 2003418:	e13fff17 	ldw	r4,-4(fp)
 200341c:	000b883a 	mov	r5,zero
 2003420:	200343c0 	call	200343c <set_direction>

	return 1;
 2003424:	00800044 	movi	r2,1
}
 2003428:	e037883a 	mov	sp,fp
 200342c:	dfc00117 	ldw	ra,4(sp)
 2003430:	df000017 	ldw	fp,0(sp)
 2003434:	dec00204 	addi	sp,sp,8
 2003438:	f800283a 	ret

0200343c <set_direction>:


int set_direction(PWM_Motor *direction_motor, float direction) {
 200343c:	defffc04 	addi	sp,sp,-16
 2003440:	dfc00315 	stw	ra,12(sp)
 2003444:	df000215 	stw	fp,8(sp)
 2003448:	df000204 	addi	fp,sp,8
 200344c:	e13ffe15 	stw	r4,-8(fp)
 2003450:	e17fff15 	stw	r5,-4(fp)
	// configuring the direction of these motors requires exactly the
	// same settings as setting the speed on the other motors

	set_speed(direction_motor, direction * TURNING_INTERVAL);
 2003454:	e13fff17 	ldw	r4,-4(fp)
 2003458:	2003c700 	call	2003c70 <__extendsfdf2>
 200345c:	100b883a 	mov	r5,r2
 2003460:	180d883a 	mov	r6,r3
 2003464:	2809883a 	mov	r4,r5
 2003468:	300b883a 	mov	r5,r6
 200346c:	01a666b4 	movhi	r6,39322
 2003470:	31a66684 	addi	r6,r6,-26214
 2003474:	01cff6b4 	movhi	r7,16346
 2003478:	39e66644 	addi	r7,r7,-26215
 200347c:	20041900 	call	2004190 <__muldf3>
 2003480:	1009883a 	mov	r4,r2
 2003484:	180b883a 	mov	r5,r3
 2003488:	2005883a 	mov	r2,r4
 200348c:	2807883a 	mov	r3,r5
 2003490:	1009883a 	mov	r4,r2
 2003494:	180b883a 	mov	r5,r3
 2003498:	20048c80 	call	20048c8 <__truncdfsf2>
 200349c:	1007883a 	mov	r3,r2
 20034a0:	e13ffe17 	ldw	r4,-8(fp)
 20034a4:	180b883a 	mov	r5,r3
 20034a8:	200139c0 	call	200139c <set_speed>

	return 1;
 20034ac:	00800044 	movi	r2,1
}
 20034b0:	e037883a 	mov	sp,fp
 20034b4:	dfc00117 	ldw	ra,4(sp)
 20034b8:	df000017 	ldw	fp,0(sp)
 20034bc:	dec00204 	addi	sp,sp,8
 20034c0:	f800283a 	ret

020034c4 <get_direction>:

float get_direction(PWM_Motor *direction_motor) {
 20034c4:	defffd04 	addi	sp,sp,-12
 20034c8:	dfc00215 	stw	ra,8(sp)
 20034cc:	df000115 	stw	fp,4(sp)
 20034d0:	df000104 	addi	fp,sp,4
 20034d4:	e13fff15 	stw	r4,-4(fp)
	return get_speed(direction_motor) / TURNING_INTERVAL;
 20034d8:	e13fff17 	ldw	r4,-4(fp)
 20034dc:	20015740 	call	2001574 <get_speed>
 20034e0:	1007883a 	mov	r3,r2
 20034e4:	1809883a 	mov	r4,r3
 20034e8:	2003c700 	call	2003c70 <__extendsfdf2>
 20034ec:	100b883a 	mov	r5,r2
 20034f0:	180d883a 	mov	r6,r3
 20034f4:	2809883a 	mov	r4,r5
 20034f8:	300b883a 	mov	r5,r6
 20034fc:	01a666b4 	movhi	r6,39322
 2003500:	31a66684 	addi	r6,r6,-26214
 2003504:	01cff6b4 	movhi	r7,16346
 2003508:	39e66644 	addi	r7,r7,-26215
 200350c:	20044740 	call	2004474 <__divdf3>
 2003510:	1009883a 	mov	r4,r2
 2003514:	180b883a 	mov	r5,r3
 2003518:	2005883a 	mov	r2,r4
 200351c:	2807883a 	mov	r3,r5
 2003520:	1009883a 	mov	r4,r2
 2003524:	180b883a 	mov	r5,r3
 2003528:	20048c80 	call	20048c8 <__truncdfsf2>
 200352c:	1007883a 	mov	r3,r2
 2003530:	1805883a 	mov	r2,r3
}
 2003534:	e037883a 	mov	sp,fp
 2003538:	dfc00117 	ldw	ra,4(sp)
 200353c:	df000017 	ldw	fp,0(sp)
 2003540:	dec00204 	addi	sp,sp,8
 2003544:	f800283a 	ret

02003548 <realign_wheel>:


void realign_wheel(PWM_Motor *direction_motor) {
 2003548:	defffc04 	addi	sp,sp,-16
 200354c:	dfc00315 	stw	ra,12(sp)
 2003550:	df000215 	stw	fp,8(sp)
 2003554:	df000204 	addi	fp,sp,8
 2003558:	e13fff15 	stw	r4,-4(fp)
	// This way the wheel will stay stable in position.

	// try to move the wheel to a completely different position for a very short
	// period of time, that is actually much too small for moving there

	float hold_direction = get_direction(direction_motor);
 200355c:	e13fff17 	ldw	r4,-4(fp)
 2003560:	20034c40 	call	20034c4 <get_direction>
 2003564:	e0bffe15 	stw	r2,-8(fp)
	printf("holding direction %f\n", hold_direction);
 2003568:	e13ffe17 	ldw	r4,-8(fp)
 200356c:	2003c700 	call	2003c70 <__extendsfdf2>
 2003570:	100d883a 	mov	r6,r2
 2003574:	180f883a 	mov	r7,r3
 2003578:	010080b4 	movhi	r4,514
 200357c:	21314404 	addi	r4,r4,-15088
 2003580:	300b883a 	mov	r5,r6
 2003584:	380d883a 	mov	r6,r7
 2003588:	2005c440 	call	2005c44 <printf>

	if(hold_direction <= 0)
 200358c:	e13ffe17 	ldw	r4,-8(fp)
 2003590:	000b883a 	mov	r5,zero
 2003594:	2003b780 	call	2003b78 <__lesf2>
 2003598:	00800916 	blt	zero,r2,20035c0 <realign_wheel+0x78>
		set_direction(direction_motor, hold_direction + 1);
 200359c:	e13ffe17 	ldw	r4,-8(fp)
 20035a0:	014fe034 	movhi	r5,16256
 20035a4:	200388c0 	call	200388c <__addsf3>
 20035a8:	1007883a 	mov	r3,r2
 20035ac:	1805883a 	mov	r2,r3
 20035b0:	e13fff17 	ldw	r4,-4(fp)
 20035b4:	100b883a 	mov	r5,r2
 20035b8:	200343c0 	call	200343c <set_direction>
 20035bc:	00000806 	br	20035e0 <realign_wheel+0x98>
	else
		set_direction(direction_motor, hold_direction - 1);
 20035c0:	e13ffe17 	ldw	r4,-8(fp)
 20035c4:	014fe034 	movhi	r5,16256
 20035c8:	20038d80 	call	20038d8 <__subsf3>
 20035cc:	1007883a 	mov	r3,r2
 20035d0:	1805883a 	mov	r2,r3
 20035d4:	e13fff17 	ldw	r4,-4(fp)
 20035d8:	100b883a 	mov	r5,r2
 20035dc:	200343c0 	call	200343c <set_direction>

	OSTimeDlyHMSM(0, 0, 0, 1);
 20035e0:	0009883a 	mov	r4,zero
 20035e4:	000b883a 	mov	r5,zero
 20035e8:	000d883a 	mov	r6,zero
 20035ec:	01c00044 	movi	r7,1
 20035f0:	2017a2c0 	call	2017a2c <OSTimeDlyHMSM>

	// now realign the wheel
	set_direction(direction_motor, hold_direction);
 20035f4:	e13fff17 	ldw	r4,-4(fp)
 20035f8:	e17ffe17 	ldw	r5,-8(fp)
 20035fc:	200343c0 	call	200343c <set_direction>
}
 2003600:	e037883a 	mov	sp,fp
 2003604:	dfc00117 	ldw	ra,4(sp)
 2003608:	df000017 	ldw	fp,0(sp)
 200360c:	dec00204 	addi	sp,sp,8
 2003610:	f800283a 	ret

02003614 <__fixunsdfsi>:
 2003614:	defffd04 	addi	sp,sp,-12
 2003618:	000d883a 	mov	r6,zero
 200361c:	01d07834 	movhi	r7,16864
 2003620:	dc400115 	stw	r17,4(sp)
 2003624:	dc000015 	stw	r16,0(sp)
 2003628:	dfc00215 	stw	ra,8(sp)
 200362c:	2023883a 	mov	r17,r4
 2003630:	2821883a 	mov	r16,r5
 2003634:	20046840 	call	2004684 <__gedf2>
 2003638:	1000080e 	bge	r2,zero,200365c <__fixunsdfsi+0x48>
 200363c:	8809883a 	mov	r4,r17
 2003640:	800b883a 	mov	r5,r16
 2003644:	20047bc0 	call	20047bc <__fixdfsi>
 2003648:	dfc00217 	ldw	ra,8(sp)
 200364c:	dc400117 	ldw	r17,4(sp)
 2003650:	dc000017 	ldw	r16,0(sp)
 2003654:	dec00304 	addi	sp,sp,12
 2003658:	f800283a 	ret
 200365c:	000d883a 	mov	r6,zero
 2003660:	01d07834 	movhi	r7,16864
 2003664:	8809883a 	mov	r4,r17
 2003668:	800b883a 	mov	r5,r16
 200366c:	20041300 	call	2004130 <__subdf3>
 2003670:	180b883a 	mov	r5,r3
 2003674:	1009883a 	mov	r4,r2
 2003678:	20047bc0 	call	20047bc <__fixdfsi>
 200367c:	00e00034 	movhi	r3,32768
 2003680:	10c5883a 	add	r2,r2,r3
 2003684:	dfc00217 	ldw	ra,8(sp)
 2003688:	dc400117 	ldw	r17,4(sp)
 200368c:	dc000017 	ldw	r16,0(sp)
 2003690:	dec00304 	addi	sp,sp,12
 2003694:	f800283a 	ret

02003698 <_fpadd_parts>:
 2003698:	2005883a 	mov	r2,r4
 200369c:	21000017 	ldw	r4,0(r4)
 20036a0:	01c00044 	movi	r7,1
 20036a4:	3900332e 	bgeu	r7,r4,2003774 <_fpadd_parts+0xdc>
 20036a8:	28c00017 	ldw	r3,0(r5)
 20036ac:	38c0642e 	bgeu	r7,r3,2003840 <_fpadd_parts+0x1a8>
 20036b0:	01c00104 	movi	r7,4
 20036b4:	21c06e26 	beq	r4,r7,2003870 <_fpadd_parts+0x1d8>
 20036b8:	19c06126 	beq	r3,r7,2003840 <_fpadd_parts+0x1a8>
 20036bc:	01c00084 	movi	r7,2
 20036c0:	19c04226 	beq	r3,r7,20037cc <_fpadd_parts+0x134>
 20036c4:	21c05e26 	beq	r4,r7,2003840 <_fpadd_parts+0x1a8>
 20036c8:	11000217 	ldw	r4,8(r2)
 20036cc:	2a400217 	ldw	r9,8(r5)
 20036d0:	12800317 	ldw	r10,12(r2)
 20036d4:	29c00317 	ldw	r7,12(r5)
 20036d8:	2247c83a 	sub	r3,r4,r9
 20036dc:	1811883a 	mov	r8,r3
 20036e0:	18005316 	blt	r3,zero,2003830 <_fpadd_parts+0x198>
 20036e4:	02c007c4 	movi	r11,31
 20036e8:	5a002316 	blt	r11,r8,2003778 <_fpadd_parts+0xe0>
 20036ec:	00c0560e 	bge	zero,r3,2003848 <_fpadd_parts+0x1b0>
 20036f0:	00c00044 	movi	r3,1
 20036f4:	1a06983a 	sll	r3,r3,r8
 20036f8:	3a10d83a 	srl	r8,r7,r8
 20036fc:	18ffffc4 	addi	r3,r3,-1
 2003700:	19ce703a 	and	r7,r3,r7
 2003704:	380ec03a 	cmpne	r7,r7,zero
 2003708:	3a0eb03a 	or	r7,r7,r8
 200370c:	10c00117 	ldw	r3,4(r2)
 2003710:	28800117 	ldw	r2,4(r5)
 2003714:	18801d26 	beq	r3,r2,200378c <_fpadd_parts+0xf4>
 2003718:	18003a26 	beq	r3,zero,2003804 <_fpadd_parts+0x16c>
 200371c:	3a85c83a 	sub	r2,r7,r10
 2003720:	10003a16 	blt	r2,zero,200380c <_fpadd_parts+0x174>
 2003724:	30000115 	stw	zero,4(r6)
 2003728:	31000215 	stw	r4,8(r6)
 200372c:	30800315 	stw	r2,12(r6)
 2003730:	10ffffc4 	addi	r3,r2,-1
 2003734:	01d00034 	movhi	r7,16384
 2003738:	39ffff84 	addi	r7,r7,-2
 200373c:	38c00936 	bltu	r7,r3,2003764 <_fpadd_parts+0xcc>
 2003740:	30c00217 	ldw	r3,8(r6)
 2003744:	18ffffc4 	addi	r3,r3,-1
 2003748:	1085883a 	add	r2,r2,r2
 200374c:	113fffc4 	addi	r4,r2,-1
 2003750:	180b883a 	mov	r5,r3
 2003754:	18ffffc4 	addi	r3,r3,-1
 2003758:	393ffb2e 	bgeu	r7,r4,2003748 <_fpadd_parts+0xb0>
 200375c:	30800315 	stw	r2,12(r6)
 2003760:	31400215 	stw	r5,8(r6)
 2003764:	00c000c4 	movi	r3,3
 2003768:	30c00015 	stw	r3,0(r6)
 200376c:	10000e16 	blt	r2,zero,20037a8 <_fpadd_parts+0x110>
 2003770:	3005883a 	mov	r2,r6
 2003774:	f800283a 	ret
 2003778:	49002a0e 	bge	r9,r4,2003824 <_fpadd_parts+0x18c>
 200377c:	10c00117 	ldw	r3,4(r2)
 2003780:	28800117 	ldw	r2,4(r5)
 2003784:	000f883a 	mov	r7,zero
 2003788:	18bfe31e 	bne	r3,r2,2003718 <_fpadd_parts+0x80>
 200378c:	3a85883a 	add	r2,r7,r10
 2003790:	30c00115 	stw	r3,4(r6)
 2003794:	00c000c4 	movi	r3,3
 2003798:	31000215 	stw	r4,8(r6)
 200379c:	30800315 	stw	r2,12(r6)
 20037a0:	30c00015 	stw	r3,0(r6)
 20037a4:	103ff20e 	bge	r2,zero,2003770 <_fpadd_parts+0xd8>
 20037a8:	30c00217 	ldw	r3,8(r6)
 20037ac:	1008d07a 	srli	r4,r2,1
 20037b0:	1080004c 	andi	r2,r2,1
 20037b4:	18c00044 	addi	r3,r3,1
 20037b8:	1104b03a 	or	r2,r2,r4
 20037bc:	30800315 	stw	r2,12(r6)
 20037c0:	30c00215 	stw	r3,8(r6)
 20037c4:	3005883a 	mov	r2,r6
 20037c8:	f800283a 	ret
 20037cc:	20ffe91e 	bne	r4,r3,2003774 <_fpadd_parts+0xdc>
 20037d0:	31000015 	stw	r4,0(r6)
 20037d4:	10c00117 	ldw	r3,4(r2)
 20037d8:	30c00115 	stw	r3,4(r6)
 20037dc:	11c00217 	ldw	r7,8(r2)
 20037e0:	10c00117 	ldw	r3,4(r2)
 20037e4:	29000117 	ldw	r4,4(r5)
 20037e8:	31c00215 	stw	r7,8(r6)
 20037ec:	10800317 	ldw	r2,12(r2)
 20037f0:	20c6703a 	and	r3,r4,r3
 20037f4:	30c00115 	stw	r3,4(r6)
 20037f8:	30800315 	stw	r2,12(r6)
 20037fc:	3005883a 	mov	r2,r6
 2003800:	f800283a 	ret
 2003804:	51c5c83a 	sub	r2,r10,r7
 2003808:	103fc60e 	bge	r2,zero,2003724 <_fpadd_parts+0x8c>
 200380c:	0085c83a 	sub	r2,zero,r2
 2003810:	00c00044 	movi	r3,1
 2003814:	30c00115 	stw	r3,4(r6)
 2003818:	31000215 	stw	r4,8(r6)
 200381c:	30800315 	stw	r2,12(r6)
 2003820:	003fc306 	br	2003730 <_fpadd_parts+0x98>
 2003824:	4809883a 	mov	r4,r9
 2003828:	0015883a 	mov	r10,zero
 200382c:	003fb706 	br	200370c <_fpadd_parts+0x74>
 2003830:	00d1c83a 	sub	r8,zero,r3
 2003834:	02c007c4 	movi	r11,31
 2003838:	5a3fcf16 	blt	r11,r8,2003778 <_fpadd_parts+0xe0>
 200383c:	003fab06 	br	20036ec <_fpadd_parts+0x54>
 2003840:	2805883a 	mov	r2,r5
 2003844:	f800283a 	ret
 2003848:	183fb026 	beq	r3,zero,200370c <_fpadd_parts+0x74>
 200384c:	02400044 	movi	r9,1
 2003850:	4a12983a 	sll	r9,r9,r8
 2003854:	5206d83a 	srl	r3,r10,r8
 2003858:	2209883a 	add	r4,r4,r8
 200385c:	4a3fffc4 	addi	r8,r9,-1
 2003860:	4294703a 	and	r10,r8,r10
 2003864:	5014c03a 	cmpne	r10,r10,zero
 2003868:	50d4b03a 	or	r10,r10,r3
 200386c:	003fa706 	br	200370c <_fpadd_parts+0x74>
 2003870:	193fc01e 	bne	r3,r4,2003774 <_fpadd_parts+0xdc>
 2003874:	11000117 	ldw	r4,4(r2)
 2003878:	28c00117 	ldw	r3,4(r5)
 200387c:	20ffbd26 	beq	r4,r3,2003774 <_fpadd_parts+0xdc>
 2003880:	008080b4 	movhi	r2,514
 2003884:	10b14a04 	addi	r2,r2,-15064
 2003888:	f800283a 	ret

0200388c <__addsf3>:
 200388c:	defff104 	addi	sp,sp,-60
 2003890:	d9000d15 	stw	r4,52(sp)
 2003894:	d9400c15 	stw	r5,48(sp)
 2003898:	d9000d04 	addi	r4,sp,52
 200389c:	d9400804 	addi	r5,sp,32
 20038a0:	dfc00e15 	stw	ra,56(sp)
 20038a4:	2004d400 	call	2004d40 <__unpack_f>
 20038a8:	d9000c04 	addi	r4,sp,48
 20038ac:	d9400404 	addi	r5,sp,16
 20038b0:	2004d400 	call	2004d40 <__unpack_f>
 20038b4:	d9000804 	addi	r4,sp,32
 20038b8:	d9400404 	addi	r5,sp,16
 20038bc:	d80d883a 	mov	r6,sp
 20038c0:	20036980 	call	2003698 <_fpadd_parts>
 20038c4:	1009883a 	mov	r4,r2
 20038c8:	2004c140 	call	2004c14 <__pack_f>
 20038cc:	dfc00e17 	ldw	ra,56(sp)
 20038d0:	dec00f04 	addi	sp,sp,60
 20038d4:	f800283a 	ret

020038d8 <__subsf3>:
 20038d8:	defff104 	addi	sp,sp,-60
 20038dc:	d9000d15 	stw	r4,52(sp)
 20038e0:	d9400c15 	stw	r5,48(sp)
 20038e4:	d9000d04 	addi	r4,sp,52
 20038e8:	d9400804 	addi	r5,sp,32
 20038ec:	dfc00e15 	stw	ra,56(sp)
 20038f0:	2004d400 	call	2004d40 <__unpack_f>
 20038f4:	d9000c04 	addi	r4,sp,48
 20038f8:	d9400404 	addi	r5,sp,16
 20038fc:	2004d400 	call	2004d40 <__unpack_f>
 2003900:	d8800517 	ldw	r2,20(sp)
 2003904:	d9000804 	addi	r4,sp,32
 2003908:	d9400404 	addi	r5,sp,16
 200390c:	d80d883a 	mov	r6,sp
 2003910:	1080005c 	xori	r2,r2,1
 2003914:	d8800515 	stw	r2,20(sp)
 2003918:	20036980 	call	2003698 <_fpadd_parts>
 200391c:	1009883a 	mov	r4,r2
 2003920:	2004c140 	call	2004c14 <__pack_f>
 2003924:	dfc00e17 	ldw	ra,56(sp)
 2003928:	dec00f04 	addi	sp,sp,60
 200392c:	f800283a 	ret

02003930 <__mulsf3>:
 2003930:	defff104 	addi	sp,sp,-60
 2003934:	d9000d15 	stw	r4,52(sp)
 2003938:	d9400c15 	stw	r5,48(sp)
 200393c:	d9000d04 	addi	r4,sp,52
 2003940:	d9400804 	addi	r5,sp,32
 2003944:	dfc00e15 	stw	ra,56(sp)
 2003948:	2004d400 	call	2004d40 <__unpack_f>
 200394c:	d9000c04 	addi	r4,sp,48
 2003950:	d9400404 	addi	r5,sp,16
 2003954:	2004d400 	call	2004d40 <__unpack_f>
 2003958:	d8c00817 	ldw	r3,32(sp)
 200395c:	00800044 	movi	r2,1
 2003960:	10c00936 	bltu	r2,r3,2003988 <__mulsf3+0x58>
 2003964:	d8c00917 	ldw	r3,36(sp)
 2003968:	d8800517 	ldw	r2,20(sp)
 200396c:	d9000804 	addi	r4,sp,32
 2003970:	1884c03a 	cmpne	r2,r3,r2
 2003974:	d8800915 	stw	r2,36(sp)
 2003978:	2004c140 	call	2004c14 <__pack_f>
 200397c:	dfc00e17 	ldw	ra,56(sp)
 2003980:	dec00f04 	addi	sp,sp,60
 2003984:	f800283a 	ret
 2003988:	d9000417 	ldw	r4,16(sp)
 200398c:	11000936 	bltu	r2,r4,20039b4 <__mulsf3+0x84>
 2003990:	d8800517 	ldw	r2,20(sp)
 2003994:	d8c00917 	ldw	r3,36(sp)
 2003998:	d9000404 	addi	r4,sp,16
 200399c:	1884c03a 	cmpne	r2,r3,r2
 20039a0:	d8800515 	stw	r2,20(sp)
 20039a4:	2004c140 	call	2004c14 <__pack_f>
 20039a8:	dfc00e17 	ldw	ra,56(sp)
 20039ac:	dec00f04 	addi	sp,sp,60
 20039b0:	f800283a 	ret
 20039b4:	00800104 	movi	r2,4
 20039b8:	1880051e 	bne	r3,r2,20039d0 <__mulsf3+0xa0>
 20039bc:	00800084 	movi	r2,2
 20039c0:	20bfe81e 	bne	r4,r2,2003964 <__mulsf3+0x34>
 20039c4:	010080b4 	movhi	r4,514
 20039c8:	21314a04 	addi	r4,r4,-15064
 20039cc:	003fea06 	br	2003978 <__mulsf3+0x48>
 20039d0:	2080031e 	bne	r4,r2,20039e0 <__mulsf3+0xb0>
 20039d4:	00800084 	movi	r2,2
 20039d8:	18bffa26 	beq	r3,r2,20039c4 <__mulsf3+0x94>
 20039dc:	003fec06 	br	2003990 <__mulsf3+0x60>
 20039e0:	00800084 	movi	r2,2
 20039e4:	18bfdf26 	beq	r3,r2,2003964 <__mulsf3+0x34>
 20039e8:	20bfe926 	beq	r4,r2,2003990 <__mulsf3+0x60>
 20039ec:	d9000717 	ldw	r4,28(sp)
 20039f0:	d9800b17 	ldw	r6,44(sp)
 20039f4:	000b883a 	mov	r5,zero
 20039f8:	000f883a 	mov	r7,zero
 20039fc:	2004a580 	call	2004a58 <__muldi3>
 2003a00:	d9000617 	ldw	r4,24(sp)
 2003a04:	d9400a17 	ldw	r5,40(sp)
 2003a08:	d9c00917 	ldw	r7,36(sp)
 2003a0c:	290b883a 	add	r5,r5,r4
 2003a10:	d9000517 	ldw	r4,20(sp)
 2003a14:	29800084 	addi	r6,r5,2
 2003a18:	d9800215 	stw	r6,8(sp)
 2003a1c:	3908c03a 	cmpne	r4,r7,r4
 2003a20:	d9000115 	stw	r4,4(sp)
 2003a24:	1809883a 	mov	r4,r3
 2003a28:	1800070e 	bge	r3,zero,2003a48 <__mulsf3+0x118>
 2003a2c:	1900004c 	andi	r4,r3,1
 2003a30:	294000c4 	addi	r5,r5,3
 2003a34:	20000226 	beq	r4,zero,2003a40 <__mulsf3+0x110>
 2003a38:	1004d07a 	srli	r2,r2,1
 2003a3c:	10a00034 	orhi	r2,r2,32768
 2003a40:	1808d07a 	srli	r4,r3,1
 2003a44:	d9400215 	stw	r5,8(sp)
 2003a48:	01900034 	movhi	r6,16384
 2003a4c:	31bfffc4 	addi	r6,r6,-1
 2003a50:	31000c36 	bltu	r6,r4,2003a84 <__mulsf3+0x154>
 2003a54:	d8c00217 	ldw	r3,8(sp)
 2003a58:	18ffffc4 	addi	r3,r3,-1
 2003a5c:	00000306 	br	2003a6c <__mulsf3+0x13c>
 2003a60:	1085883a 	add	r2,r2,r2
 2003a64:	18ffffc4 	addi	r3,r3,-1
 2003a68:	31000536 	bltu	r6,r4,2003a80 <__mulsf3+0x150>
 2003a6c:	2109883a 	add	r4,r4,r4
 2003a70:	180b883a 	mov	r5,r3
 2003a74:	103ffa0e 	bge	r2,zero,2003a60 <__mulsf3+0x130>
 2003a78:	21000054 	ori	r4,r4,1
 2003a7c:	003ff806 	br	2003a60 <__mulsf3+0x130>
 2003a80:	d9400215 	stw	r5,8(sp)
 2003a84:	21401fcc 	andi	r5,r4,127
 2003a88:	00c01004 	movi	r3,64
 2003a8c:	28c00526 	beq	r5,r3,2003aa4 <__mulsf3+0x174>
 2003a90:	008000c4 	movi	r2,3
 2003a94:	d9000315 	stw	r4,12(sp)
 2003a98:	d8800015 	stw	r2,0(sp)
 2003a9c:	d809883a 	mov	r4,sp
 2003aa0:	003fb506 	br	2003978 <__mulsf3+0x48>
 2003aa4:	20c0200c 	andi	r3,r4,128
 2003aa8:	183ff91e 	bne	r3,zero,2003a90 <__mulsf3+0x160>
 2003aac:	103ff826 	beq	r2,zero,2003a90 <__mulsf3+0x160>
 2003ab0:	21001004 	addi	r4,r4,64
 2003ab4:	00bfe004 	movi	r2,-128
 2003ab8:	2088703a 	and	r4,r4,r2
 2003abc:	003ff406 	br	2003a90 <__mulsf3+0x160>

02003ac0 <__gtsf2>:
 2003ac0:	defff504 	addi	sp,sp,-44
 2003ac4:	d9000915 	stw	r4,36(sp)
 2003ac8:	d9400815 	stw	r5,32(sp)
 2003acc:	d9000904 	addi	r4,sp,36
 2003ad0:	d9400404 	addi	r5,sp,16
 2003ad4:	dfc00a15 	stw	ra,40(sp)
 2003ad8:	2004d400 	call	2004d40 <__unpack_f>
 2003adc:	d9000804 	addi	r4,sp,32
 2003ae0:	d80b883a 	mov	r5,sp
 2003ae4:	2004d400 	call	2004d40 <__unpack_f>
 2003ae8:	d8c00417 	ldw	r3,16(sp)
 2003aec:	00800044 	movi	r2,1
 2003af0:	10c0082e 	bgeu	r2,r3,2003b14 <__gtsf2+0x54>
 2003af4:	d8c00017 	ldw	r3,0(sp)
 2003af8:	10c0062e 	bgeu	r2,r3,2003b14 <__gtsf2+0x54>
 2003afc:	d9000404 	addi	r4,sp,16
 2003b00:	d80b883a 	mov	r5,sp
 2003b04:	2004e080 	call	2004e08 <__fpcmp_parts_f>
 2003b08:	dfc00a17 	ldw	ra,40(sp)
 2003b0c:	dec00b04 	addi	sp,sp,44
 2003b10:	f800283a 	ret
 2003b14:	00bfffc4 	movi	r2,-1
 2003b18:	003ffb06 	br	2003b08 <__gtsf2+0x48>

02003b1c <__gesf2>:
 2003b1c:	defff504 	addi	sp,sp,-44
 2003b20:	d9000915 	stw	r4,36(sp)
 2003b24:	d9400815 	stw	r5,32(sp)
 2003b28:	d9000904 	addi	r4,sp,36
 2003b2c:	d9400404 	addi	r5,sp,16
 2003b30:	dfc00a15 	stw	ra,40(sp)
 2003b34:	2004d400 	call	2004d40 <__unpack_f>
 2003b38:	d9000804 	addi	r4,sp,32
 2003b3c:	d80b883a 	mov	r5,sp
 2003b40:	2004d400 	call	2004d40 <__unpack_f>
 2003b44:	d8c00417 	ldw	r3,16(sp)
 2003b48:	00800044 	movi	r2,1
 2003b4c:	10c0082e 	bgeu	r2,r3,2003b70 <__gesf2+0x54>
 2003b50:	d8c00017 	ldw	r3,0(sp)
 2003b54:	10c0062e 	bgeu	r2,r3,2003b70 <__gesf2+0x54>
 2003b58:	d9000404 	addi	r4,sp,16
 2003b5c:	d80b883a 	mov	r5,sp
 2003b60:	2004e080 	call	2004e08 <__fpcmp_parts_f>
 2003b64:	dfc00a17 	ldw	ra,40(sp)
 2003b68:	dec00b04 	addi	sp,sp,44
 2003b6c:	f800283a 	ret
 2003b70:	00bfffc4 	movi	r2,-1
 2003b74:	003ffb06 	br	2003b64 <__gesf2+0x48>

02003b78 <__lesf2>:
 2003b78:	defff504 	addi	sp,sp,-44
 2003b7c:	d9000915 	stw	r4,36(sp)
 2003b80:	d9400815 	stw	r5,32(sp)
 2003b84:	d9000904 	addi	r4,sp,36
 2003b88:	d9400404 	addi	r5,sp,16
 2003b8c:	dfc00a15 	stw	ra,40(sp)
 2003b90:	2004d400 	call	2004d40 <__unpack_f>
 2003b94:	d9000804 	addi	r4,sp,32
 2003b98:	d80b883a 	mov	r5,sp
 2003b9c:	2004d400 	call	2004d40 <__unpack_f>
 2003ba0:	d8c00417 	ldw	r3,16(sp)
 2003ba4:	00800044 	movi	r2,1
 2003ba8:	10c0052e 	bgeu	r2,r3,2003bc0 <__lesf2+0x48>
 2003bac:	d8c00017 	ldw	r3,0(sp)
 2003bb0:	10c0032e 	bgeu	r2,r3,2003bc0 <__lesf2+0x48>
 2003bb4:	d9000404 	addi	r4,sp,16
 2003bb8:	d80b883a 	mov	r5,sp
 2003bbc:	2004e080 	call	2004e08 <__fpcmp_parts_f>
 2003bc0:	dfc00a17 	ldw	ra,40(sp)
 2003bc4:	dec00b04 	addi	sp,sp,44
 2003bc8:	f800283a 	ret

02003bcc <__fixsfsi>:
 2003bcc:	defffa04 	addi	sp,sp,-24
 2003bd0:	d9000415 	stw	r4,16(sp)
 2003bd4:	d80b883a 	mov	r5,sp
 2003bd8:	d9000404 	addi	r4,sp,16
 2003bdc:	dfc00515 	stw	ra,20(sp)
 2003be0:	2004d400 	call	2004d40 <__unpack_f>
 2003be4:	d8800017 	ldw	r2,0(sp)
 2003be8:	00c00084 	movi	r3,2
 2003bec:	10c01826 	beq	r2,r3,2003c50 <__fixsfsi+0x84>
 2003bf0:	00c00044 	movi	r3,1
 2003bf4:	1880162e 	bgeu	r3,r2,2003c50 <__fixsfsi+0x84>
 2003bf8:	00c00104 	movi	r3,4
 2003bfc:	10c00426 	beq	r2,r3,2003c10 <__fixsfsi+0x44>
 2003c00:	d8800217 	ldw	r2,8(sp)
 2003c04:	10001216 	blt	r2,zero,2003c50 <__fixsfsi+0x84>
 2003c08:	00c00784 	movi	r3,30
 2003c0c:	1880070e 	bge	r3,r2,2003c2c <__fixsfsi+0x60>
 2003c10:	d8800117 	ldw	r2,4(sp)
 2003c14:	1000121e 	bne	r2,zero,2003c60 <__fixsfsi+0x94>
 2003c18:	00a00034 	movhi	r2,32768
 2003c1c:	10bfffc4 	addi	r2,r2,-1
 2003c20:	dfc00517 	ldw	ra,20(sp)
 2003c24:	dec00604 	addi	sp,sp,24
 2003c28:	f800283a 	ret
 2003c2c:	1885c83a 	sub	r2,r3,r2
 2003c30:	d8c00317 	ldw	r3,12(sp)
 2003c34:	1884d83a 	srl	r2,r3,r2
 2003c38:	d8c00117 	ldw	r3,4(sp)
 2003c3c:	183ff826 	beq	r3,zero,2003c20 <__fixsfsi+0x54>
 2003c40:	0085c83a 	sub	r2,zero,r2
 2003c44:	dfc00517 	ldw	ra,20(sp)
 2003c48:	dec00604 	addi	sp,sp,24
 2003c4c:	f800283a 	ret
 2003c50:	0005883a 	mov	r2,zero
 2003c54:	dfc00517 	ldw	ra,20(sp)
 2003c58:	dec00604 	addi	sp,sp,24
 2003c5c:	f800283a 	ret
 2003c60:	00a00034 	movhi	r2,32768
 2003c64:	dfc00517 	ldw	ra,20(sp)
 2003c68:	dec00604 	addi	sp,sp,24
 2003c6c:	f800283a 	ret

02003c70 <__extendsfdf2>:
 2003c70:	defff904 	addi	sp,sp,-28
 2003c74:	d9000515 	stw	r4,20(sp)
 2003c78:	d9400104 	addi	r5,sp,4
 2003c7c:	d9000504 	addi	r4,sp,20
 2003c80:	dfc00615 	stw	ra,24(sp)
 2003c84:	2004d400 	call	2004d40 <__unpack_f>
 2003c88:	d9c00417 	ldw	r7,16(sp)
 2003c8c:	d9000117 	ldw	r4,4(sp)
 2003c90:	d9400217 	ldw	r5,8(sp)
 2003c94:	3804d0ba 	srli	r2,r7,2
 2003c98:	d9800317 	ldw	r6,12(sp)
 2003c9c:	380e97ba 	slli	r7,r7,30
 2003ca0:	d8800015 	stw	r2,0(sp)
 2003ca4:	20048900 	call	2004890 <__make_dp>
 2003ca8:	dfc00617 	ldw	ra,24(sp)
 2003cac:	dec00704 	addi	sp,sp,28
 2003cb0:	f800283a 	ret

02003cb4 <__floatunsisf>:
 2003cb4:	defffa04 	addi	sp,sp,-24
 2003cb8:	dc000415 	stw	r16,16(sp)
 2003cbc:	dfc00515 	stw	ra,20(sp)
 2003cc0:	d8000115 	stw	zero,4(sp)
 2003cc4:	2021883a 	mov	r16,r4
 2003cc8:	20001326 	beq	r4,zero,2003d18 <__floatunsisf+0x64>
 2003ccc:	008000c4 	movi	r2,3
 2003cd0:	d8800015 	stw	r2,0(sp)
 2003cd4:	00800784 	movi	r2,30
 2003cd8:	d8800215 	stw	r2,8(sp)
 2003cdc:	2004b680 	call	2004b68 <__clzsi2>
 2003ce0:	10ffffc4 	addi	r3,r2,-1
 2003ce4:	18001416 	blt	r3,zero,2003d38 <__floatunsisf+0x84>
 2003ce8:	18002526 	beq	r3,zero,2003d80 <__floatunsisf+0xcc>
 2003cec:	80e0983a 	sll	r16,r16,r3
 2003cf0:	00c007c4 	movi	r3,31
 2003cf4:	1885c83a 	sub	r2,r3,r2
 2003cf8:	dc000315 	stw	r16,12(sp)
 2003cfc:	d8800215 	stw	r2,8(sp)
 2003d00:	d809883a 	mov	r4,sp
 2003d04:	2004c140 	call	2004c14 <__pack_f>
 2003d08:	dfc00517 	ldw	ra,20(sp)
 2003d0c:	dc000417 	ldw	r16,16(sp)
 2003d10:	dec00604 	addi	sp,sp,24
 2003d14:	f800283a 	ret
 2003d18:	00800084 	movi	r2,2
 2003d1c:	d809883a 	mov	r4,sp
 2003d20:	d8800015 	stw	r2,0(sp)
 2003d24:	2004c140 	call	2004c14 <__pack_f>
 2003d28:	dfc00517 	ldw	ra,20(sp)
 2003d2c:	dc000417 	ldw	r16,16(sp)
 2003d30:	dec00604 	addi	sp,sp,24
 2003d34:	f800283a 	ret
 2003d38:	00c7c83a 	sub	r3,zero,r3
 2003d3c:	01000044 	movi	r4,1
 2003d40:	20c8983a 	sll	r4,r4,r3
 2003d44:	80c6d83a 	srl	r3,r16,r3
 2003d48:	213fffc4 	addi	r4,r4,-1
 2003d4c:	2420703a 	and	r16,r4,r16
 2003d50:	8020c03a 	cmpne	r16,r16,zero
 2003d54:	010007c4 	movi	r4,31
 2003d58:	80c6b03a 	or	r3,r16,r3
 2003d5c:	2085c83a 	sub	r2,r4,r2
 2003d60:	d809883a 	mov	r4,sp
 2003d64:	d8c00315 	stw	r3,12(sp)
 2003d68:	d8800215 	stw	r2,8(sp)
 2003d6c:	2004c140 	call	2004c14 <__pack_f>
 2003d70:	dfc00517 	ldw	ra,20(sp)
 2003d74:	dc000417 	ldw	r16,16(sp)
 2003d78:	dec00604 	addi	sp,sp,24
 2003d7c:	f800283a 	ret
 2003d80:	dc000315 	stw	r16,12(sp)
 2003d84:	003fde06 	br	2003d00 <__floatunsisf+0x4c>

02003d88 <_fpadd_parts>:
 2003d88:	2005883a 	mov	r2,r4
 2003d8c:	21000017 	ldw	r4,0(r4)
 2003d90:	01c00044 	movi	r7,1
 2003d94:	3900622e 	bgeu	r7,r4,2003f20 <_fpadd_parts+0x198>
 2003d98:	28c00017 	ldw	r3,0(r5)
 2003d9c:	38c05f2e 	bgeu	r7,r3,2003f1c <_fpadd_parts+0x194>
 2003da0:	01c00104 	movi	r7,4
 2003da4:	21c0c626 	beq	r4,r7,20040c0 <_fpadd_parts+0x338>
 2003da8:	19c05c26 	beq	r3,r7,2003f1c <_fpadd_parts+0x194>
 2003dac:	01c00084 	movi	r7,2
 2003db0:	19c06b26 	beq	r3,r7,2003f60 <_fpadd_parts+0x1d8>
 2003db4:	21c05926 	beq	r4,r7,2003f1c <_fpadd_parts+0x194>
 2003db8:	11c00217 	ldw	r7,8(r2)
 2003dbc:	2ac00217 	ldw	r11,8(r5)
 2003dc0:	13000317 	ldw	r12,12(r2)
 2003dc4:	13400417 	ldw	r13,16(r2)
 2003dc8:	3ac9c83a 	sub	r4,r7,r11
 2003dcc:	2a000317 	ldw	r8,12(r5)
 2003dd0:	2a400417 	ldw	r9,16(r5)
 2003dd4:	2015883a 	mov	r10,r4
 2003dd8:	20007516 	blt	r4,zero,2003fb0 <_fpadd_parts+0x228>
 2003ddc:	00c00fc4 	movi	r3,63
 2003de0:	1a805016 	blt	r3,r10,2003f24 <_fpadd_parts+0x19c>
 2003de4:	0100870e 	bge	zero,r4,2004004 <_fpadd_parts+0x27c>
 2003de8:	50fff804 	addi	r3,r10,-32
 2003dec:	18009916 	blt	r3,zero,2004054 <_fpadd_parts+0x2cc>
 2003df0:	48d6d83a 	srl	r11,r9,r3
 2003df4:	001d883a 	mov	r14,zero
 2003df8:	18009e16 	blt	r3,zero,2004074 <_fpadd_parts+0x2ec>
 2003dfc:	01000044 	movi	r4,1
 2003e00:	20c6983a 	sll	r3,r4,r3
 2003e04:	0015883a 	mov	r10,zero
 2003e08:	513fffc4 	addi	r4,r10,-1
 2003e0c:	2295403a 	cmpgeu	r10,r4,r10
 2003e10:	1a87c83a 	sub	r3,r3,r10
 2003e14:	1a52703a 	and	r9,r3,r9
 2003e18:	2210703a 	and	r8,r4,r8
 2003e1c:	4250b03a 	or	r8,r8,r9
 2003e20:	4010c03a 	cmpne	r8,r8,zero
 2003e24:	42d0b03a 	or	r8,r8,r11
 2003e28:	7013883a 	mov	r9,r14
 2003e2c:	11000117 	ldw	r4,4(r2)
 2003e30:	28800117 	ldw	r2,4(r5)
 2003e34:	20804126 	beq	r4,r2,2003f3c <_fpadd_parts+0x1b4>
 2003e38:	20006326 	beq	r4,zero,2003fc8 <_fpadd_parts+0x240>
 2003e3c:	4305c83a 	sub	r2,r8,r12
 2003e40:	4091803a 	cmpltu	r8,r8,r2
 2003e44:	4b47c83a 	sub	r3,r9,r13
 2003e48:	1a07c83a 	sub	r3,r3,r8
 2003e4c:	18006316 	blt	r3,zero,2003fdc <_fpadd_parts+0x254>
 2003e50:	30000115 	stw	zero,4(r6)
 2003e54:	31c00215 	stw	r7,8(r6)
 2003e58:	30800315 	stw	r2,12(r6)
 2003e5c:	30c00415 	stw	r3,16(r6)
 2003e60:	11ffffc4 	addi	r7,r2,-1
 2003e64:	388b403a 	cmpgeu	r5,r7,r2
 2003e68:	194bc83a 	sub	r5,r3,r5
 2003e6c:	01040034 	movhi	r4,4096
 2003e70:	213fffc4 	addi	r4,r4,-1
 2003e74:	21401736 	bltu	r4,r5,2003ed4 <_fpadd_parts+0x14c>
 2003e78:	29008226 	beq	r5,r4,2004084 <_fpadd_parts+0x2fc>
 2003e7c:	31400217 	ldw	r5,8(r6)
 2003e80:	02840034 	movhi	r10,4096
 2003e84:	52bfffc4 	addi	r10,r10,-1
 2003e88:	033fff84 	movi	r12,-2
 2003e8c:	297fffc4 	addi	r5,r5,-1
 2003e90:	00000106 	br	2003e98 <_fpadd_parts+0x110>
 2003e94:	3a804a26 	beq	r7,r10,2003fc0 <_fpadd_parts+0x238>
 2003e98:	1089883a 	add	r4,r2,r2
 2003e9c:	2091803a 	cmpltu	r8,r4,r2
 2003ea0:	18c7883a 	add	r3,r3,r3
 2003ea4:	227fffc4 	addi	r9,r4,-1
 2003ea8:	40d1883a 	add	r8,r8,r3
 2003eac:	490f403a 	cmpgeu	r7,r9,r4
 2003eb0:	41cfc83a 	sub	r7,r8,r7
 2003eb4:	2817883a 	mov	r11,r5
 2003eb8:	2005883a 	mov	r2,r4
 2003ebc:	4007883a 	mov	r3,r8
 2003ec0:	297fffc4 	addi	r5,r5,-1
 2003ec4:	51fff32e 	bgeu	r10,r7,2003e94 <_fpadd_parts+0x10c>
 2003ec8:	31000315 	stw	r4,12(r6)
 2003ecc:	32000415 	stw	r8,16(r6)
 2003ed0:	32c00215 	stw	r11,8(r6)
 2003ed4:	010000c4 	movi	r4,3
 2003ed8:	31000015 	stw	r4,0(r6)
 2003edc:	01080034 	movhi	r4,8192
 2003ee0:	213fffc4 	addi	r4,r4,-1
 2003ee4:	20c00b2e 	bgeu	r4,r3,2003f14 <_fpadd_parts+0x18c>
 2003ee8:	180e97fa 	slli	r7,r3,31
 2003eec:	1008d07a 	srli	r4,r2,1
 2003ef0:	31400217 	ldw	r5,8(r6)
 2003ef4:	1806d07a 	srli	r3,r3,1
 2003ef8:	1080004c 	andi	r2,r2,1
 2003efc:	3908b03a 	or	r4,r7,r4
 2003f00:	1108b03a 	or	r4,r2,r4
 2003f04:	29400044 	addi	r5,r5,1
 2003f08:	31000315 	stw	r4,12(r6)
 2003f0c:	30c00415 	stw	r3,16(r6)
 2003f10:	31400215 	stw	r5,8(r6)
 2003f14:	3005883a 	mov	r2,r6
 2003f18:	f800283a 	ret
 2003f1c:	2805883a 	mov	r2,r5
 2003f20:	f800283a 	ret
 2003f24:	59c01e0e 	bge	r11,r7,2003fa0 <_fpadd_parts+0x218>
 2003f28:	11000117 	ldw	r4,4(r2)
 2003f2c:	28800117 	ldw	r2,4(r5)
 2003f30:	0011883a 	mov	r8,zero
 2003f34:	0013883a 	mov	r9,zero
 2003f38:	20bfbf1e 	bne	r4,r2,2003e38 <_fpadd_parts+0xb0>
 2003f3c:	4305883a 	add	r2,r8,r12
 2003f40:	1207803a 	cmpltu	r3,r2,r8
 2003f44:	4b53883a 	add	r9,r9,r13
 2003f48:	1a47883a 	add	r3,r3,r9
 2003f4c:	31000115 	stw	r4,4(r6)
 2003f50:	31c00215 	stw	r7,8(r6)
 2003f54:	30800315 	stw	r2,12(r6)
 2003f58:	30c00415 	stw	r3,16(r6)
 2003f5c:	003fdd06 	br	2003ed4 <_fpadd_parts+0x14c>
 2003f60:	20ffef1e 	bne	r4,r3,2003f20 <_fpadd_parts+0x198>
 2003f64:	31000015 	stw	r4,0(r6)
 2003f68:	10c00117 	ldw	r3,4(r2)
 2003f6c:	30c00115 	stw	r3,4(r6)
 2003f70:	10c00217 	ldw	r3,8(r2)
 2003f74:	11000117 	ldw	r4,4(r2)
 2003f78:	29400117 	ldw	r5,4(r5)
 2003f7c:	30c00215 	stw	r3,8(r6)
 2003f80:	10c00317 	ldw	r3,12(r2)
 2003f84:	2908703a 	and	r4,r5,r4
 2003f88:	30c00315 	stw	r3,12(r6)
 2003f8c:	10c00417 	ldw	r3,16(r2)
 2003f90:	31000115 	stw	r4,4(r6)
 2003f94:	3005883a 	mov	r2,r6
 2003f98:	30c00415 	stw	r3,16(r6)
 2003f9c:	f800283a 	ret
 2003fa0:	580f883a 	mov	r7,r11
 2003fa4:	0019883a 	mov	r12,zero
 2003fa8:	001b883a 	mov	r13,zero
 2003fac:	003f9f06 	br	2003e2c <_fpadd_parts+0xa4>
 2003fb0:	0115c83a 	sub	r10,zero,r4
 2003fb4:	00c00fc4 	movi	r3,63
 2003fb8:	1abfda16 	blt	r3,r10,2003f24 <_fpadd_parts+0x19c>
 2003fbc:	003f8906 	br	2003de4 <_fpadd_parts+0x5c>
 2003fc0:	627fb52e 	bgeu	r12,r9,2003e98 <_fpadd_parts+0x110>
 2003fc4:	003fc006 	br	2003ec8 <_fpadd_parts+0x140>
 2003fc8:	6205c83a 	sub	r2,r12,r8
 2003fcc:	6099803a 	cmpltu	r12,r12,r2
 2003fd0:	6a47c83a 	sub	r3,r13,r9
 2003fd4:	1b07c83a 	sub	r3,r3,r12
 2003fd8:	183f9d0e 	bge	r3,zero,2003e50 <_fpadd_parts+0xc8>
 2003fdc:	0085c83a 	sub	r2,zero,r2
 2003fe0:	1008c03a 	cmpne	r4,r2,zero
 2003fe4:	00c7c83a 	sub	r3,zero,r3
 2003fe8:	1907c83a 	sub	r3,r3,r4
 2003fec:	01000044 	movi	r4,1
 2003ff0:	31000115 	stw	r4,4(r6)
 2003ff4:	31c00215 	stw	r7,8(r6)
 2003ff8:	30800315 	stw	r2,12(r6)
 2003ffc:	30c00415 	stw	r3,16(r6)
 2004000:	003f9706 	br	2003e60 <_fpadd_parts+0xd8>
 2004004:	203f8926 	beq	r4,zero,2003e2c <_fpadd_parts+0xa4>
 2004008:	50fff804 	addi	r3,r10,-32
 200400c:	3a8f883a 	add	r7,r7,r10
 2004010:	18002316 	blt	r3,zero,20040a0 <_fpadd_parts+0x318>
 2004014:	68d6d83a 	srl	r11,r13,r3
 2004018:	001d883a 	mov	r14,zero
 200401c:	18001c16 	blt	r3,zero,2004090 <_fpadd_parts+0x308>
 2004020:	01000044 	movi	r4,1
 2004024:	20c6983a 	sll	r3,r4,r3
 2004028:	0015883a 	mov	r10,zero
 200402c:	513fffc4 	addi	r4,r10,-1
 2004030:	2295403a 	cmpgeu	r10,r4,r10
 2004034:	1a87c83a 	sub	r3,r3,r10
 2004038:	1b5a703a 	and	r13,r3,r13
 200403c:	2318703a 	and	r12,r4,r12
 2004040:	6358b03a 	or	r12,r12,r13
 2004044:	6018c03a 	cmpne	r12,r12,zero
 2004048:	62d8b03a 	or	r12,r12,r11
 200404c:	701b883a 	mov	r13,r14
 2004050:	003f7606 	br	2003e2c <_fpadd_parts+0xa4>
 2004054:	4808907a 	slli	r4,r9,1
 2004058:	02c007c4 	movi	r11,31
 200405c:	5a97c83a 	sub	r11,r11,r10
 2004060:	22c8983a 	sll	r4,r4,r11
 2004064:	4296d83a 	srl	r11,r8,r10
 2004068:	4a9cd83a 	srl	r14,r9,r10
 200406c:	22d6b03a 	or	r11,r4,r11
 2004070:	003f6106 	br	2003df8 <_fpadd_parts+0x70>
 2004074:	00c00044 	movi	r3,1
 2004078:	1a94983a 	sll	r10,r3,r10
 200407c:	0007883a 	mov	r3,zero
 2004080:	003f6106 	br	2003e08 <_fpadd_parts+0x80>
 2004084:	013fff84 	movi	r4,-2
 2004088:	21ff7c2e 	bgeu	r4,r7,2003e7c <_fpadd_parts+0xf4>
 200408c:	003f9106 	br	2003ed4 <_fpadd_parts+0x14c>
 2004090:	00c00044 	movi	r3,1
 2004094:	1a94983a 	sll	r10,r3,r10
 2004098:	0007883a 	mov	r3,zero
 200409c:	003fe306 	br	200402c <_fpadd_parts+0x2a4>
 20040a0:	6816907a 	slli	r11,r13,1
 20040a4:	010007c4 	movi	r4,31
 20040a8:	2289c83a 	sub	r4,r4,r10
 20040ac:	5908983a 	sll	r4,r11,r4
 20040b0:	6296d83a 	srl	r11,r12,r10
 20040b4:	6a9cd83a 	srl	r14,r13,r10
 20040b8:	22d6b03a 	or	r11,r4,r11
 20040bc:	003fd706 	br	200401c <_fpadd_parts+0x294>
 20040c0:	193f971e 	bne	r3,r4,2003f20 <_fpadd_parts+0x198>
 20040c4:	11000117 	ldw	r4,4(r2)
 20040c8:	28c00117 	ldw	r3,4(r5)
 20040cc:	20ff9426 	beq	r4,r3,2003f20 <_fpadd_parts+0x198>
 20040d0:	008080b4 	movhi	r2,514
 20040d4:	10b14e04 	addi	r2,r2,-15048
 20040d8:	f800283a 	ret

020040dc <__adddf3>:
 20040dc:	deffec04 	addi	sp,sp,-80
 20040e0:	d9001115 	stw	r4,68(sp)
 20040e4:	d9401215 	stw	r5,72(sp)
 20040e8:	d9001104 	addi	r4,sp,68
 20040ec:	d9400a04 	addi	r5,sp,40
 20040f0:	dfc01315 	stw	ra,76(sp)
 20040f4:	d9c01015 	stw	r7,64(sp)
 20040f8:	d9800f15 	stw	r6,60(sp)
 20040fc:	20051140 	call	2005114 <__unpack_d>
 2004100:	d9000f04 	addi	r4,sp,60
 2004104:	d9400504 	addi	r5,sp,20
 2004108:	20051140 	call	2005114 <__unpack_d>
 200410c:	d9000a04 	addi	r4,sp,40
 2004110:	d9400504 	addi	r5,sp,20
 2004114:	d80d883a 	mov	r6,sp
 2004118:	2003d880 	call	2003d88 <_fpadd_parts>
 200411c:	1009883a 	mov	r4,r2
 2004120:	2004ef00 	call	2004ef0 <__pack_d>
 2004124:	dfc01317 	ldw	ra,76(sp)
 2004128:	dec01404 	addi	sp,sp,80
 200412c:	f800283a 	ret

02004130 <__subdf3>:
 2004130:	deffec04 	addi	sp,sp,-80
 2004134:	d9001115 	stw	r4,68(sp)
 2004138:	d9401215 	stw	r5,72(sp)
 200413c:	d9001104 	addi	r4,sp,68
 2004140:	d9400a04 	addi	r5,sp,40
 2004144:	dfc01315 	stw	ra,76(sp)
 2004148:	d9c01015 	stw	r7,64(sp)
 200414c:	d9800f15 	stw	r6,60(sp)
 2004150:	20051140 	call	2005114 <__unpack_d>
 2004154:	d9000f04 	addi	r4,sp,60
 2004158:	d9400504 	addi	r5,sp,20
 200415c:	20051140 	call	2005114 <__unpack_d>
 2004160:	d8800617 	ldw	r2,24(sp)
 2004164:	d9000a04 	addi	r4,sp,40
 2004168:	d9400504 	addi	r5,sp,20
 200416c:	d80d883a 	mov	r6,sp
 2004170:	1080005c 	xori	r2,r2,1
 2004174:	d8800615 	stw	r2,24(sp)
 2004178:	2003d880 	call	2003d88 <_fpadd_parts>
 200417c:	1009883a 	mov	r4,r2
 2004180:	2004ef00 	call	2004ef0 <__pack_d>
 2004184:	dfc01317 	ldw	ra,76(sp)
 2004188:	dec01404 	addi	sp,sp,80
 200418c:	f800283a 	ret

02004190 <__muldf3>:
 2004190:	deffe404 	addi	sp,sp,-112
 2004194:	d9001115 	stw	r4,68(sp)
 2004198:	d9401215 	stw	r5,72(sp)
 200419c:	d9001104 	addi	r4,sp,68
 20041a0:	d9400a04 	addi	r5,sp,40
 20041a4:	dfc01b15 	stw	ra,108(sp)
 20041a8:	d9800f15 	stw	r6,60(sp)
 20041ac:	d9c01015 	stw	r7,64(sp)
 20041b0:	ddc01a15 	stw	r23,104(sp)
 20041b4:	dd801915 	stw	r22,100(sp)
 20041b8:	dd401815 	stw	r21,96(sp)
 20041bc:	dd001715 	stw	r20,92(sp)
 20041c0:	dcc01615 	stw	r19,88(sp)
 20041c4:	dc801515 	stw	r18,84(sp)
 20041c8:	dc401415 	stw	r17,80(sp)
 20041cc:	dc001315 	stw	r16,76(sp)
 20041d0:	20051140 	call	2005114 <__unpack_d>
 20041d4:	d9000f04 	addi	r4,sp,60
 20041d8:	d9400504 	addi	r5,sp,20
 20041dc:	20051140 	call	2005114 <__unpack_d>
 20041e0:	d8c00a17 	ldw	r3,40(sp)
 20041e4:	00800044 	movi	r2,1
 20041e8:	10c01136 	bltu	r2,r3,2004230 <__muldf3+0xa0>
 20041ec:	d8c00b17 	ldw	r3,44(sp)
 20041f0:	d8800617 	ldw	r2,24(sp)
 20041f4:	d9000a04 	addi	r4,sp,40
 20041f8:	1884c03a 	cmpne	r2,r3,r2
 20041fc:	d8800b15 	stw	r2,44(sp)
 2004200:	2004ef00 	call	2004ef0 <__pack_d>
 2004204:	dfc01b17 	ldw	ra,108(sp)
 2004208:	ddc01a17 	ldw	r23,104(sp)
 200420c:	dd801917 	ldw	r22,100(sp)
 2004210:	dd401817 	ldw	r21,96(sp)
 2004214:	dd001717 	ldw	r20,92(sp)
 2004218:	dcc01617 	ldw	r19,88(sp)
 200421c:	dc801517 	ldw	r18,84(sp)
 2004220:	dc401417 	ldw	r17,80(sp)
