Archive member included because of file (symbol)

/opt/altera/nios2eds/bin/gnu/H-i686-pc-linux-gnu/bin/../lib/gcc/nios2-elf/4.7.3/mno-hw-mul/libgcc.a(_fixunsdfsi.o)
                              obj/default/main.o (__fixunsdfsi)
/opt/altera/nios2eds/bin/gnu/H-i686-pc-linux-gnu/bin/../lib/gcc/nios2-elf/4.7.3/mno-hw-mul/libgcc.a(_addsub_sf.o)
                              obj/default/wheel_direction.o (__addsf3)
/opt/altera/nios2eds/bin/gnu/H-i686-pc-linux-gnu/bin/../lib/gcc/nios2-elf/4.7.3/mno-hw-mul/libgcc.a(_mul_sf.o)
                              obj/default/pwm_motor.o (__mulsf3)
/opt/altera/nios2eds/bin/gnu/H-i686-pc-linux-gnu/bin/../lib/gcc/nios2-elf/4.7.3/mno-hw-mul/libgcc.a(_gt_sf.o)
                              obj/default/pwm_motor.o (__gtsf2)
/opt/altera/nios2eds/bin/gnu/H-i686-pc-linux-gnu/bin/../lib/gcc/nios2-elf/4.7.3/mno-hw-mul/libgcc.a(_ge_sf.o)
                              obj/default/pwm_motor.o (__gesf2)
/opt/altera/nios2eds/bin/gnu/H-i686-pc-linux-gnu/bin/../lib/gcc/nios2-elf/4.7.3/mno-hw-mul/libgcc.a(_le_sf.o)
                              obj/default/pwm_motor.o (__lesf2)
/opt/altera/nios2eds/bin/gnu/H-i686-pc-linux-gnu/bin/../lib/gcc/nios2-elf/4.7.3/mno-hw-mul/libgcc.a(_sf_to_si.o)
                              obj/default/pwm_motor.o (__fixsfsi)
/opt/altera/nios2eds/bin/gnu/H-i686-pc-linux-gnu/bin/../lib/gcc/nios2-elf/4.7.3/mno-hw-mul/libgcc.a(_sf_to_df.o)
                              obj/default/legocar.o (__extendsfdf2)
/opt/altera/nios2eds/bin/gnu/H-i686-pc-linux-gnu/bin/../lib/gcc/nios2-elf/4.7.3/mno-hw-mul/libgcc.a(_thenan_sf.o)
                              /opt/altera/nios2eds/bin/gnu/H-i686-pc-linux-gnu/bin/../lib/gcc/nios2-elf/4.7.3/mno-hw-mul/libgcc.a(_addsub_sf.o) (__thenan_sf)
/opt/altera/nios2eds/bin/gnu/H-i686-pc-linux-gnu/bin/../lib/gcc/nios2-elf/4.7.3/mno-hw-mul/libgcc.a(_usi_to_sf.o)
                              obj/default/pwm_motor.o (__floatunsisf)
/opt/altera/nios2eds/bin/gnu/H-i686-pc-linux-gnu/bin/../lib/gcc/nios2-elf/4.7.3/mno-hw-mul/libgcc.a(_addsub_df.o)
                              obj/default/ins.o (__adddf3)
/opt/altera/nios2eds/bin/gnu/H-i686-pc-linux-gnu/bin/../lib/gcc/nios2-elf/4.7.3/mno-hw-mul/libgcc.a(_mul_df.o)
                              obj/default/ins.o (__muldf3)
/opt/altera/nios2eds/bin/gnu/H-i686-pc-linux-gnu/bin/../lib/gcc/nios2-elf/4.7.3/mno-hw-mul/libgcc.a(_div_df.o)
                              obj/default/ins.o (__divdf3)
/opt/altera/nios2eds/bin/gnu/H-i686-pc-linux-gnu/bin/../lib/gcc/nios2-elf/4.7.3/mno-hw-mul/libgcc.a(_eq_df.o)
                              obj/default/ins.o (__eqdf2)
/opt/altera/nios2eds/bin/gnu/H-i686-pc-linux-gnu/bin/../lib/gcc/nios2-elf/4.7.3/mno-hw-mul/libgcc.a(_ge_df.o)
                              /opt/altera/nios2eds/bin/gnu/H-i686-pc-linux-gnu/bin/../lib/gcc/nios2-elf/4.7.3/mno-hw-mul/libgcc.a(_fixunsdfsi.o) (__gedf2)
/opt/altera/nios2eds/bin/gnu/H-i686-pc-linux-gnu/bin/../lib/gcc/nios2-elf/4.7.3/mno-hw-mul/libgcc.a(_si_to_df.o)
                              obj/default/ins.o (__floatsidf)
/opt/altera/nios2eds/bin/gnu/H-i686-pc-linux-gnu/bin/../lib/gcc/nios2-elf/4.7.3/mno-hw-mul/libgcc.a(_df_to_si.o)
                              /opt/altera/nios2eds/bin/gnu/H-i686-pc-linux-gnu/bin/../lib/gcc/nios2-elf/4.7.3/mno-hw-mul/libgcc.a(_fixunsdfsi.o) (__fixdfsi)
/opt/altera/nios2eds/bin/gnu/H-i686-pc-linux-gnu/bin/../lib/gcc/nios2-elf/4.7.3/mno-hw-mul/libgcc.a(_make_df.o)
                              /opt/altera/nios2eds/bin/gnu/H-i686-pc-linux-gnu/bin/../lib/gcc/nios2-elf/4.7.3/mno-hw-mul/libgcc.a(_sf_to_df.o) (__make_dp)
/opt/altera/nios2eds/bin/gnu/H-i686-pc-linux-gnu/bin/../lib/gcc/nios2-elf/4.7.3/mno-hw-mul/libgcc.a(_df_to_sf.o)
                              obj/default/wheel_direction.o (__truncdfsf2)
/opt/altera/nios2eds/bin/gnu/H-i686-pc-linux-gnu/bin/../lib/gcc/nios2-elf/4.7.3/mno-hw-mul/libgcc.a(_thenan_df.o)
                              /opt/altera/nios2eds/bin/gnu/H-i686-pc-linux-gnu/bin/../lib/gcc/nios2-elf/4.7.3/mno-hw-mul/libgcc.a(_addsub_df.o) (__thenan_df)
/opt/altera/nios2eds/bin/gnu/H-i686-pc-linux-gnu/bin/../lib/gcc/nios2-elf/4.7.3/mno-hw-mul/libgcc.a(lib2-divmod.o)
                              obj/default/main.o (__modsi3)
/opt/altera/nios2eds/bin/gnu/H-i686-pc-linux-gnu/bin/../lib/gcc/nios2-elf/4.7.3/mno-hw-mul/libgcc.a(_muldi3.o)
                              /opt/altera/nios2eds/bin/gnu/H-i686-pc-linux-gnu/bin/../lib/gcc/nios2-elf/4.7.3/mno-hw-mul/libgcc.a(_mul_sf.o) (__muldi3)
/opt/altera/nios2eds/bin/gnu/H-i686-pc-linux-gnu/bin/../lib/gcc/nios2-elf/4.7.3/mno-hw-mul/libgcc.a(_clzsi2.o)
                              /opt/altera/nios2eds/bin/gnu/H-i686-pc-linux-gnu/bin/../lib/gcc/nios2-elf/4.7.3/mno-hw-mul/libgcc.a(_usi_to_sf.o) (__clzsi2)
/opt/altera/nios2eds/bin/gnu/H-i686-pc-linux-gnu/bin/../lib/gcc/nios2-elf/4.7.3/mno-hw-mul/libgcc.a(_pack_sf.o)
                              /opt/altera/nios2eds/bin/gnu/H-i686-pc-linux-gnu/bin/../lib/gcc/nios2-elf/4.7.3/mno-hw-mul/libgcc.a(_addsub_sf.o) (__pack_f)
/opt/altera/nios2eds/bin/gnu/H-i686-pc-linux-gnu/bin/../lib/gcc/nios2-elf/4.7.3/mno-hw-mul/libgcc.a(_unpack_sf.o)
                              /opt/altera/nios2eds/bin/gnu/H-i686-pc-linux-gnu/bin/../lib/gcc/nios2-elf/4.7.3/mno-hw-mul/libgcc.a(_addsub_sf.o) (__unpack_f)
/opt/altera/nios2eds/bin/gnu/H-i686-pc-linux-gnu/bin/../lib/gcc/nios2-elf/4.7.3/mno-hw-mul/libgcc.a(_fpcmp_parts_sf.o)
                              /opt/altera/nios2eds/bin/gnu/H-i686-pc-linux-gnu/bin/../lib/gcc/nios2-elf/4.7.3/mno-hw-mul/libgcc.a(_gt_sf.o) (__fpcmp_parts_f)
/opt/altera/nios2eds/bin/gnu/H-i686-pc-linux-gnu/bin/../lib/gcc/nios2-elf/4.7.3/mno-hw-mul/libgcc.a(_make_sf.o)
                              /opt/altera/nios2eds/bin/gnu/H-i686-pc-linux-gnu/bin/../lib/gcc/nios2-elf/4.7.3/mno-hw-mul/libgcc.a(_df_to_sf.o) (__make_fp)
/opt/altera/nios2eds/bin/gnu/H-i686-pc-linux-gnu/bin/../lib/gcc/nios2-elf/4.7.3/mno-hw-mul/libgcc.a(_pack_df.o)
                              /opt/altera/nios2eds/bin/gnu/H-i686-pc-linux-gnu/bin/../lib/gcc/nios2-elf/4.7.3/mno-hw-mul/libgcc.a(_addsub_df.o) (__pack_d)
/opt/altera/nios2eds/bin/gnu/H-i686-pc-linux-gnu/bin/../lib/gcc/nios2-elf/4.7.3/mno-hw-mul/libgcc.a(_unpack_df.o)
                              /opt/altera/nios2eds/bin/gnu/H-i686-pc-linux-gnu/bin/../lib/gcc/nios2-elf/4.7.3/mno-hw-mul/libgcc.a(_addsub_df.o) (__unpack_d)
/opt/altera/nios2eds/bin/gnu/H-i686-pc-linux-gnu/bin/../lib/gcc/nios2-elf/4.7.3/mno-hw-mul/libgcc.a(_fpcmp_parts_df.o)
                              /opt/altera/nios2eds/bin/gnu/H-i686-pc-linux-gnu/bin/../lib/gcc/nios2-elf/4.7.3/mno-hw-mul/libgcc.a(_eq_df.o) (__fpcmp_parts_d)
/opt/altera/nios2eds/bin/gnu/H-i686-pc-linux-gnu/bin/../lib/gcc/nios2-elf/4.7.3/mno-hw-mul/libgcc.a(lib2-mul.o)
                              /opt/altera/nios2eds/bin/gnu/H-i686-pc-linux-gnu/bin/../lib/gcc/nios2-elf/4.7.3/mno-hw-mul/libgcc.a(_muldi3.o) (__mulsi3)
/opt/altera/nios2eds/bin/gnu/H-i686-pc-linux-gnu/bin/../lib/gcc/nios2-elf/4.7.3/mno-hw-mul/libgcc.a(_lshrdi3.o)
                              /opt/altera/nios2eds/bin/gnu/H-i686-pc-linux-gnu/bin/../lib/gcc/nios2-elf/4.7.3/mno-hw-mul/libgcc.a(_pack_df.o) (__lshrdi3)
/opt/altera/nios2eds/bin/gnu/H-i686-pc-linux-gnu/bin/../lib/gcc/nios2-elf/4.7.3/mno-hw-mul/libgcc.a(_ashldi3.o)
                              /opt/altera/nios2eds/bin/gnu/H-i686-pc-linux-gnu/bin/../lib/gcc/nios2-elf/4.7.3/mno-hw-mul/libgcc.a(_pack_df.o) (__ashldi3)
/opt/altera/nios2eds/bin/gnu/H-i686-pc-linux-gnu/bin/../lib/gcc/nios2-elf/4.7.3/mno-hw-mul/libgcc.a(_clz.o)
                              /opt/altera/nios2eds/bin/gnu/H-i686-pc-linux-gnu/bin/../lib/gcc/nios2-elf/4.7.3/mno-hw-mul/libgcc.a(_clzsi2.o) (__clz_tab)
/opt/altera/nios2eds/bin/gnu/H-i686-pc-linux-gnu/bin/../lib/gcc/nios2-elf/4.7.3/../../../../../H-i686-pc-linux-gnu/nios2-elf/lib/mno-hw-mul/libc.a(lib_a-assert.o)
                              obj/default/pwm_motor.o (__assert_func)
/opt/altera/nios2eds/bin/gnu/H-i686-pc-linux-gnu/bin/../lib/gcc/nios2-elf/4.7.3/../../../../../H-i686-pc-linux-gnu/nios2-elf/lib/mno-hw-mul/libc.a(lib_a-fiprintf.o)
                              /opt/altera/nios2eds/bin/gnu/H-i686-pc-linux-gnu/bin/../lib/gcc/nios2-elf/4.7.3/../../../../../H-i686-pc-linux-gnu/nios2-elf/lib/mno-hw-mul/libc.a(lib_a-assert.o) (fiprintf)
/opt/altera/nios2eds/bin/gnu/H-i686-pc-linux-gnu/bin/../lib/gcc/nios2-elf/4.7.3/../../../../../H-i686-pc-linux-gnu/nios2-elf/lib/mno-hw-mul/libc.a(lib_a-impure.o)
                              /opt/altera/nios2eds/bin/gnu/H-i686-pc-linux-gnu/bin/../lib/gcc/nios2-elf/4.7.3/../../../../../H-i686-pc-linux-gnu/nios2-elf/lib/mno-hw-mul/libc.a(lib_a-assert.o) (_impure_ptr)
/opt/altera/nios2eds/bin/gnu/H-i686-pc-linux-gnu/bin/../lib/gcc/nios2-elf/4.7.3/../../../../../H-i686-pc-linux-gnu/nios2-elf/lib/mno-hw-mul/libc.a(lib_a-malloc.o)
                              obj/default/terasic_lib/flash.o (malloc)
/opt/altera/nios2eds/bin/gnu/H-i686-pc-linux-gnu/bin/../lib/gcc/nios2-elf/4.7.3/../../../../../H-i686-pc-linux-gnu/nios2-elf/lib/mno-hw-mul/libc.a(lib_a-mallocr.o)
                              /opt/altera/nios2eds/bin/gnu/H-i686-pc-linux-gnu/bin/../lib/gcc/nios2-elf/4.7.3/../../../../../H-i686-pc-linux-gnu/nios2-elf/lib/mno-hw-mul/libc.a(lib_a-malloc.o) (_malloc_r)
/opt/altera/nios2eds/bin/gnu/H-i686-pc-linux-gnu/bin/../lib/gcc/nios2-elf/4.7.3/../../../../../H-i686-pc-linux-gnu/nios2-elf/lib/mno-hw-mul/libc.a(lib_a-printf.o)
                              obj/default/legocar.o (printf)
/opt/altera/nios2eds/bin/gnu/H-i686-pc-linux-gnu/bin/../lib/gcc/nios2-elf/4.7.3/../../../../../H-i686-pc-linux-gnu/nios2-elf/lib/mno-hw-mul/libc.a(lib_a-puts.o)
                              obj/default/ins.o (puts)
/opt/altera/nios2eds/bin/gnu/H-i686-pc-linux-gnu/bin/../lib/gcc/nios2-elf/4.7.3/../../../../../H-i686-pc-linux-gnu/nios2-elf/lib/mno-hw-mul/libc.a(lib_a-sbrkr.o)
                              /opt/altera/nios2eds/bin/gnu/H-i686-pc-linux-gnu/bin/../lib/gcc/nios2-elf/4.7.3/../../../../../H-i686-pc-linux-gnu/nios2-elf/lib/mno-hw-mul/libc.a(lib_a-mallocr.o) (_sbrk_r)
/opt/altera/nios2eds/bin/gnu/H-i686-pc-linux-gnu/bin/../lib/gcc/nios2-elf/4.7.3/../../../../../H-i686-pc-linux-gnu/nios2-elf/lib/mno-hw-mul/libc.a(lib_a-strlen.o)
                              /opt/altera/nios2eds/bin/gnu/H-i686-pc-linux-gnu/bin/../lib/gcc/nios2-elf/4.7.3/../../../../../H-i686-pc-linux-gnu/nios2-elf/lib/mno-hw-mul/libc.a(lib_a-puts.o) (strlen)
/opt/altera/nios2eds/bin/gnu/H-i686-pc-linux-gnu/bin/../lib/gcc/nios2-elf/4.7.3/../../../../../H-i686-pc-linux-gnu/nios2-elf/lib/mno-hw-mul/libc.a(lib_a-vfiprintfr_1.o)
                              /opt/altera/nios2eds/bin/gnu/H-i686-pc-linux-gnu/bin/../lib/gcc/nios2-elf/4.7.3/../../../../../H-i686-pc-linux-gnu/nios2-elf/lib/mno-hw-mul/libc.a(lib_a-fiprintf.o) (_vfiprintf_r)
/opt/altera/nios2eds/bin/gnu/H-i686-pc-linux-gnu/bin/../lib/gcc/nios2-elf/4.7.3/../../../../../H-i686-pc-linux-gnu/nios2-elf/lib/mno-hw-mul/libc.a(lib_a-vfprintf.o)
                              /opt/altera/nios2eds/bin/gnu/H-i686-pc-linux-gnu/bin/../lib/gcc/nios2-elf/4.7.3/../../../../../H-i686-pc-linux-gnu/nios2-elf/lib/mno-hw-mul/libc.a(lib_a-printf.o) (___vfprintf_internal_r)
/opt/altera/nios2eds/bin/gnu/H-i686-pc-linux-gnu/bin/../lib/gcc/nios2-elf/4.7.3/../../../../../H-i686-pc-linux-gnu/nios2-elf/lib/mno-hw-mul/libc.a(lib_a-wsetup.o)
                              /opt/altera/nios2eds/bin/gnu/H-i686-pc-linux-gnu/bin/../lib/gcc/nios2-elf/4.7.3/../../../../../H-i686-pc-linux-gnu/nios2-elf/lib/mno-hw-mul/libc.a(lib_a-vfprintf.o) (__swsetup_r)
/opt/altera/nios2eds/bin/gnu/H-i686-pc-linux-gnu/bin/../lib/gcc/nios2-elf/4.7.3/../../../../../H-i686-pc-linux-gnu/nios2-elf/lib/mno-hw-mul/libc.a(lib_a-abort.o)
                              /opt/altera/nios2eds/bin/gnu/H-i686-pc-linux-gnu/bin/../lib/gcc/nios2-elf/4.7.3/../../../../../H-i686-pc-linux-gnu/nios2-elf/lib/mno-hw-mul/libc.a(lib_a-assert.o) (abort)
/opt/altera/nios2eds/bin/gnu/H-i686-pc-linux-gnu/bin/../lib/gcc/nios2-elf/4.7.3/../../../../../H-i686-pc-linux-gnu/nios2-elf/lib/mno-hw-mul/libc.a(lib_a-dtoa.o)
                              /opt/altera/nios2eds/bin/gnu/H-i686-pc-linux-gnu/bin/../lib/gcc/nios2-elf/4.7.3/../../../../../H-i686-pc-linux-gnu/nios2-elf/lib/mno-hw-mul/libc.a(lib_a-vfprintf.o) (_dtoa_r)
/opt/altera/nios2eds/bin/gnu/H-i686-pc-linux-gnu/bin/../lib/gcc/nios2-elf/4.7.3/../../../../../H-i686-pc-linux-gnu/nios2-elf/lib/mno-hw-mul/libc.a(lib_a-fflush.o)
                              /opt/altera/nios2eds/bin/gnu/H-i686-pc-linux-gnu/bin/../lib/gcc/nios2-elf/4.7.3/../../../../../H-i686-pc-linux-gnu/nios2-elf/lib/mno-hw-mul/libc.a(lib_a-vfprintf.o) (_fflush_r)
/opt/altera/nios2eds/bin/gnu/H-i686-pc-linux-gnu/bin/../lib/gcc/nios2-elf/4.7.3/../../../../../H-i686-pc-linux-gnu/nios2-elf/lib/mno-hw-mul/libc.a(lib_a-findfp.o)
                              /opt/altera/nios2eds/bin/gnu/H-i686-pc-linux-gnu/bin/../lib/gcc/nios2-elf/4.7.3/../../../../../H-i686-pc-linux-gnu/nios2-elf/lib/mno-hw-mul/libc.a(lib_a-vfprintf.o) (__sinit)
/opt/altera/nios2eds/bin/gnu/H-i686-pc-linux-gnu/bin/../lib/gcc/nios2-elf/4.7.3/../../../../../H-i686-pc-linux-gnu/nios2-elf/lib/mno-hw-mul/libc.a(lib_a-freer.o)
                              /opt/altera/nios2eds/bin/gnu/H-i686-pc-linux-gnu/bin/../lib/gcc/nios2-elf/4.7.3/../../../../../H-i686-pc-linux-gnu/nios2-elf/lib/mno-hw-mul/libc.a(lib_a-malloc.o) (_free_r)
/opt/altera/nios2eds/bin/gnu/H-i686-pc-linux-gnu/bin/../lib/gcc/nios2-elf/4.7.3/../../../../../H-i686-pc-linux-gnu/nios2-elf/lib/mno-hw-mul/libc.a(lib_a-fvwrite.o)
                              /opt/altera/nios2eds/bin/gnu/H-i686-pc-linux-gnu/bin/../lib/gcc/nios2-elf/4.7.3/../../../../../H-i686-pc-linux-gnu/nios2-elf/lib/mno-hw-mul/libc.a(lib_a-puts.o) (__sfvwrite_r)
/opt/altera/nios2eds/bin/gnu/H-i686-pc-linux-gnu/bin/../lib/gcc/nios2-elf/4.7.3/../../../../../H-i686-pc-linux-gnu/nios2-elf/lib/mno-hw-mul/libc.a(lib_a-fwalk.o)
                              /opt/altera/nios2eds/bin/gnu/H-i686-pc-linux-gnu/bin/../lib/gcc/nios2-elf/4.7.3/../../../../../H-i686-pc-linux-gnu/nios2-elf/lib/mno-hw-mul/libc.a(lib_a-findfp.o) (_fwalk)
/opt/altera/nios2eds/bin/gnu/H-i686-pc-linux-gnu/bin/../lib/gcc/nios2-elf/4.7.3/../../../../../H-i686-pc-linux-gnu/nios2-elf/lib/mno-hw-mul/libc.a(lib_a-int_errno.o)
                              /opt/altera/nios2eds/bin/gnu/H-i686-pc-linux-gnu/bin/../lib/gcc/nios2-elf/4.7.3/../../../../../H-i686-pc-linux-gnu/nios2-elf/lib/mno-hw-mul/libc.a(lib_a-sbrkr.o) (errno)
/opt/altera/nios2eds/bin/gnu/H-i686-pc-linux-gnu/bin/../lib/gcc/nios2-elf/4.7.3/../../../../../H-i686-pc-linux-gnu/nios2-elf/lib/mno-hw-mul/libc.a(lib_a-locale.o)
                              /opt/altera/nios2eds/bin/gnu/H-i686-pc-linux-gnu/bin/../lib/gcc/nios2-elf/4.7.3/../../../../../H-i686-pc-linux-gnu/nios2-elf/lib/mno-hw-mul/libc.a(lib_a-vfprintf.o) (_localeconv_r)
/opt/altera/nios2eds/bin/gnu/H-i686-pc-linux-gnu/bin/../lib/gcc/nios2-elf/4.7.3/../../../../../H-i686-pc-linux-gnu/nios2-elf/lib/mno-hw-mul/libc.a(lib_a-makebuf.o)
                              /opt/altera/nios2eds/bin/gnu/H-i686-pc-linux-gnu/bin/../lib/gcc/nios2-elf/4.7.3/../../../../../H-i686-pc-linux-gnu/nios2-elf/lib/mno-hw-mul/libc.a(lib_a-wsetup.o) (__smakebuf_r)
/opt/altera/nios2eds/bin/gnu/H-i686-pc-linux-gnu/bin/../lib/gcc/nios2-elf/4.7.3/../../../../../H-i686-pc-linux-gnu/nios2-elf/lib/mno-hw-mul/libc.a(lib_a-memchr.o)
                              /opt/altera/nios2eds/bin/gnu/H-i686-pc-linux-gnu/bin/../lib/gcc/nios2-elf/4.7.3/../../../../../H-i686-pc-linux-gnu/nios2-elf/lib/mno-hw-mul/libc.a(lib_a-vfprintf.o) (memchr)
/opt/altera/nios2eds/bin/gnu/H-i686-pc-linux-gnu/bin/../lib/gcc/nios2-elf/4.7.3/../../../../../H-i686-pc-linux-gnu/nios2-elf/lib/mno-hw-mul/libc.a(lib_a-memcpy.o)
                              /opt/altera/nios2eds/bin/gnu/H-i686-pc-linux-gnu/bin/../lib/gcc/nios2-elf/4.7.3/../../../../../H-i686-pc-linux-gnu/nios2-elf/lib/mno-hw-mul/libc.a(lib_a-dtoa.o) (memcpy)
/opt/altera/nios2eds/bin/gnu/H-i686-pc-linux-gnu/bin/../lib/gcc/nios2-elf/4.7.3/../../../../../H-i686-pc-linux-gnu/nios2-elf/lib/mno-hw-mul/libc.a(lib_a-memmove.o)
                              /opt/altera/nios2eds/bin/gnu/H-i686-pc-linux-gnu/bin/../lib/gcc/nios2-elf/4.7.3/../../../../../H-i686-pc-linux-gnu/nios2-elf/lib/mno-hw-mul/libc.a(lib_a-fvwrite.o) (memmove)
/opt/altera/nios2eds/bin/gnu/H-i686-pc-linux-gnu/bin/../lib/gcc/nios2-elf/4.7.3/../../../../../H-i686-pc-linux-gnu/nios2-elf/lib/mno-hw-mul/libc.a(lib_a-memset.o)
                              /opt/altera/nios2eds/bin/gnu/H-i686-pc-linux-gnu/bin/../lib/gcc/nios2-elf/4.7.3/../../../../../H-i686-pc-linux-gnu/nios2-elf/lib/mno-hw-mul/libc.a(lib_a-findfp.o) (memset)
/opt/altera/nios2eds/bin/gnu/H-i686-pc-linux-gnu/bin/../lib/gcc/nios2-elf/4.7.3/../../../../../H-i686-pc-linux-gnu/nios2-elf/lib/mno-hw-mul/libc.a(lib_a-mprec.o)
                              /opt/altera/nios2eds/bin/gnu/H-i686-pc-linux-gnu/bin/../lib/gcc/nios2-elf/4.7.3/../../../../../H-i686-pc-linux-gnu/nios2-elf/lib/mno-hw-mul/libc.a(lib_a-dtoa.o) (_Balloc)
/opt/altera/nios2eds/bin/gnu/H-i686-pc-linux-gnu/bin/../lib/gcc/nios2-elf/4.7.3/../../../../../H-i686-pc-linux-gnu/nios2-elf/lib/mno-hw-mul/libc.a(lib_a-reallocr.o)
                              /opt/altera/nios2eds/bin/gnu/H-i686-pc-linux-gnu/bin/../lib/gcc/nios2-elf/4.7.3/../../../../../H-i686-pc-linux-gnu/nios2-elf/lib/mno-hw-mul/libc.a(lib_a-fvwrite.o) (_realloc_r)
/opt/altera/nios2eds/bin/gnu/H-i686-pc-linux-gnu/bin/../lib/gcc/nios2-elf/4.7.3/../../../../../H-i686-pc-linux-gnu/nios2-elf/lib/mno-hw-mul/libc.a(lib_a-s_isinfd.o)
                              /opt/altera/nios2eds/bin/gnu/H-i686-pc-linux-gnu/bin/../lib/gcc/nios2-elf/4.7.3/../../../../../H-i686-pc-linux-gnu/nios2-elf/lib/mno-hw-mul/libc.a(lib_a-vfprintf.o) (__isinfd)
/opt/altera/nios2eds/bin/gnu/H-i686-pc-linux-gnu/bin/../lib/gcc/nios2-elf/4.7.3/../../../../../H-i686-pc-linux-gnu/nios2-elf/lib/mno-hw-mul/libc.a(lib_a-s_isnand.o)
                              /opt/altera/nios2eds/bin/gnu/H-i686-pc-linux-gnu/bin/../lib/gcc/nios2-elf/4.7.3/../../../../../H-i686-pc-linux-gnu/nios2-elf/lib/mno-hw-mul/libc.a(lib_a-vfprintf.o) (__isnand)
/opt/altera/nios2eds/bin/gnu/H-i686-pc-linux-gnu/bin/../lib/gcc/nios2-elf/4.7.3/../../../../../H-i686-pc-linux-gnu/nios2-elf/lib/mno-hw-mul/libc.a(lib_a-signal.o)
                              /opt/altera/nios2eds/bin/gnu/H-i686-pc-linux-gnu/bin/../lib/gcc/nios2-elf/4.7.3/../../../../../H-i686-pc-linux-gnu/nios2-elf/lib/mno-hw-mul/libc.a(lib_a-abort.o) (raise)
/opt/altera/nios2eds/bin/gnu/H-i686-pc-linux-gnu/bin/../lib/gcc/nios2-elf/4.7.3/../../../../../H-i686-pc-linux-gnu/nios2-elf/lib/mno-hw-mul/libc.a(lib_a-signalr.o)
                              /opt/altera/nios2eds/bin/gnu/H-i686-pc-linux-gnu/bin/../lib/gcc/nios2-elf/4.7.3/../../../../../H-i686-pc-linux-gnu/nios2-elf/lib/mno-hw-mul/libc.a(lib_a-signal.o) (_kill_r)
/opt/altera/nios2eds/bin/gnu/H-i686-pc-linux-gnu/bin/../lib/gcc/nios2-elf/4.7.3/../../../../../H-i686-pc-linux-gnu/nios2-elf/lib/mno-hw-mul/libc.a(lib_a-stdio.o)
                              /opt/altera/nios2eds/bin/gnu/H-i686-pc-linux-gnu/bin/../lib/gcc/nios2-elf/4.7.3/../../../../../H-i686-pc-linux-gnu/nios2-elf/lib/mno-hw-mul/libc.a(lib_a-findfp.o) (__sread)
/opt/altera/nios2eds/bin/gnu/H-i686-pc-linux-gnu/bin/../lib/gcc/nios2-elf/4.7.3/../../../../../H-i686-pc-linux-gnu/nios2-elf/lib/mno-hw-mul/libc.a(lib_a-strcmp.o)
                              /opt/altera/nios2eds/bin/gnu/H-i686-pc-linux-gnu/bin/../lib/gcc/nios2-elf/4.7.3/../../../../../H-i686-pc-linux-gnu/nios2-elf/lib/mno-hw-mul/libc.a(lib_a-locale.o) (strcmp)
/opt/altera/nios2eds/bin/gnu/H-i686-pc-linux-gnu/bin/../lib/gcc/nios2-elf/4.7.3/../../../../../H-i686-pc-linux-gnu/nios2-elf/lib/mno-hw-mul/libc.a(lib_a-vfiprintf.o)
                              /opt/altera/nios2eds/bin/gnu/H-i686-pc-linux-gnu/bin/../lib/gcc/nios2-elf/4.7.3/../../../../../H-i686-pc-linux-gnu/nios2-elf/lib/mno-hw-mul/libc.a(lib_a-vfiprintfr_1.o) (___vfiprintf_internal_r)
/opt/altera/nios2eds/bin/gnu/H-i686-pc-linux-gnu/bin/../lib/gcc/nios2-elf/4.7.3/../../../../../H-i686-pc-linux-gnu/nios2-elf/lib/mno-hw-mul/libc.a(lib_a-writer.o)
                              /opt/altera/nios2eds/bin/gnu/H-i686-pc-linux-gnu/bin/../lib/gcc/nios2-elf/4.7.3/../../../../../H-i686-pc-linux-gnu/nios2-elf/lib/mno-hw-mul/libc.a(lib_a-stdio.o) (_write_r)
/opt/altera/nios2eds/bin/gnu/H-i686-pc-linux-gnu/bin/../lib/gcc/nios2-elf/4.7.3/../../../../../H-i686-pc-linux-gnu/nios2-elf/lib/mno-hw-mul/libc.a(lib_a-callocr.o)
                              /opt/altera/nios2eds/bin/gnu/H-i686-pc-linux-gnu/bin/../lib/gcc/nios2-elf/4.7.3/../../../../../H-i686-pc-linux-gnu/nios2-elf/lib/mno-hw-mul/libc.a(lib_a-mprec.o) (_calloc_r)
/opt/altera/nios2eds/bin/gnu/H-i686-pc-linux-gnu/bin/../lib/gcc/nios2-elf/4.7.3/../../../../../H-i686-pc-linux-gnu/nios2-elf/lib/mno-hw-mul/libc.a(lib_a-closer.o)
                              /opt/altera/nios2eds/bin/gnu/H-i686-pc-linux-gnu/bin/../lib/gcc/nios2-elf/4.7.3/../../../../../H-i686-pc-linux-gnu/nios2-elf/lib/mno-hw-mul/libc.a(lib_a-stdio.o) (_close_r)
/opt/altera/nios2eds/bin/gnu/H-i686-pc-linux-gnu/bin/../lib/gcc/nios2-elf/4.7.3/../../../../../H-i686-pc-linux-gnu/nios2-elf/lib/mno-hw-mul/libc.a(lib_a-fclose.o)
                              /opt/altera/nios2eds/bin/gnu/H-i686-pc-linux-gnu/bin/../lib/gcc/nios2-elf/4.7.3/../../../../../H-i686-pc-linux-gnu/nios2-elf/lib/mno-hw-mul/libc.a(lib_a-findfp.o) (fclose)
/opt/altera/nios2eds/bin/gnu/H-i686-pc-linux-gnu/bin/../lib/gcc/nios2-elf/4.7.3/../../../../../H-i686-pc-linux-gnu/nios2-elf/lib/mno-hw-mul/libc.a(lib_a-fstatr.o)
                              /opt/altera/nios2eds/bin/gnu/H-i686-pc-linux-gnu/bin/../lib/gcc/nios2-elf/4.7.3/../../../../../H-i686-pc-linux-gnu/nios2-elf/lib/mno-hw-mul/libc.a(lib_a-makebuf.o) (_fstat_r)
/opt/altera/nios2eds/bin/gnu/H-i686-pc-linux-gnu/bin/../lib/gcc/nios2-elf/4.7.3/../../../../../H-i686-pc-linux-gnu/nios2-elf/lib/mno-hw-mul/libc.a(lib_a-isattyr.o)
                              /opt/altera/nios2eds/bin/gnu/H-i686-pc-linux-gnu/bin/../lib/gcc/nios2-elf/4.7.3/../../../../../H-i686-pc-linux-gnu/nios2-elf/lib/mno-hw-mul/libc.a(lib_a-makebuf.o) (_isatty_r)
/opt/altera/nios2eds/bin/gnu/H-i686-pc-linux-gnu/bin/../lib/gcc/nios2-elf/4.7.3/../../../../../H-i686-pc-linux-gnu/nios2-elf/lib/mno-hw-mul/libc.a(lib_a-lseekr.o)
                              /opt/altera/nios2eds/bin/gnu/H-i686-pc-linux-gnu/bin/../lib/gcc/nios2-elf/4.7.3/../../../../../H-i686-pc-linux-gnu/nios2-elf/lib/mno-hw-mul/libc.a(lib_a-stdio.o) (_lseek_r)
/opt/altera/nios2eds/bin/gnu/H-i686-pc-linux-gnu/bin/../lib/gcc/nios2-elf/4.7.3/../../../../../H-i686-pc-linux-gnu/nios2-elf/lib/mno-hw-mul/libc.a(lib_a-readr.o)
                              /opt/altera/nios2eds/bin/gnu/H-i686-pc-linux-gnu/bin/../lib/gcc/nios2-elf/4.7.3/../../../../../H-i686-pc-linux-gnu/nios2-elf/lib/mno-hw-mul/libc.a(lib_a-stdio.o) (_read_r)
/opt/altera/nios2eds/bin/gnu/H-i686-pc-linux-gnu/bin/../lib/gcc/nios2-elf/4.7.3/mno-hw-mul/libgcc.a(_udivdi3.o)
                              /opt/altera/nios2eds/bin/gnu/H-i686-pc-linux-gnu/bin/../lib/gcc/nios2-elf/4.7.3/../../../../../H-i686-pc-linux-gnu/nios2-elf/lib/mno-hw-mul/libc.a(lib_a-vfprintf.o) (__udivdi3)
/opt/altera/nios2eds/bin/gnu/H-i686-pc-linux-gnu/bin/../lib/gcc/nios2-elf/4.7.3/mno-hw-mul/libgcc.a(_umoddi3.o)
                              /opt/altera/nios2eds/bin/gnu/H-i686-pc-linux-gnu/bin/../lib/gcc/nios2-elf/4.7.3/../../../../../H-i686-pc-linux-gnu/nios2-elf/lib/mno-hw-mul/libc.a(lib_a-vfprintf.o) (__umoddi3)
/opt/altera/nios2eds/bin/gnu/H-i686-pc-linux-gnu/bin/../lib/gcc/nios2-elf/4.7.3/mno-hw-mul/libgcc.a(_ne_df.o)
                              /opt/altera/nios2eds/bin/gnu/H-i686-pc-linux-gnu/bin/../lib/gcc/nios2-elf/4.7.3/../../../../../H-i686-pc-linux-gnu/nios2-elf/lib/mno-hw-mul/libc.a(lib_a-vfprintf.o) (__nedf2)
/opt/altera/nios2eds/bin/gnu/H-i686-pc-linux-gnu/bin/../lib/gcc/nios2-elf/4.7.3/mno-hw-mul/libgcc.a(_gt_df.o)
                              /opt/altera/nios2eds/bin/gnu/H-i686-pc-linux-gnu/bin/../lib/gcc/nios2-elf/4.7.3/../../../../../H-i686-pc-linux-gnu/nios2-elf/lib/mno-hw-mul/libc.a(lib_a-dtoa.o) (__gtdf2)
/opt/altera/nios2eds/bin/gnu/H-i686-pc-linux-gnu/bin/../lib/gcc/nios2-elf/4.7.3/mno-hw-mul/libgcc.a(_lt_df.o)
                              /opt/altera/nios2eds/bin/gnu/H-i686-pc-linux-gnu/bin/../lib/gcc/nios2-elf/4.7.3/../../../../../H-i686-pc-linux-gnu/nios2-elf/lib/mno-hw-mul/libc.a(lib_a-vfprintf.o) (__ltdf2)
/opt/altera/nios2eds/bin/gnu/H-i686-pc-linux-gnu/bin/../lib/gcc/nios2-elf/4.7.3/mno-hw-mul/libgcc.a(_usi_to_df.o)
                              /opt/altera/nios2eds/bin/gnu/H-i686-pc-linux-gnu/bin/../lib/gcc/nios2-elf/4.7.3/../../../../../H-i686-pc-linux-gnu/nios2-elf/lib/mno-hw-mul/libc.a(lib_a-dtoa.o) (__floatunsidf)
../legocar_firmware_microc_bsp//libucosii_bsp.a(alt_close.o)
                              /opt/altera/nios2eds/bin/gnu/H-i686-pc-linux-gnu/bin/../lib/gcc/nios2-elf/4.7.3/../../../../../H-i686-pc-linux-gnu/nios2-elf/lib/mno-hw-mul/libc.a(lib_a-closer.o) (close)
../legocar_firmware_microc_bsp//libucosii_bsp.a(alt_dcache_flush.o)
                              obj/default/terasic_lib/flash.o (alt_dcache_flush)
../legocar_firmware_microc_bsp//libucosii_bsp.a(alt_dcache_flush_all.o)
                              obj/default/terasic_lib/flash.o (alt_dcache_flush_all)
../legocar_firmware_microc_bsp//libucosii_bsp.a(alt_dev.o)
                              ../legocar_firmware_microc_bsp//libucosii_bsp.a(alt_close.o) (alt_fd_list)
../legocar_firmware_microc_bsp//libucosii_bsp.a(alt_errno.o)
                              ../legocar_firmware_microc_bsp//libucosii_bsp.a(alt_close.o) (alt_errno)
../legocar_firmware_microc_bsp//libucosii_bsp.a(alt_exit.o)
                              /opt/altera/nios2eds/bin/gnu/H-i686-pc-linux-gnu/bin/../lib/gcc/nios2-elf/4.7.3/../../../../../H-i686-pc-linux-gnu/nios2-elf/lib/mno-hw-mul/libc.a(lib_a-abort.o) (_exit)
../legocar_firmware_microc_bsp//libucosii_bsp.a(alt_flash_dev.o)
                              obj/default/terasic_lib/flash.o (alt_flash_open_dev)
../legocar_firmware_microc_bsp//libucosii_bsp.a(alt_fstat.o)
                              /opt/altera/nios2eds/bin/gnu/H-i686-pc-linux-gnu/bin/../lib/gcc/nios2-elf/4.7.3/../../../../../H-i686-pc-linux-gnu/nios2-elf/lib/mno-hw-mul/libc.a(lib_a-fstatr.o) (fstat)
../legocar_firmware_microc_bsp//libucosii_bsp.a(alt_getpid.o)
                              /opt/altera/nios2eds/bin/gnu/H-i686-pc-linux-gnu/bin/../lib/gcc/nios2-elf/4.7.3/../../../../../H-i686-pc-linux-gnu/nios2-elf/lib/mno-hw-mul/libc.a(lib_a-signalr.o) (getpid)
../legocar_firmware_microc_bsp//libucosii_bsp.a(alt_isatty.o)
                              /opt/altera/nios2eds/bin/gnu/H-i686-pc-linux-gnu/bin/../lib/gcc/nios2-elf/4.7.3/../../../../../H-i686-pc-linux-gnu/nios2-elf/lib/mno-hw-mul/libc.a(lib_a-isattyr.o) (isatty)
../legocar_firmware_microc_bsp//libucosii_bsp.a(alt_kill.o)
                              /opt/altera/nios2eds/bin/gnu/H-i686-pc-linux-gnu/bin/../lib/gcc/nios2-elf/4.7.3/../../../../../H-i686-pc-linux-gnu/nios2-elf/lib/mno-hw-mul/libc.a(lib_a-signalr.o) (kill)
../legocar_firmware_microc_bsp//libucosii_bsp.a(alt_load.o)
                              ../legocar_firmware_microc_bsp//obj/HAL/src/crt0.o (alt_load)
../legocar_firmware_microc_bsp//libucosii_bsp.a(alt_lseek.o)
                              /opt/altera/nios2eds/bin/gnu/H-i686-pc-linux-gnu/bin/../lib/gcc/nios2-elf/4.7.3/../../../../../H-i686-pc-linux-gnu/nios2-elf/lib/mno-hw-mul/libc.a(lib_a-lseekr.o) (lseek)
../legocar_firmware_microc_bsp//libucosii_bsp.a(alt_main.o)
                              ../legocar_firmware_microc_bsp//obj/HAL/src/crt0.o (alt_main)
../legocar_firmware_microc_bsp//libucosii_bsp.a(alt_read.o)
                              /opt/altera/nios2eds/bin/gnu/H-i686-pc-linux-gnu/bin/../lib/gcc/nios2-elf/4.7.3/../../../../../H-i686-pc-linux-gnu/nios2-elf/lib/mno-hw-mul/libc.a(lib_a-readr.o) (read)
../legocar_firmware_microc_bsp//libucosii_bsp.a(alt_release_fd.o)
                              ../legocar_firmware_microc_bsp//libucosii_bsp.a(alt_close.o) (alt_release_fd)
../legocar_firmware_microc_bsp//libucosii_bsp.a(alt_sbrk.o)
                              /opt/altera/nios2eds/bin/gnu/H-i686-pc-linux-gnu/bin/../lib/gcc/nios2-elf/4.7.3/../../../../../H-i686-pc-linux-gnu/nios2-elf/lib/mno-hw-mul/libc.a(lib_a-sbrkr.o) (sbrk)
../legocar_firmware_microc_bsp//libucosii_bsp.a(alt_tick.o)
                              obj/default/terasic_lib/accelerometer_adxl345_spi.o (_alt_tick_rate)
../legocar_firmware_microc_bsp//libucosii_bsp.a(alt_usleep.o)
                              obj/default/terasic_lib/I2C.o (usleep)
../legocar_firmware_microc_bsp//libucosii_bsp.a(alt_write.o)
                              /opt/altera/nios2eds/bin/gnu/H-i686-pc-linux-gnu/bin/../lib/gcc/nios2-elf/4.7.3/../../../../../H-i686-pc-linux-gnu/nios2-elf/lib/mno-hw-mul/libc.a(lib_a-writer.o) (write)
../legocar_firmware_microc_bsp//libucosii_bsp.a(alt_env_lock.o)
                              ../legocar_firmware_microc_bsp//libucosii_bsp.a(alt_main.o) (alt_envsem)
../legocar_firmware_microc_bsp//libucosii_bsp.a(alt_malloc_lock.o)
                              ../legocar_firmware_microc_bsp//libucosii_bsp.a(alt_main.o) (alt_heapsem)
../legocar_firmware_microc_bsp//libucosii_bsp.a(os_core.o)
                              ../legocar_firmware_microc_bsp//libucosii_bsp.a(alt_exit.o) (OSRunning)
../legocar_firmware_microc_bsp//libucosii_bsp.a(os_dbg.o)
                              ../legocar_firmware_microc_bsp//libucosii_bsp.a(os_core.o) (OSDebugInit)
../legocar_firmware_microc_bsp//libucosii_bsp.a(os_flag.o)
                              ../legocar_firmware_microc_bsp//libucosii_bsp.a(os_core.o) (OS_FlagInit)
../legocar_firmware_microc_bsp//libucosii_bsp.a(os_mem.o)
                              ../legocar_firmware_microc_bsp//libucosii_bsp.a(os_core.o) (OS_MemInit)
../legocar_firmware_microc_bsp//libucosii_bsp.a(os_q.o)
                              ../legocar_firmware_microc_bsp//libucosii_bsp.a(os_core.o) (OS_QInit)
../legocar_firmware_microc_bsp//libucosii_bsp.a(os_sem.o)
                              ../legocar_firmware_microc_bsp//libucosii_bsp.a(alt_main.o) (OSSemCreate)
../legocar_firmware_microc_bsp//libucosii_bsp.a(os_task.o)
                              obj/default/main.o (OSTaskCreateExt)
../legocar_firmware_microc_bsp//libucosii_bsp.a(os_time.o)
                              ../legocar_firmware_microc_bsp//libucosii_bsp.a(alt_usleep.o) (OSTimeDly)
../legocar_firmware_microc_bsp//libucosii_bsp.a(alt_sys_init.o)
                              ../legocar_firmware_microc_bsp//libucosii_bsp.a(alt_main.o) (alt_irq_init)
../legocar_firmware_microc_bsp//libucosii_bsp.a(altera_avalon_epcs_flash_controller.o)
                              ../legocar_firmware_microc_bsp//libucosii_bsp.a(alt_sys_init.o) (alt_epcs_flash_init)
../legocar_firmware_microc_bsp//libucosii_bsp.a(altera_avalon_jtag_uart_fd.o)
                              ../legocar_firmware_microc_bsp//libucosii_bsp.a(alt_sys_init.o) (altera_avalon_jtag_uart_read_fd)
../legocar_firmware_microc_bsp//libucosii_bsp.a(altera_avalon_jtag_uart_init.o)
                              ../legocar_firmware_microc_bsp//libucosii_bsp.a(alt_sys_init.o) (altera_avalon_jtag_uart_init)
../legocar_firmware_microc_bsp//libucosii_bsp.a(altera_avalon_jtag_uart_ioctl.o)
                              ../legocar_firmware_microc_bsp//libucosii_bsp.a(altera_avalon_jtag_uart_fd.o) (altera_avalon_jtag_uart_ioctl)
../legocar_firmware_microc_bsp//libucosii_bsp.a(altera_avalon_jtag_uart_read.o)
                              ../legocar_firmware_microc_bsp//libucosii_bsp.a(altera_avalon_jtag_uart_fd.o) (altera_avalon_jtag_uart_read)
../legocar_firmware_microc_bsp//libucosii_bsp.a(altera_avalon_jtag_uart_write.o)
                              ../legocar_firmware_microc_bsp//libucosii_bsp.a(altera_avalon_jtag_uart_fd.o) (altera_avalon_jtag_uart_write)
../legocar_firmware_microc_bsp//libucosii_bsp.a(altera_avalon_timer_sc.o)
                              ../legocar_firmware_microc_bsp//libucosii_bsp.a(alt_sys_init.o) (alt_avalon_timer_sc_init)
../legocar_firmware_microc_bsp//libucosii_bsp.a(altera_avalon_uart_fd.o)
                              ../legocar_firmware_microc_bsp//libucosii_bsp.a(alt_sys_init.o) (altera_avalon_uart_read_fd)
../legocar_firmware_microc_bsp//libucosii_bsp.a(altera_avalon_uart_init.o)
                              ../legocar_firmware_microc_bsp//libucosii_bsp.a(alt_sys_init.o) (altera_avalon_uart_init)
../legocar_firmware_microc_bsp//libucosii_bsp.a(altera_avalon_uart_read.o)
                              ../legocar_firmware_microc_bsp//libucosii_bsp.a(altera_avalon_uart_fd.o) (altera_avalon_uart_read)
../legocar_firmware_microc_bsp//libucosii_bsp.a(altera_avalon_uart_write.o)
                              ../legocar_firmware_microc_bsp//libucosii_bsp.a(altera_avalon_uart_fd.o) (altera_avalon_uart_write)
../legocar_firmware_microc_bsp//libucosii_bsp.a(epcs_commands.o)
                              ../legocar_firmware_microc_bsp//libucosii_bsp.a(altera_avalon_epcs_flash_controller.o) (epcs_sector_erase)
../legocar_firmware_microc_bsp//libucosii_bsp.a(alt_alarm_start.o)
                              ../legocar_firmware_microc_bsp//libucosii_bsp.a(altera_avalon_jtag_uart_init.o) (alt_alarm_start)
../legocar_firmware_microc_bsp//libucosii_bsp.a(alt_busy_sleep.o)
                              ../legocar_firmware_microc_bsp//libucosii_bsp.a(alt_usleep.o) (alt_busy_sleep)
../legocar_firmware_microc_bsp//libucosii_bsp.a(alt_dev_llist_insert.o)
                              ../legocar_firmware_microc_bsp//libucosii_bsp.a(alt_sys_init.o) (alt_dev_llist_insert)
../legocar_firmware_microc_bsp//libucosii_bsp.a(alt_do_ctors.o)
                              ../legocar_firmware_microc_bsp//libucosii_bsp.a(alt_main.o) (_do_ctors)
../legocar_firmware_microc_bsp//libucosii_bsp.a(alt_do_dtors.o)
                              ../legocar_firmware_microc_bsp//libucosii_bsp.a(alt_main.o) (_do_dtors)
../legocar_firmware_microc_bsp//libucosii_bsp.a(alt_find_dev.o)
                              ../legocar_firmware_microc_bsp//libucosii_bsp.a(alt_flash_dev.o) (alt_find_dev)
../legocar_firmware_microc_bsp//libucosii_bsp.a(alt_icache_flush_all.o)
                              ../legocar_firmware_microc_bsp//libucosii_bsp.a(alt_load.o) (alt_icache_flush_all)
../legocar_firmware_microc_bsp//libucosii_bsp.a(alt_iic.o)
                              ../legocar_firmware_microc_bsp//libucosii_bsp.a(altera_avalon_jtag_uart_init.o) (alt_ic_isr_register)
../legocar_firmware_microc_bsp//libucosii_bsp.a(alt_iic_isr_register.o)
                              ../legocar_firmware_microc_bsp//libucosii_bsp.a(alt_iic.o) (alt_iic_isr_register)
../legocar_firmware_microc_bsp//libucosii_bsp.a(alt_io_redirect.o)
                              ../legocar_firmware_microc_bsp//libucosii_bsp.a(alt_main.o) (alt_io_redirect)
../legocar_firmware_microc_bsp//libucosii_bsp.a(alt_irq_entry.o)
                              ../legocar_firmware_microc_bsp//libucosii_bsp.a(alt_iic_isr_register.o) (alt_irq_entry)
../legocar_firmware_microc_bsp//libucosii_bsp.a(alt_irq_handler.o)
                              ../legocar_firmware_microc_bsp//libucosii_bsp.a(alt_iic_isr_register.o) (alt_irq)
../legocar_firmware_microc_bsp//libucosii_bsp.a(alt_irq_vars.o)
                              ../legocar_firmware_microc_bsp//libucosii_bsp.a(alt_iic.o) (alt_irq_active)
../legocar_firmware_microc_bsp//libucosii_bsp.a(alt_open.o)
                              ../legocar_firmware_microc_bsp//libucosii_bsp.a(alt_io_redirect.o) (open)
../legocar_firmware_microc_bsp//libucosii_bsp.a(altera_nios2_irq.o)
                              ../legocar_firmware_microc_bsp//libucosii_bsp.a(alt_sys_init.o) (altera_nios2_irq_init)
../legocar_firmware_microc_bsp//libucosii_bsp.a(os_cpu_a.o)
                              ../legocar_firmware_microc_bsp//libucosii_bsp.a(os_core.o) (OSIntCtxSw)
../legocar_firmware_microc_bsp//libucosii_bsp.a(os_cpu_c.o)
                              ../legocar_firmware_microc_bsp//libucosii_bsp.a(os_task.o) (OSTaskStkInit)
../legocar_firmware_microc_bsp//libucosii_bsp.a(altera_avalon_spi.o)
                              ../legocar_firmware_microc_bsp//libucosii_bsp.a(epcs_commands.o) (alt_avalon_spi_command)
../legocar_firmware_microc_bsp//libucosii_bsp.a(alt_exception_entry.o)
                              ../legocar_firmware_microc_bsp//libucosii_bsp.a(alt_irq_entry.o) (alt_exception)
../legocar_firmware_microc_bsp//libucosii_bsp.a(alt_find_file.o)
                              ../legocar_firmware_microc_bsp//libucosii_bsp.a(alt_open.o) (alt_find_file)
../legocar_firmware_microc_bsp//libucosii_bsp.a(alt_get_fd.o)
                              ../legocar_firmware_microc_bsp//libucosii_bsp.a(alt_open.o) (alt_get_fd)
/opt/altera/nios2eds/bin/gnu/H-i686-pc-linux-gnu/bin/../lib/gcc/nios2-elf/4.7.3/../../../../../H-i686-pc-linux-gnu/nios2-elf/lib/mno-hw-mul/libc.a(lib_a-atexit.o)
                              ../legocar_firmware_microc_bsp//libucosii_bsp.a(alt_main.o) (atexit)
/opt/altera/nios2eds/bin/gnu/H-i686-pc-linux-gnu/bin/../lib/gcc/nios2-elf/4.7.3/../../../../../H-i686-pc-linux-gnu/nios2-elf/lib/mno-hw-mul/libc.a(lib_a-exit.o)
                              ../legocar_firmware_microc_bsp//libucosii_bsp.a(alt_main.o) (exit)
/opt/altera/nios2eds/bin/gnu/H-i686-pc-linux-gnu/bin/../lib/gcc/nios2-elf/4.7.3/../../../../../H-i686-pc-linux-gnu/nios2-elf/lib/mno-hw-mul/libc.a(lib_a-memcmp.o)
                              ../legocar_firmware_microc_bsp//libucosii_bsp.a(altera_avalon_epcs_flash_controller.o) (memcmp)
/opt/altera/nios2eds/bin/gnu/H-i686-pc-linux-gnu/bin/../lib/gcc/nios2-elf/4.7.3/../../../../../H-i686-pc-linux-gnu/nios2-elf/lib/mno-hw-mul/libc.a(lib_a-__atexit.o)
                              /opt/altera/nios2eds/bin/gnu/H-i686-pc-linux-gnu/bin/../lib/gcc/nios2-elf/4.7.3/../../../../../H-i686-pc-linux-gnu/nios2-elf/lib/mno-hw-mul/libc.a(lib_a-atexit.o) (__register_exitproc)
/opt/altera/nios2eds/bin/gnu/H-i686-pc-linux-gnu/bin/../lib/gcc/nios2-elf/4.7.3/../../../../../H-i686-pc-linux-gnu/nios2-elf/lib/mno-hw-mul/libc.a(lib_a-__call_atexit.o)
                              /opt/altera/nios2eds/bin/gnu/H-i686-pc-linux-gnu/bin/../lib/gcc/nios2-elf/4.7.3/../../../../../H-i686-pc-linux-gnu/nios2-elf/lib/mno-hw-mul/libc.a(lib_a-exit.o) (__call_exitprocs)

Allocating common symbols
Common symbol       size              file

car                 0x10c             obj/default/main.o
alt_irq             0x100             ../legocar_firmware_microc_bsp//libucosii_bsp.a(alt_irq_handler.o)
OSLockNesting       0x1               ../legocar_firmware_microc_bsp//libucosii_bsp.a(os_core.o)
OSRunning           0x1               ../legocar_firmware_microc_bsp//libucosii_bsp.a(os_core.o)
ins                 0x64              obj/default/main.o
OSIdleCtr           0x4               ../legocar_firmware_microc_bsp//libucosii_bsp.a(os_core.o)
OSPrioHighRdy       0x1               ../legocar_firmware_microc_bsp//libucosii_bsp.a(os_core.o)
errno               0x4               /opt/altera/nios2eds/bin/gnu/H-i686-pc-linux-gnu/bin/../lib/gcc/nios2-elf/4.7.3/../../../../../H-i686-pc-linux-gnu/nios2-elf/lib/mno-hw-mul/libc.a(lib_a-int_errno.o)
alt_heapsem         0x4               ../legocar_firmware_microc_bsp//libucosii_bsp.a(alt_malloc_lock.o)
OSFlagTbl           0x370             ../legocar_firmware_microc_bsp//libucosii_bsp.a(os_core.o)
OSPrioCur           0x1               ../legocar_firmware_microc_bsp//libucosii_bsp.a(os_core.o)
OSTCBList           0x4               ../legocar_firmware_microc_bsp//libucosii_bsp.a(os_core.o)
alt_fd_list_lock    0x4               ../legocar_firmware_microc_bsp//libucosii_bsp.a(alt_dev.o)
OSMemTbl            0xc30             ../legocar_firmware_microc_bsp//libucosii_bsp.a(os_core.o)
OSTickStepState     0x1               ../legocar_firmware_microc_bsp//libucosii_bsp.a(os_core.o)
OSTaskStatStk       0x800             ../legocar_firmware_microc_bsp//libucosii_bsp.a(os_core.o)
OSCtxSwCtr          0x4               ../legocar_firmware_microc_bsp//libucosii_bsp.a(os_core.o)
OSIdleCtrMax        0x4               ../legocar_firmware_microc_bsp//libucosii_bsp.a(os_core.o)
OSTCBFreeList       0x4               ../legocar_firmware_microc_bsp//libucosii_bsp.a(os_core.o)
acc_sensor_task_stk
                    0x1000            obj/default/main.o
OSCPUUsage          0x1               ../legocar_firmware_microc_bsp//libucosii_bsp.a(os_core.o)
OSTaskCtr           0x1               ../legocar_firmware_microc_bsp//libucosii_bsp.a(os_core.o)
OSMemFreeList       0x4               ../legocar_firmware_microc_bsp//libucosii_bsp.a(os_core.o)
stabilizer_task_stk
                    0x1000            obj/default/main.o
OSQTbl              0x1e0             ../legocar_firmware_microc_bsp//libucosii_bsp.a(os_core.o)
OSTCBHighRdy        0x4               ../legocar_firmware_microc_bsp//libucosii_bsp.a(os_core.o)
OSQFreeList         0x4               ../legocar_firmware_microc_bsp//libucosii_bsp.a(os_core.o)
OSRdyGrp            0x1               ../legocar_firmware_microc_bsp//libucosii_bsp.a(os_core.o)
_atexit0            0x190             /opt/altera/nios2eds/bin/gnu/H-i686-pc-linux-gnu/bin/../lib/gcc/nios2-elf/4.7.3/../../../../../H-i686-pc-linux-gnu/nios2-elf/lib/mno-hw-mul/libc.a(lib_a-atexit.o)
OSRdyTbl            0x3               ../legocar_firmware_microc_bsp//libucosii_bsp.a(os_core.o)
OSEventFreeList     0x4               ../legocar_firmware_microc_bsp//libucosii_bsp.a(os_core.o)
OSIntNesting        0x1               ../legocar_firmware_microc_bsp//libucosii_bsp.a(os_core.o)
OSTCBCur            0x4               ../legocar_firmware_microc_bsp//libucosii_bsp.a(os_core.o)
OSTime              0x4               ../legocar_firmware_microc_bsp//libucosii_bsp.a(os_core.o)
OSTaskIdleStk       0x800             ../legocar_firmware_microc_bsp//libucosii_bsp.a(os_core.o)
OSEventTbl          0xb40             ../legocar_firmware_microc_bsp//libucosii_bsp.a(os_core.o)
OSTCBTbl            0x510             ../legocar_firmware_microc_bsp//libucosii_bsp.a(os_core.o)
OSFlagFreeList      0x4               ../legocar_firmware_microc_bsp//libucosii_bsp.a(os_core.o)
OSStatRdy           0x1               ../legocar_firmware_microc_bsp//libucosii_bsp.a(os_core.o)
OSTCBPrioTbl        0x54              ../legocar_firmware_microc_bsp//libucosii_bsp.a(os_core.o)
alt_envsem          0x4               ../legocar_firmware_microc_bsp//libucosii_bsp.a(alt_env_lock.o)
OSIdleCtrRun        0x4               ../legocar_firmware_microc_bsp//libucosii_bsp.a(os_core.o)
control_task_stk    0x1000            obj/default/main.o

Memory Configuration

Name             Origin             Length             Attributes
reset            0x02000000         0x00000020
sdram            0x02000020         0x01ffffe0
epcs             0x04000000         0x00000800
*default*        0x00000000         0xffffffff

Linker script and memory map

LOAD ../legocar_firmware_microc_bsp//obj/HAL/src/crt0.o
LOAD obj/default/ins.o
LOAD obj/default/legocar.o
LOAD obj/default/main.o
LOAD obj/default/pwm_motor.o
LOAD obj/default/terasic_lib/I2C.o
LOAD obj/default/terasic_lib/accelerometer_adxl345_spi.o
LOAD obj/default/terasic_lib/adc_spi_read.o
LOAD obj/default/terasic_lib/flash.o
LOAD obj/default/terasic_lib/terasic_spi.o
LOAD obj/default/wheel_direction.o
LOAD /opt/altera/nios2eds/bin/gnu/H-i686-pc-linux-gnu/bin/../lib/gcc/nios2-elf/4.7.3/../../../../../H-i686-pc-linux-gnu/nios2-elf/lib/mno-hw-mul/libstdc++.a
LOAD /opt/altera/nios2eds/bin/gnu/H-i686-pc-linux-gnu/bin/../lib/gcc/nios2-elf/4.7.3/../../../../../H-i686-pc-linux-gnu/nios2-elf/lib/mno-hw-mul/libm.a
LOAD /opt/altera/nios2eds/bin/gnu/H-i686-pc-linux-gnu/bin/../lib/gcc/nios2-elf/4.7.3/mno-hw-mul/libgcc.a
START GROUP
LOAD /opt/altera/nios2eds/bin/gnu/H-i686-pc-linux-gnu/bin/../lib/gcc/nios2-elf/4.7.3/../../../../../H-i686-pc-linux-gnu/nios2-elf/lib/mno-hw-mul/libc.a
LOAD /opt/altera/nios2eds/bin/gnu/H-i686-pc-linux-gnu/bin/../lib/gcc/nios2-elf/4.7.3/mno-hw-mul/libgcc.a
LOAD ../legocar_firmware_microc_bsp//libucosii_bsp.a
END GROUP
LOAD /opt/altera/nios2eds/bin/gnu/H-i686-pc-linux-gnu/bin/../lib/gcc/nios2-elf/4.7.3/mno-hw-mul/libgcc.a
                0x02000000                __alt_mem_sdram = 0x2000000
                0x04000000                __alt_mem_epcs = 0x4000000

.entry          0x02000000       0x20
 *(.entry)
 .entry         0x02000000       0x20 ../legocar_firmware_microc_bsp//obj/HAL/src/crt0.o
                0x02000000                __reset

.exceptions     0x02000020      0x19c
                0x02000020                PROVIDE (__ram_exceptions_start, ABSOLUTE (.))
                0x02000020                . = ALIGN (0x20)
 *(.irq)
 *(.exceptions.entry.label)
 .exceptions.entry.label
                0x02000020        0x0 ../legocar_firmware_microc_bsp//libucosii_bsp.a(alt_irq_entry.o)
                0x02000020                alt_irq_entry
 .exceptions.entry.label
                0x02000020        0x0 ../legocar_firmware_microc_bsp//libucosii_bsp.a(alt_exception_entry.o)
                0x02000020                alt_exception
 *(.exceptions.entry.user)
 *(.exceptions.entry.ecc_fatal)
 *(.exceptions.entry)
 .exceptions.entry
                0x02000020       0x54 ../legocar_firmware_microc_bsp//libucosii_bsp.a(alt_exception_entry.o)
 *(.exceptions.irqtest.user)
 *(.exceptions.irqtest)
 .exceptions.irqtest
                0x02000074       0x10 ../legocar_firmware_microc_bsp//libucosii_bsp.a(alt_irq_entry.o)
 *(.exceptions.irqhandler.user)
 *(.exceptions.irqhandler)
 .exceptions.irqhandler
                0x02000084        0x4 ../legocar_firmware_microc_bsp//libucosii_bsp.a(alt_irq_entry.o)
 *(.exceptions.irqreturn.user)
 *(.exceptions.irqreturn)
 .exceptions.irqreturn
                0x02000088        0x4 ../legocar_firmware_microc_bsp//libucosii_bsp.a(alt_irq_entry.o)
 *(.exceptions.notirq.label)
 .exceptions.notirq.label
                0x0200008c        0x0 ../legocar_firmware_microc_bsp//libucosii_bsp.a(alt_irq_entry.o)
 *(.exceptions.notirq.user)
 *(.exceptions.notirq)
 .exceptions.notirq
                0x0200008c        0x8 ../legocar_firmware_microc_bsp//libucosii_bsp.a(alt_exception_entry.o)
 *(.exceptions.soft.user)
 *(.exceptions.soft)
 *(.exceptions.unknown.user)
 *(.exceptions.unknown)
 .exceptions.unknown
                0x02000094        0x4 ../legocar_firmware_microc_bsp//libucosii_bsp.a(alt_exception_entry.o)
 *(.exceptions.exit.label)
 .exceptions.exit.label
                0x02000098        0x0 ../legocar_firmware_microc_bsp//libucosii_bsp.a(alt_irq_entry.o)
 .exceptions.exit.label
                0x02000098        0x0 ../legocar_firmware_microc_bsp//libucosii_bsp.a(alt_exception_entry.o)
 *(.exceptions.exit.user)
 *(.exceptions.exit)
 .exceptions.exit
                0x02000098       0x54 ../legocar_firmware_microc_bsp//libucosii_bsp.a(alt_exception_entry.o)
 *(.exceptions)
 .exceptions    0x020000ec       0xd0 ../legocar_firmware_microc_bsp//libucosii_bsp.a(alt_irq_handler.o)
                0x020000ec                alt_irq_handler
                0x020001bc                PROVIDE (__ram_exceptions_end, ABSOLUTE (.))
                0x02000020                PROVIDE (__flash_exceptions_start, LOADADDR (.exceptions))

.text           0x020001bc    0x1bf7c
                0x020001bc                PROVIDE (stext, ABSOLUTE (.))
 *(.interp)
 *(.hash)
 *(.dynsym)
 *(.dynstr)
 *(.gnu.version)
 *(.gnu.version_d)
 *(.gnu.version_r)
 *(.rel.init)
 *(.rela.init)
 *(.rel.text .rel.text.* .rel.gnu.linkonce.t.*)
 *(.rela.text .rela.text.* .rela.gnu.linkonce.t.*)
 *(.rel.fini)
 *(.rela.fini)
 *(.rel.rodata .rel.rodata.* .rel.gnu.linkonce.r.*)
 *(.rela.rodata .rela.rodata.* .rela.gnu.linkonce.r.*)
 *(.rel.data .rel.data.* .rel.gnu.linkonce.d.*)
 *(.rela.data .rela.data.* .rela.gnu.linkonce.d.*)
 *(.rel.tdata .rel.tdata.* .rel.gnu.linkonce.td.*)
 *(.rela.tdata .rela.tdata.* .rela.gnu.linkonce.td.*)
 *(.rel.tbss .rel.tbss.* .rel.gnu.linkonce.tb.*)
 *(.rela.tbss .rela.tbss.* .rela.gnu.linkonce.tb.*)
 *(.rel.ctors)
 *(.rela.ctors)
 *(.rel.dtors)
 *(.rela.dtors)
 *(.rel.got)
 *(.rela.got)
 *(.rel.sdata .rel.sdata.* .rel.gnu.linkonce.s.*)
 *(.rela.sdata .rela.sdata.* .rela.gnu.linkonce.s.*)
 *(.rel.sbss .rel.sbss.* .rel.gnu.linkonce.sb.*)
 *(.rela.sbss .rela.sbss.* .rela.gnu.linkonce.sb.*)
 *(.rel.sdata2 .rel.sdata2.* .rel.gnu.linkonce.s2.*)
 *(.rela.sdata2 .rela.sdata2.* .rela.gnu.linkonce.s2.*)
 *(.rel.sbss2 .rel.sbss2.* .rel.gnu.linkonce.sb2.*)
 *(.rela.sbss2 .rela.sbss2.* .rela.gnu.linkonce.sb2.*)
 *(.rel.bss .rel.bss.* .rel.gnu.linkonce.b.*)
 *(.rela.bss .rela.bss.* .rela.gnu.linkonce.b.*)
 *(.rel.plt)
 *(.rela.plt)
 *(.rel.dyn)
 *(.init)
 *(.plt)
 *(.text .stub .text.* .gnu.linkonce.t.*)
 .text          0x020001bc       0x3c ../legocar_firmware_microc_bsp//obj/HAL/src/crt0.o
                0x020001bc                _start
 .text          0x020001f8      0x768 obj/default/ins.o
                0x020001f8                init_ins
                0x020002d4                calibrate_ins
                0x0200033c                auto_calibrate_ins
                0x020005f8                wait_for_data
                0x02000684                update_ins
 .text          0x02000960      0x450 obj/default/legocar.o
                0x02000960                init_legocar
                0x02000a38                align_wheels
                0x02000be8                set_driving_speed
                0x02000cac                stop
                0x02000ce4                enable_wheel_stabilizer
                0x02000d10                disable_wheel_stabilizer
                0x02000d38                control_loop
 .text          0x02000db0      0x4b4 obj/default/main.o
                0x02000db0                acc_sensor_task
                0x02000f78                stabilizer_task
                0x02000fb0                control_task
                0x02001110                main
 .text          0x02001264      0x33c obj/default/pwm_motor.o
                0x02001264                init_pwm_motor
                0x02001310                pwm_setting
                0x0200139c                set_speed
                0x02001574                get_speed
 .text          0x020015a0      0x9bc obj/default/terasic_lib/I2C.o
                0x020015a0                I2C_Write
                0x02001678                I2C_Read
                0x02001778                I2C_MultipleWrite
                0x02001888                I2C_MultipleRead
                0x020019e0                i2c_start
                0x02001a64                i2c_stop
                0x02001ad4                i2c_write
                0x02001c00                i2c_read
                0x02001d50                i2c_data_verify
                0x02001ed8                I2C_Verify
 .text          0x02001f5c      0x2d0 obj/default/terasic_lib/accelerometer_adxl345_spi.o
                0x02001f5c                ADXL345_SPI_Init
                0x0200201c                ADXL345_SPI_WaitDataReady
                0x020020b8                ADXL345_SPI_IsDataReady
                0x0200211c                ADXL345_SPI_XYZ_Read
                0x020021e8                ADXL345_SPI_IdRead
 .text          0x0200222c       0xf8 obj/default/terasic_lib/adc_spi_read.o
                0x0200222c                ADC_Read
 .text          0x02002324      0xd98 obj/default/terasic_lib/flash.o
                0x02002324                Flash_InfoDump
                0x020023e8                Flash_Open
                0x020024a8                Flash_Close
                0x02002500                Flash_GetBlockInfo
                0x02002628                Flash_Read
                0x020026d0                Flash_Write
                0x02002900                Flash_Erase
                0x020029ec                Flash_GetBlockCount
                0x02002a70                Flash_Size
                0x02002b48                FLASH_Verify
 .text          0x020030bc      0x348 obj/default/terasic_lib/terasic_spi.o
                0x020030bc                SPI_Init
                0x0200310c                SPI_MultipleWrite
                0x0200322c                SPI_Write
                0x02003280                SPI_MultipleRead
                0x020033b8                SPI_Read
 .text          0x02003404      0x210 obj/default/wheel_direction.o
                0x02003404                init_direction
                0x0200343c                set_direction
                0x020034c4                get_direction
                0x02003548                realign_wheel
 .text          0x02003614       0x84 /opt/altera/nios2eds/bin/gnu/H-i686-pc-linux-gnu/bin/../lib/gcc/nios2-elf/4.7.3/mno-hw-mul/libgcc.a(_fixunsdfsi.o)
                0x02003614                __fixunsdfsi
 .text          0x02003698      0x298 /opt/altera/nios2eds/bin/gnu/H-i686-pc-linux-gnu/bin/../lib/gcc/nios2-elf/4.7.3/mno-hw-mul/libgcc.a(_addsub_sf.o)
                0x0200388c                __addsf3
                0x020038d8                __subsf3
 .text          0x02003930      0x190 /opt/altera/nios2eds/bin/gnu/H-i686-pc-linux-gnu/bin/../lib/gcc/nios2-elf/4.7.3/mno-hw-mul/libgcc.a(_mul_sf.o)
                0x02003930                __mulsf3
 .text          0x02003ac0       0x5c /opt/altera/nios2eds/bin/gnu/H-i686-pc-linux-gnu/bin/../lib/gcc/nios2-elf/4.7.3/mno-hw-mul/libgcc.a(_gt_sf.o)
                0x02003ac0                __gtsf2
 .text          0x02003b1c       0x5c /opt/altera/nios2eds/bin/gnu/H-i686-pc-linux-gnu/bin/../lib/gcc/nios2-elf/4.7.3/mno-hw-mul/libgcc.a(_ge_sf.o)
                0x02003b1c                __gesf2
 .text          0x02003b78       0x54 /opt/altera/nios2eds/bin/gnu/H-i686-pc-linux-gnu/bin/../lib/gcc/nios2-elf/4.7.3/mno-hw-mul/libgcc.a(_le_sf.o)
                0x02003b78                __lesf2
 .text          0x02003bcc       0xa4 /opt/altera/nios2eds/bin/gnu/H-i686-pc-linux-gnu/bin/../lib/gcc/nios2-elf/4.7.3/mno-hw-mul/libgcc.a(_sf_to_si.o)
                0x02003bcc                __fixsfsi
 .text          0x02003c70       0x44 /opt/altera/nios2eds/bin/gnu/H-i686-pc-linux-gnu/bin/../lib/gcc/nios2-elf/4.7.3/mno-hw-mul/libgcc.a(_sf_to_df.o)
                0x02003c70                __extendsfdf2
 .text          0x02003cb4        0x0 /opt/altera/nios2eds/bin/gnu/H-i686-pc-linux-gnu/bin/../lib/gcc/nios2-elf/4.7.3/mno-hw-mul/libgcc.a(_thenan_sf.o)
 .text          0x02003cb4       0xd4 /opt/altera/nios2eds/bin/gnu/H-i686-pc-linux-gnu/bin/../lib/gcc/nios2-elf/4.7.3/mno-hw-mul/libgcc.a(_usi_to_sf.o)
                0x02003cb4                __floatunsisf
 .text          0x02003d88      0x408 /opt/altera/nios2eds/bin/gnu/H-i686-pc-linux-gnu/bin/../lib/gcc/nios2-elf/4.7.3/mno-hw-mul/libgcc.a(_addsub_df.o)
                0x020040dc                __adddf3
                0x02004130                __subdf3
 .text          0x02004190      0x2e4 /opt/altera/nios2eds/bin/gnu/H-i686-pc-linux-gnu/bin/../lib/gcc/nios2-elf/4.7.3/mno-hw-mul/libgcc.a(_mul_df.o)
                0x02004190                __muldf3
 .text          0x02004474      0x1b4 /opt/altera/nios2eds/bin/gnu/H-i686-pc-linux-gnu/bin/../lib/gcc/nios2-elf/4.7.3/mno-hw-mul/libgcc.a(_div_df.o)
                0x02004474                __divdf3
 .text          0x02004628       0x5c /opt/altera/nios2eds/bin/gnu/H-i686-pc-linux-gnu/bin/../lib/gcc/nios2-elf/4.7.3/mno-hw-mul/libgcc.a(_eq_df.o)
                0x02004628                __eqdf2
 .text          0x02004684       0x64 /opt/altera/nios2eds/bin/gnu/H-i686-pc-linux-gnu/bin/../lib/gcc/nios2-elf/4.7.3/mno-hw-mul/libgcc.a(_ge_df.o)
                0x02004684                __gedf2
 .text          0x020046e8       0xd4 /opt/altera/nios2eds/bin/gnu/H-i686-pc-linux-gnu/bin/../lib/gcc/nios2-elf/4.7.3/mno-hw-mul/libgcc.a(_si_to_df.o)
                0x020046e8                __floatsidf
 .text          0x020047bc       0xd4 /opt/altera/nios2eds/bin/gnu/H-i686-pc-linux-gnu/bin/../lib/gcc/nios2-elf/4.7.3/mno-hw-mul/libgcc.a(_df_to_si.o)
                0x020047bc                __fixdfsi
 .text          0x02004890       0x38 /opt/altera/nios2eds/bin/gnu/H-i686-pc-linux-gnu/bin/../lib/gcc/nios2-elf/4.7.3/mno-hw-mul/libgcc.a(_make_df.o)
                0x02004890                __make_dp
 .text          0x020048c8       0x60 /opt/altera/nios2eds/bin/gnu/H-i686-pc-linux-gnu/bin/../lib/gcc/nios2-elf/4.7.3/mno-hw-mul/libgcc.a(_df_to_sf.o)
                0x020048c8                __truncdfsf2
 .text          0x02004928        0x0 /opt/altera/nios2eds/bin/gnu/H-i686-pc-linux-gnu/bin/../lib/gcc/nios2-elf/4.7.3/mno-hw-mul/libgcc.a(_thenan_df.o)
 .text          0x02004928      0x130 /opt/altera/nios2eds/bin/gnu/H-i686-pc-linux-gnu/bin/../lib/gcc/nios2-elf/4.7.3/mno-hw-mul/libgcc.a(lib2-divmod.o)
                0x0200499c                __divsi3
                0x020049ec                __modsi3
                0x02004a48                __udivsi3
                0x02004a50                __umodsi3
 .text          0x02004a58      0x110 /opt/altera/nios2eds/bin/gnu/H-i686-pc-linux-gnu/bin/../lib/gcc/nios2-elf/4.7.3/mno-hw-mul/libgcc.a(_muldi3.o)
                0x02004a58                __muldi3
 .text          0x02004b68       0xac /opt/altera/nios2eds/bin/gnu/H-i686-pc-linux-gnu/bin/../lib/gcc/nios2-elf/4.7.3/mno-hw-mul/libgcc.a(_clzsi2.o)
                0x02004b68                __clzsi2
 .text          0x02004c14      0x12c /opt/altera/nios2eds/bin/gnu/H-i686-pc-linux-gnu/bin/../lib/gcc/nios2-elf/4.7.3/mno-hw-mul/libgcc.a(_pack_sf.o)
                0x02004c14                __pack_f
 .text          0x02004d40       0xc8 /opt/altera/nios2eds/bin/gnu/H-i686-pc-linux-gnu/bin/../lib/gcc/nios2-elf/4.7.3/mno-hw-mul/libgcc.a(_unpack_sf.o)
                0x02004d40                __unpack_f
 .text          0x02004e08       0xbc /opt/altera/nios2eds/bin/gnu/H-i686-pc-linux-gnu/bin/../lib/gcc/nios2-elf/4.7.3/mno-hw-mul/libgcc.a(_fpcmp_parts_sf.o)
                0x02004e08                __fpcmp_parts_f
 .text          0x02004ec4       0x2c /opt/altera/nios2eds/bin/gnu/H-i686-pc-linux-gnu/bin/../lib/gcc/nios2-elf/4.7.3/mno-hw-mul/libgcc.a(_make_sf.o)
                0x02004ec4                __make_fp
 .text          0x02004ef0      0x224 /opt/altera/nios2eds/bin/gnu/H-i686-pc-linux-gnu/bin/../lib/gcc/nios2-elf/4.7.3/mno-hw-mul/libgcc.a(_pack_df.o)
                0x02004ef0                __pack_d
 .text          0x02005114      0x104 /opt/altera/nios2eds/bin/gnu/H-i686-pc-linux-gnu/bin/../lib/gcc/nios2-elf/4.7.3/mno-hw-mul/libgcc.a(_unpack_df.o)
                0x02005114                __unpack_d
 .text          0x02005218       0xd0 /opt/altera/nios2eds/bin/gnu/H-i686-pc-linux-gnu/bin/../lib/gcc/nios2-elf/4.7.3/mno-hw-mul/libgcc.a(_fpcmp_parts_df.o)
                0x02005218                __fpcmp_parts_d
 .text          0x020052e8       0x28 /opt/altera/nios2eds/bin/gnu/H-i686-pc-linux-gnu/bin/../lib/gcc/nios2-elf/4.7.3/mno-hw-mul/libgcc.a(lib2-mul.o)
                0x020052e8                __mulsi3
 .text          0x02005310       0x44 /opt/altera/nios2eds/bin/gnu/H-i686-pc-linux-gnu/bin/../lib/gcc/nios2-elf/4.7.3/mno-hw-mul/libgcc.a(_lshrdi3.o)
                0x02005310                __lshrdi3
 .text          0x02005354       0x44 /opt/altera/nios2eds/bin/gnu/H-i686-pc-linux-gnu/bin/../lib/gcc/nios2-elf/4.7.3/mno-hw-mul/libgcc.a(_ashldi3.o)
                0x02005354                __ashldi3
 .text          0x02005398        0x0 /opt/altera/nios2eds/bin/gnu/H-i686-pc-linux-gnu/bin/../lib/gcc/nios2-elf/4.7.3/mno-hw-mul/libgcc.a(_clz.o)
 .text          0x02005398       0x78 /opt/altera/nios2eds/bin/gnu/H-i686-pc-linux-gnu/bin/../lib/gcc/nios2-elf/4.7.3/../../../../../H-i686-pc-linux-gnu/nios2-elf/lib/mno-hw-mul/libc.a(lib_a-assert.o)
                0x02005398                __assert_func
                0x020053fc                __assert
 .text          0x02005410       0x5c /opt/altera/nios2eds/bin/gnu/H-i686-pc-linux-gnu/bin/../lib/gcc/nios2-elf/4.7.3/../../../../../H-i686-pc-linux-gnu/nios2-elf/lib/mno-hw-mul/libc.a(lib_a-fiprintf.o)
                0x02005410                _fiprintf_r
                0x02005430                fiprintf
 .text          0x0200546c        0x0 /opt/altera/nios2eds/bin/gnu/H-i686-pc-linux-gnu/bin/../lib/gcc/nios2-elf/4.7.3/../../../../../H-i686-pc-linux-gnu/nios2-elf/lib/mno-hw-mul/libc.a(lib_a-impure.o)
 .text          0x0200546c       0x28 /opt/altera/nios2eds/bin/gnu/H-i686-pc-linux-gnu/bin/../lib/gcc/nios2-elf/4.7.3/../../../../../H-i686-pc-linux-gnu/nios2-elf/lib/mno-hw-mul/libc.a(lib_a-malloc.o)
                0x0200546c                malloc
                0x02005480                free
 .text          0x02005494      0x784 /opt/altera/nios2eds/bin/gnu/H-i686-pc-linux-gnu/bin/../lib/gcc/nios2-elf/4.7.3/../../../../../H-i686-pc-linux-gnu/nios2-elf/lib/mno-hw-mul/libc.a(lib_a-mallocr.o)
                0x02005494                _malloc_r
 .text          0x02005c18       0x68 /opt/altera/nios2eds/bin/gnu/H-i686-pc-linux-gnu/bin/../lib/gcc/nios2-elf/4.7.3/../../../../../H-i686-pc-linux-gnu/nios2-elf/lib/mno-hw-mul/libc.a(lib_a-printf.o)
                0x02005c18                _printf_r
                0x02005c44                printf
 .text          0x02005c80       0x98 /opt/altera/nios2eds/bin/gnu/H-i686-pc-linux-gnu/bin/../lib/gcc/nios2-elf/4.7.3/../../../../../H-i686-pc-linux-gnu/nios2-elf/lib/mno-hw-mul/libc.a(lib_a-puts.o)
                0x02005c80                _puts_r
                0x02005d04                puts
 .text          0x02005d18       0x64 /opt/altera/nios2eds/bin/gnu/H-i686-pc-linux-gnu/bin/../lib/gcc/nios2-elf/4.7.3/../../../../../H-i686-pc-linux-gnu/nios2-elf/lib/mno-hw-mul/libc.a(lib_a-sbrkr.o)
                0x02005d18                _sbrk_r
 .text          0x02005d7c       0x8c /opt/altera/nios2eds/bin/gnu/H-i686-pc-linux-gnu/bin/../lib/gcc/nios2-elf/4.7.3/../../../../../H-i686-pc-linux-gnu/nios2-elf/lib/mno-hw-mul/libc.a(lib_a-strlen.o)
                0x02005d7c                strlen
 .text          0x02005e08       0x1c /opt/altera/nios2eds/bin/gnu/H-i686-pc-linux-gnu/bin/../lib/gcc/nios2-elf/4.7.3/../../../../../H-i686-pc-linux-gnu/nios2-elf/lib/mno-hw-mul/libc.a(lib_a-vfiprintfr_1.o)
                0x02005e08                _vfiprintf_r
 .text          0x02005e24     0x1ed4 /opt/altera/nios2eds/bin/gnu/H-i686-pc-linux-gnu/bin/../lib/gcc/nios2-elf/4.7.3/../../../../../H-i686-pc-linux-gnu/nios2-elf/lib/mno-hw-mul/libc.a(lib_a-vfprintf.o)
                0x02005e58                ___vfprintf_internal_r
                0x02007cd4                __vfprintf_internal
 .text          0x02007cf8      0x174 /opt/altera/nios2eds/bin/gnu/H-i686-pc-linux-gnu/bin/../lib/gcc/nios2-elf/4.7.3/../../../../../H-i686-pc-linux-gnu/nios2-elf/lib/mno-hw-mul/libc.a(lib_a-wsetup.o)
                0x02007cf8                __swsetup_r
 .text          0x02007e6c       0x18 /opt/altera/nios2eds/bin/gnu/H-i686-pc-linux-gnu/bin/../lib/gcc/nios2-elf/4.7.3/../../../../../H-i686-pc-linux-gnu/nios2-elf/lib/mno-hw-mul/libc.a(lib_a-abort.o)
                0x02007e6c                abort
 .text          0x02007e84     0x1858 /opt/altera/nios2eds/bin/gnu/H-i686-pc-linux-gnu/bin/../lib/gcc/nios2-elf/4.7.3/../../../../../H-i686-pc-linux-gnu/nios2-elf/lib/mno-hw-mul/libc.a(lib_a-dtoa.o)
                0x020080c0                _dtoa_r
 .text          0x020096dc      0x218 /opt/altera/nios2eds/bin/gnu/H-i686-pc-linux-gnu/bin/../lib/gcc/nios2-elf/4.7.3/../../../../../H-i686-pc-linux-gnu/nios2-elf/lib/mno-hw-mul/libc.a(lib_a-fflush.o)
                0x020096dc                _fflush_r
                0x020098c4                fflush
 .text          0x020098f4      0x2ec /opt/altera/nios2eds/bin/gnu/H-i686-pc-linux-gnu/bin/../lib/gcc/nios2-elf/4.7.3/../../../../../H-i686-pc-linux-gnu/nios2-elf/lib/mno-hw-mul/libc.a(lib_a-findfp.o)
                0x02009904                _cleanup_r
                0x02009910                __sfmoreglue
                0x02009988                _cleanup
                0x02009998                __sinit
                0x02009aa4                __sfp
                0x02009ba0                __sfp_lock_acquire
                0x02009ba4                __sfp_lock_release
                0x02009ba8                __sinit_lock_acquire
                0x02009bac                __sinit_lock_release
                0x02009bb0                __fp_lock_all
                0x02009bc8                __fp_unlock_all
 .text          0x02009be0      0x40c /opt/altera/nios2eds/bin/gnu/H-i686-pc-linux-gnu/bin/../lib/gcc/nios2-elf/4.7.3/../../../../../H-i686-pc-linux-gnu/nios2-elf/lib/mno-hw-mul/libc.a(lib_a-freer.o)
                0x02009be0                _malloc_trim_r
                0x02009d1c                _free_r
 .text          0x02009fec      0x4e4 /opt/altera/nios2eds/bin/gnu/H-i686-pc-linux-gnu/bin/../lib/gcc/nios2-elf/4.7.3/../../../../../H-i686-pc-linux-gnu/nios2-elf/lib/mno-hw-mul/libc.a(lib_a-fvwrite.o)
                0x02009fec                __sfvwrite_r
 .text          0x0200a4d0      0x160 /opt/altera/nios2eds/bin/gnu/H-i686-pc-linux-gnu/bin/../lib/gcc/nios2-elf/4.7.3/../../../../../H-i686-pc-linux-gnu/nios2-elf/lib/mno-hw-mul/libc.a(lib_a-fwalk.o)
                0x0200a4d0                _fwalk
                0x0200a578                _fwalk_reent
 .text          0x0200a630        0x0 /opt/altera/nios2eds/bin/gnu/H-i686-pc-linux-gnu/bin/../lib/gcc/nios2-elf/4.7.3/../../../../../H-i686-pc-linux-gnu/nios2-elf/lib/mno-hw-mul/libc.a(lib_a-int_errno.o)
 .text          0x0200a630       0xdc /opt/altera/nios2eds/bin/gnu/H-i686-pc-linux-gnu/bin/../lib/gcc/nios2-elf/4.7.3/../../../../../H-i686-pc-linux-gnu/nios2-elf/lib/mno-hw-mul/libc.a(lib_a-locale.o)
                0x0200a630                _setlocale_r
                0x0200a6cc                __locale_charset
                0x0200a6d8                _localeconv_r
                0x0200a6e4                setlocale
                0x0200a700                localeconv
 .text          0x0200a70c      0x1a8 /opt/altera/nios2eds/bin/gnu/H-i686-pc-linux-gnu/bin/../lib/gcc/nios2-elf/4.7.3/../../../../../H-i686-pc-linux-gnu/nios2-elf/lib/mno-hw-mul/libc.a(lib_a-makebuf.o)
                0x0200a70c                __smakebuf_r
 .text          0x0200a8b4       0xf8 /opt/altera/nios2eds/bin/gnu/H-i686-pc-linux-gnu/bin/../lib/gcc/nios2-elf/4.7.3/../../../../../H-i686-pc-linux-gnu/nios2-elf/lib/mno-hw-mul/libc.a(lib_a-memchr.o)
                0x0200a8b4                memchr
 .text          0x0200a9ac      0x140 /opt/altera/nios2eds/bin/gnu/H-i686-pc-linux-gnu/bin/../lib/gcc/nios2-elf/4.7.3/../../../../../H-i686-pc-linux-gnu/nios2-elf/lib/mno-hw-mul/libc.a(lib_a-memcpy.o)
                0x0200a9ac                memcpy
 .text          0x0200aaec      0x18c /opt/altera/nios2eds/bin/gnu/H-i686-pc-linux-gnu/bin/../lib/gcc/nios2-elf/4.7.3/../../../../../H-i686-pc-linux-gnu/nios2-elf/lib/mno-hw-mul/libc.a(lib_a-memmove.o)
                0x0200aaec                memmove
 .text          0x0200ac78       0xdc /opt/altera/nios2eds/bin/gnu/H-i686-pc-linux-gnu/bin/../lib/gcc/nios2-elf/4.7.3/../../../../../H-i686-pc-linux-gnu/nios2-elf/lib/mno-hw-mul/libc.a(lib_a-memset.o)
                0x0200ac78                memset
 .text          0x0200ad54     0x1050 /opt/altera/nios2eds/bin/gnu/H-i686-pc-linux-gnu/bin/../lib/gcc/nios2-elf/4.7.3/../../../../../H-i686-pc-linux-gnu/nios2-elf/lib/mno-hw-mul/libc.a(lib_a-mprec.o)
                0x0200ad54                _Balloc
                0x0200adfc                _Bfree
                0x0200ae24                __multadd
                0x0200af68                __s2b
                0x0200b06c                __hi0bits
                0x0200b0d4                __lo0bits
                0x0200b184                __i2b
                0x0200b1c0                __multiply
                0x0200b418                __pow5mult
                0x0200b544                __lshift
                0x0200b6a0                __mcmp
                0x0200b6f8                __mdiff
                0x0200b8a0                __ulp
                0x0200b900                __b2d
                0x0200ba48                __d2b
                0x0200bb8c                __ratio
                0x0200bc30                _mprec_log10
                0x0200bca4                __copybits
                0x0200bd20                __any_on
 .text          0x0200bda4      0x5fc /opt/altera/nios2eds/bin/gnu/H-i686-pc-linux-gnu/bin/../lib/gcc/nios2-elf/4.7.3/../../../../../H-i686-pc-linux-gnu/nios2-elf/lib/mno-hw-mul/libc.a(lib_a-reallocr.o)
                0x0200bda4                _realloc_r
 .text          0x0200c3a0       0x38 /opt/altera/nios2eds/bin/gnu/H-i686-pc-linux-gnu/bin/../lib/gcc/nios2-elf/4.7.3/../../../../../H-i686-pc-linux-gnu/nios2-elf/lib/mno-hw-mul/libc.a(lib_a-s_isinfd.o)
                0x0200c3a0                __isinfd
 .text          0x0200c3d8       0x2c /opt/altera/nios2eds/bin/gnu/H-i686-pc-linux-gnu/bin/../lib/gcc/nios2-elf/4.7.3/../../../../../H-i686-pc-linux-gnu/nios2-elf/lib/mno-hw-mul/libc.a(lib_a-s_isnand.o)
                0x0200c3d8                __isnand
 .text          0x0200c404      0x2c8 /opt/altera/nios2eds/bin/gnu/H-i686-pc-linux-gnu/bin/../lib/gcc/nios2-elf/4.7.3/../../../../../H-i686-pc-linux-gnu/nios2-elf/lib/mno-hw-mul/libc.a(lib_a-signal.o)
                0x0200c404                _init_signal_r
                0x0200c46c                _signal_r
                0x0200c4f4                _raise_r
                0x0200c5c4                __sigtramp_r
                0x0200c678                raise
                0x0200c68c                signal
                0x0200c6a8                _init_signal
                0x0200c6b8                __sigtramp
 .text          0x0200c6cc       0x6c /opt/altera/nios2eds/bin/gnu/H-i686-pc-linux-gnu/bin/../lib/gcc/nios2-elf/4.7.3/../../../../../H-i686-pc-linux-gnu/nios2-elf/lib/mno-hw-mul/libc.a(lib_a-signalr.o)
                0x0200c6cc                _kill_r
                0x0200c734                _getpid_r
 .text          0x0200c738      0x140 /opt/altera/nios2eds/bin/gnu/H-i686-pc-linux-gnu/bin/../lib/gcc/nios2-elf/4.7.3/../../../../../H-i686-pc-linux-gnu/nios2-elf/lib/mno-hw-mul/libc.a(lib_a-stdio.o)
                0x0200c738                __sread
                0x0200c78c                __swrite
                0x0200c814                __sseek
                0x0200c870                __sclose
 .text          0x0200c878       0xa4 /opt/altera/nios2eds/bin/gnu/H-i686-pc-linux-gnu/bin/../lib/gcc/nios2-elf/4.7.3/../../../../../H-i686-pc-linux-gnu/nios2-elf/lib/mno-hw-mul/libc.a(lib_a-strcmp.o)
                0x0200c878                strcmp
 .text          0x0200c91c     0x1274 /opt/altera/nios2eds/bin/gnu/H-i686-pc-linux-gnu/bin/../lib/gcc/nios2-elf/4.7.3/../../../../../H-i686-pc-linux-gnu/nios2-elf/lib/mno-hw-mul/libc.a(lib_a-vfiprintf.o)
                0x0200c950                ___vfiprintf_internal_r
                0x0200db6c                __vfiprintf_internal
 .text          0x0200db90       0x6c /opt/altera/nios2eds/bin/gnu/H-i686-pc-linux-gnu/bin/../lib/gcc/nios2-elf/4.7.3/../../../../../H-i686-pc-linux-gnu/nios2-elf/lib/mno-hw-mul/libc.a(lib_a-writer.o)
                0x0200db90                _write_r
 .text          0x0200dbfc       0xcc /opt/altera/nios2eds/bin/gnu/H-i686-pc-linux-gnu/bin/../lib/gcc/nios2-elf/4.7.3/../../../../../H-i686-pc-linux-gnu/nios2-elf/lib/mno-hw-mul/libc.a(lib_a-callocr.o)
                0x0200dbfc                _calloc_r
 .text          0x0200dcc8       0x64 /opt/altera/nios2eds/bin/gnu/H-i686-pc-linux-gnu/bin/../lib/gcc/nios2-elf/4.7.3/../../../../../H-i686-pc-linux-gnu/nios2-elf/lib/mno-hw-mul/libc.a(lib_a-closer.o)
                0x0200dcc8                _close_r
 .text          0x0200dd2c      0x150 /opt/altera/nios2eds/bin/gnu/H-i686-pc-linux-gnu/bin/../lib/gcc/nios2-elf/4.7.3/../../../../../H-i686-pc-linux-gnu/nios2-elf/lib/mno-hw-mul/libc.a(lib_a-fclose.o)
                0x0200dd2c                _fclose_r
                0x0200de68                fclose
 .text          0x0200de7c       0x68 /opt/altera/nios2eds/bin/gnu/H-i686-pc-linux-gnu/bin/../lib/gcc/nios2-elf/4.7.3/../../../../../H-i686-pc-linux-gnu/nios2-elf/lib/mno-hw-mul/libc.a(lib_a-fstatr.o)
                0x0200de7c                _fstat_r
 .text          0x0200dee4       0x64 /opt/altera/nios2eds/bin/gnu/H-i686-pc-linux-gnu/bin/../lib/gcc/nios2-elf/4.7.3/../../../../../H-i686-pc-linux-gnu/nios2-elf/lib/mno-hw-mul/libc.a(lib_a-isattyr.o)
                0x0200dee4                _isatty_r
 .text          0x0200df48       0x6c /opt/altera/nios2eds/bin/gnu/H-i686-pc-linux-gnu/bin/../lib/gcc/nios2-elf/4.7.3/../../../../../H-i686-pc-linux-gnu/nios2-elf/lib/mno-hw-mul/libc.a(lib_a-lseekr.o)
                0x0200df48                _lseek_r
 .text          0x0200dfb4       0x6c /opt/altera/nios2eds/bin/gnu/H-i686-pc-linux-gnu/bin/../lib/gcc/nios2-elf/4.7.3/../../../../../H-i686-pc-linux-gnu/nios2-elf/lib/mno-hw-mul/libc.a(lib_a-readr.o)
                0x0200dfb4                _read_r
 .text          0x0200e020      0x650 /opt/altera/nios2eds/bin/gnu/H-i686-pc-linux-gnu/bin/../lib/gcc/nios2-elf/4.7.3/mno-hw-mul/libgcc.a(_udivdi3.o)
                0x0200e020                __udivdi3
 .text          0x0200e670      0x628 /opt/altera/nios2eds/bin/gnu/H-i686-pc-linux-gnu/bin/../lib/gcc/nios2-elf/4.7.3/mno-hw-mul/libgcc.a(_umoddi3.o)
                0x0200e670                __umoddi3
 .text          0x0200ec98       0x5c /opt/altera/nios2eds/bin/gnu/H-i686-pc-linux-gnu/bin/../lib/gcc/nios2-elf/4.7.3/mno-hw-mul/libgcc.a(_ne_df.o)
                0x0200ec98                __nedf2
 .text          0x0200ecf4       0x64 /opt/altera/nios2eds/bin/gnu/H-i686-pc-linux-gnu/bin/../lib/gcc/nios2-elf/4.7.3/mno-hw-mul/libgcc.a(_gt_df.o)
                0x0200ecf4                __gtdf2
 .text          0x0200ed58       0x5c /opt/altera/nios2eds/bin/gnu/H-i686-pc-linux-gnu/bin/../lib/gcc/nios2-elf/4.7.3/mno-hw-mul/libgcc.a(_lt_df.o)
                0x0200ed58                __ltdf2
 .text          0x0200edb4      0x11c /opt/altera/nios2eds/bin/gnu/H-i686-pc-linux-gnu/bin/../lib/gcc/nios2-elf/4.7.3/mno-hw-mul/libgcc.a(_usi_to_df.o)
                0x0200edb4                __floatunsidf
 .text          0x0200eed0      0x11c ../legocar_firmware_microc_bsp//libucosii_bsp.a(alt_close.o)
                0x0200ef20                close
 .text          0x0200efec       0x24 ../legocar_firmware_microc_bsp//libucosii_bsp.a(alt_dcache_flush.o)
                0x0200efec                alt_dcache_flush
 .text          0x0200f010       0x1c ../legocar_firmware_microc_bsp//libucosii_bsp.a(alt_dcache_flush_all.o)
                0x0200f010                alt_dcache_flush_all
 .text          0x0200f02c       0x2c ../legocar_firmware_microc_bsp//libucosii_bsp.a(alt_dev.o)
 .text          0x0200f058        0x0 ../legocar_firmware_microc_bsp//libucosii_bsp.a(alt_errno.o)
 .text          0x0200f058       0x44 ../legocar_firmware_microc_bsp//libucosii_bsp.a(alt_exit.o)
                0x0200f058                _exit
 .text          0x0200f09c       0xb8 ../legocar_firmware_microc_bsp//libucosii_bsp.a(alt_flash_dev.o)
                0x0200f09c                alt_flash_open_dev
                0x0200f104                alt_flash_close_dev
 .text          0x0200f154      0x100 ../legocar_firmware_microc_bsp//libucosii_bsp.a(alt_fstat.o)
                0x0200f1a4                fstat
 .text          0x0200f254       0x20 ../legocar_firmware_microc_bsp//libucosii_bsp.a(alt_getpid.o)
                0x0200f254                getpid
 .text          0x0200f274       0xf4 ../legocar_firmware_microc_bsp//libucosii_bsp.a(alt_isatty.o)
                0x0200f2c4                isatty
 .text          0x0200f368      0x180 ../legocar_firmware_microc_bsp//libucosii_bsp.a(alt_kill.o)
                0x0200f3b8                kill
 .text          0x0200f4e8       0xec ../legocar_firmware_microc_bsp//libucosii_bsp.a(alt_load.o)
                0x0200f554                alt_load
 .text          0x0200f5d4      0x124 ../legocar_firmware_microc_bsp//libucosii_bsp.a(alt_lseek.o)
                0x0200f624                lseek
 .text          0x0200f6f8       0xcc ../legocar_firmware_microc_bsp//libucosii_bsp.a(alt_main.o)
                0x0200f6f8                alt_main
 .text          0x0200f7c4      0x144 ../legocar_firmware_microc_bsp//libucosii_bsp.a(alt_read.o)
                0x0200f814                read
 .text          0x0200f908       0x80 ../legocar_firmware_microc_bsp//libucosii_bsp.a(alt_release_fd.o)
                0x0200f908                alt_release_fd
 .text          0x0200f988       0xb0 ../legocar_firmware_microc_bsp//libucosii_bsp.a(alt_sbrk.o)
                0x0200f988                sbrk
 .text          0x0200fa38      0x19c ../legocar_firmware_microc_bsp//libucosii_bsp.a(alt_tick.o)
                0x0200fa38                alt_alarm_stop
                0x0200fad0                alt_tick
 .text          0x0200fbd4      0x124 ../legocar_firmware_microc_bsp//libucosii_bsp.a(alt_usleep.o)
                0x0200fbd4                usleep
 .text          0x0200fcf8      0x140 ../legocar_firmware_microc_bsp//libucosii_bsp.a(alt_write.o)
                0x0200fd48                write
 .text          0x0200fe38      0x118 ../legocar_firmware_microc_bsp//libucosii_bsp.a(alt_env_lock.o)
                0x0200fe38                __env_lock
                0x0200fef0                __env_unlock
 .text          0x0200ff50      0x1e8 ../legocar_firmware_microc_bsp//libucosii_bsp.a(alt_malloc_lock.o)
                0x0200ff50                __malloc_lock
                0x02010064                __malloc_unlock
 .text          0x02010138     0x2024 ../legocar_firmware_microc_bsp//libucosii_bsp.a(os_core.o)
                0x02010138                OSEventNameGet
                0x02010258                OSEventNameSet
                0x0201039c                OSEventPendMulti
                0x020109d8                OSInit
                0x02010a2c                OSIntEnter
                0x02010aa8                OSIntExit
                0x02010b9c                OSSchedLock
                0x02010c24                OSSchedUnlock
                0x02010cfc                OSStart
                0x02010d68                OSStatInit
                0x02010e14                OSTimeTick
                0x02011034                OSVersion
                0x02011054                OS_Dummy
                0x02011070                OS_EventTaskRdy
                0x02011208                OS_EventTaskWait
                0x02011310                OS_EventTaskWaitMulti
                0x02011458                OS_EventTaskRemove
                0x02011508                OS_EventTaskRemoveMulti
                0x02011600                OS_EventWaitListInit
                0x020119cc                OS_MemClr
                0x02011a20                OS_MemCopy
                0x02011a8c                OS_Sched
                0x02011bc8                OS_StrCopy
                0x02011c44                OS_StrLen
                0x02011c98                OS_TaskIdle
                0x02011cf4                OS_TaskStat
                0x02011dbc                OS_TaskStatStkChk
                0x02011e84                OS_TCBInit
 .text          0x0201215c      0x18c ../legocar_firmware_microc_bsp//libucosii_bsp.a(os_dbg.o)
                0x0201215c                OSDebugInit
 .text          0x020122e8     0x1834 ../legocar_firmware_microc_bsp//libucosii_bsp.a(os_flag.o)
                0x020122e8                OSFlagAccept
                0x020125f0                OSFlagCreate
                0x02012718                OSFlagDel
                0x02012988                OSFlagNameGet
                0x02012ab8                OSFlagNameSet
                0x02012c0c                OSFlagPend
                0x0201320c                OSFlagPendGetFlagsRdy
                0x02013274                OSFlagPost
                0x02013608                OSFlagQuery
                0x0201388c                OS_FlagInit
                0x02013a7c                OS_FlagUnlink
 .text          0x02013b1c      0x790 ../legocar_firmware_microc_bsp//libucosii_bsp.a(os_mem.o)
                0x02013b1c                OSMemCreate
                0x02013d10                OSMemGet
                0x02013e00                OSMemNameGet
                0x02013ef8                OSMemNameSet
                0x02014014                OSMemPut
                0x020140ec                OSMemQuery
                0x020141d4                OS_MemInit
 .text          0x020142ac     0x1224 ../legocar_firmware_microc_bsp//libucosii_bsp.a(os_q.o)
                0x020142ac                OSQAccept
                0x020143ec                OSQCreate
                0x020145e4                OSQDel
                0x020148b4                OSQFlush
                0x0201496c                OSQPend
                0x02014c68                OSQPendAbort
                0x02014ddc                OSQPost
                0x02014f44                OSQPostFront
                0x020150b4                OSQPostOpt
                0x020152c0                OSQQuery
                0x02015424                OS_QInit
 .text          0x020154d0      0xb28 ../legocar_firmware_microc_bsp//libucosii_bsp.a(os_sem.o)
                0x020154d0                OSSemAccept
                0x02015580                OSSemCreate
                0x02015680                OSSemDel
                0x020158f0                OSSemPend
                0x02015b5c                OSSemPendAbort
                0x02015cd0                OSSemPost
                0x02015de0                OSSemQuery
                0x02015ef8                OSSemSet
 .text          0x02015ff8     0x18ec ../legocar_firmware_microc_bsp//libucosii_bsp.a(os_task.o)
                0x02015ff8                OSTaskChangePrio
                0x02016520                OSTaskCreate
                0x020166dc                OSTaskCreateExt
                0x020168d0                OSTaskDel
                0x02016cac                OSTaskDelReq
                0x02016e04                OSTaskNameGet
                0x02016fac                OSTaskNameSet
                0x02017170                OSTaskResume
                0x02017364                OSTaskStkChk
                0x02017538                OSTaskSuspend
                0x02017748                OSTaskQuery
                0x02017874                OS_TaskStkClr
 .text          0x020178e4      0x580 ../legocar_firmware_microc_bsp//libucosii_bsp.a(os_time.o)
                0x020178e4                OSTimeDly
                0x02017a2c                OSTimeDlyHMSM
                0x02017bb0                OSTimeDlyResume
                0x02017d9c                OSTimeGet
                0x02017e00                OSTimeSet
 .text          0x02017e64       0xf4 ../legocar_firmware_microc_bsp//libucosii_bsp.a(alt_sys_init.o)
                0x02017e9c                alt_irq_init
                0x02017ed0                alt_sys_init
 .text          0x02017f58      0x990 ../legocar_firmware_microc_bsp//libucosii_bsp.a(altera_avalon_epcs_flash_controller.o)
                0x02017f90                alt_epcs_flash_init
                0x02018358                alt_epcs_flash_write
                0x020185b8                alt_epcs_flash_get_info
                0x020186d8                alt_epcs_flash_erase_block
                0x0201874c                alt_epcs_flash_write_block
                0x02018850                alt_epcs_flash_read
 .text          0x020188e8      0x164 ../legocar_firmware_microc_bsp//libucosii_bsp.a(altera_avalon_jtag_uart_fd.o)
                0x020188e8                altera_avalon_jtag_uart_read_fd
                0x02018948                altera_avalon_jtag_uart_write_fd
                0x020189a8                altera_avalon_jtag_uart_close_fd
                0x020189f8                altera_avalon_jtag_uart_ioctl_fd
 .text          0x02018a4c      0x55c ../legocar_firmware_microc_bsp//libucosii_bsp.a(altera_avalon_jtag_uart_init.o)
                0x02018a4c                altera_avalon_jtag_uart_init
                0x02018f40                altera_avalon_jtag_uart_close
 .text          0x02018fa8       0xf4 ../legocar_firmware_microc_bsp//libucosii_bsp.a(altera_avalon_jtag_uart_ioctl.o)
                0x02018fa8                altera_avalon_jtag_uart_ioctl
 .text          0x0201909c      0x2c4 ../legocar_firmware_microc_bsp//libucosii_bsp.a(altera_avalon_jtag_uart_read.o)
                0x0201909c                altera_avalon_jtag_uart_read
 .text          0x02019360      0x2d0 ../legocar_firmware_microc_bsp//libucosii_bsp.a(altera_avalon_jtag_uart_write.o)
                0x02019360                altera_avalon_jtag_uart_write
 .text          0x02019630       0xfc ../legocar_firmware_microc_bsp//libucosii_bsp.a(altera_avalon_timer_sc.o)
                0x020196a4                alt_avalon_timer_sc_init
 .text          0x0201972c      0x110 ../legocar_firmware_microc_bsp//libucosii_bsp.a(altera_avalon_uart_fd.o)
                0x0201972c                altera_avalon_uart_read_fd
                0x0201978c                altera_avalon_uart_write_fd
                0x020197ec                altera_avalon_uart_close_fd
 .text          0x0201983c      0x518 ../legocar_firmware_microc_bsp//libucosii_bsp.a(altera_avalon_uart_init.o)
                0x0201983c                altera_avalon_uart_init
                0x02019d00                altera_avalon_uart_close
 .text          0x02019d54      0x2e4 ../legocar_firmware_microc_bsp//libucosii_bsp.a(altera_avalon_uart_read.o)
                0x02019da4                altera_avalon_uart_read
 .text          0x0201a038      0x288 ../legocar_firmware_microc_bsp//libucosii_bsp.a(altera_avalon_uart_write.o)
                0x0201a088                altera_avalon_uart_write
 .text          0x0201a2c0      0x624 ../legocar_firmware_microc_bsp//libucosii_bsp.a(epcs_commands.o)
                0x0201a2c0                epcs_read_status_register
                0x0201a38c                epcs_sector_erase
                0x0201a484                epcs_read_buffer
                0x0201a578                epcs_write_enable
                0x0201a5c8                epcs_write_status_register
                0x0201a630                epcs_write_buffer
                0x0201a74c                epcs_read_electronic_signature
                0x0201a7b4                epcs_read_device_id
                0x0201a834                epcs_enter_4_bytes_mode
                0x0201a88c                epcs_exit_4_bytes_mode
 .text          0x0201a8e4      0x140 ../legocar_firmware_microc_bsp//libucosii_bsp.a(alt_alarm_start.o)
                0x0201a8e4                alt_alarm_start
 .text          0x0201aa24      0x154 ../legocar_firmware_microc_bsp//libucosii_bsp.a(alt_busy_sleep.o)
                0x0201aa24                alt_busy_sleep
 .text          0x0201ab78       0xf0 ../legocar_firmware_microc_bsp//libucosii_bsp.a(alt_dev_llist_insert.o)
                0x0201abc8                alt_dev_llist_insert
 .text          0x0201ac68       0x5c ../legocar_firmware_microc_bsp//libucosii_bsp.a(alt_do_ctors.o)
                0x0201ac68                _do_ctors
 .text          0x0201acc4       0x5c ../legocar_firmware_microc_bsp//libucosii_bsp.a(alt_do_dtors.o)
                0x0201acc4                _do_dtors
 .text          0x0201ad20       0x90 ../legocar_firmware_microc_bsp//libucosii_bsp.a(alt_find_dev.o)
                0x0201ad20                alt_find_dev
 .text          0x0201adb0       0x1c ../legocar_firmware_microc_bsp//libucosii_bsp.a(alt_icache_flush_all.o)
                0x0201adb0                alt_icache_flush_all
 .text          0x0201adcc      0x1d8 ../legocar_firmware_microc_bsp//libucosii_bsp.a(alt_iic.o)
                0x0201adcc                alt_ic_isr_register
                0x0201ae1c                alt_ic_irq_enable
                0x0201aeb8                alt_ic_irq_disable
                0x0201af58                alt_ic_irq_enabled
 .text          0x0201afa4       0xf0 ../legocar_firmware_microc_bsp//libucosii_bsp.a(alt_iic_isr_register.o)
                0x0201afa4                alt_iic_isr_register
 .text          0x0201b094      0x158 ../legocar_firmware_microc_bsp//libucosii_bsp.a(alt_io_redirect.o)
                0x0201b174                alt_io_redirect
 .text          0x0201b1ec        0x0 ../legocar_firmware_microc_bsp//libucosii_bsp.a(alt_irq_entry.o)
 .text          0x0201b1ec        0x0 ../legocar_firmware_microc_bsp//libucosii_bsp.a(alt_irq_handler.o)
 .text          0x0201b1ec        0x0 ../legocar_firmware_microc_bsp//libucosii_bsp.a(alt_irq_vars.o)
 .text          0x0201b1ec      0x298 ../legocar_firmware_microc_bsp//libucosii_bsp.a(alt_open.o)
                0x0201b32c                open
 .text          0x0201b484       0x20 ../legocar_firmware_microc_bsp//libucosii_bsp.a(altera_nios2_irq.o)
                0x0201b484                altera_nios2_irq_init
 .text          0x0201b4a4       0xd0 ../legocar_firmware_microc_bsp//libucosii_bsp.a(os_cpu_a.o)
                0x0201b4a4                OSCtxSw
                0x0201b4a4                OSIntCtxSw
                0x0201b530                OSStartHighRdy
                0x0201b550                OSStartTsk
 .text          0x0201b574      0x3fc ../legocar_firmware_microc_bsp//libucosii_bsp.a(os_cpu_c.o)
                0x0201b574                OSTaskStkInit
                0x0201b868                OSTaskCreateHook
                0x0201b888                OSTaskDelHook
                0x0201b8a8                OSTaskSwHook
                0x0201b8c4                OSTaskStatHook
                0x0201b8e0                OSTimeTickHook
                0x0201b8fc                OSInitHookBegin
                0x0201b918                OSInitHookEnd
                0x0201b934                OSTaskIdleHook
                0x0201b950                OSTCBInitHook
 .text          0x0201b970      0x208 ../legocar_firmware_microc_bsp//libucosii_bsp.a(altera_avalon_spi.o)
                0x0201b970                alt_avalon_spi_command
 .text          0x0201bb78        0x0 ../legocar_firmware_microc_bsp//libucosii_bsp.a(alt_exception_entry.o)
 .text          0x0201bb78      0x114 ../legocar_firmware_microc_bsp//libucosii_bsp.a(alt_find_file.o)
                0x0201bb78                alt_find_file
 .text          0x0201bc8c      0x114 ../legocar_firmware_microc_bsp//libucosii_bsp.a(alt_get_fd.o)
                0x0201bc8c                alt_get_fd
 .text          0x0201bda0       0x14 /opt/altera/nios2eds/bin/gnu/H-i686-pc-linux-gnu/bin/../lib/gcc/nios2-elf/4.7.3/../../../../../H-i686-pc-linux-gnu/nios2-elf/lib/mno-hw-mul/libc.a(lib_a-atexit.o)
                0x0201bda0                atexit
 .text          0x0201bdb4       0x38 /opt/altera/nios2eds/bin/gnu/H-i686-pc-linux-gnu/bin/../lib/gcc/nios2-elf/4.7.3/../../../../../H-i686-pc-linux-gnu/nios2-elf/lib/mno-hw-mul/libc.a(lib_a-exit.o)
                0x0201bdb4                exit
 .text          0x0201bdec       0x7c /opt/altera/nios2eds/bin/gnu/H-i686-pc-linux-gnu/bin/../lib/gcc/nios2-elf/4.7.3/../../../../../H-i686-pc-linux-gnu/nios2-elf/lib/mno-hw-mul/libc.a(lib_a-memcmp.o)
                0x0201bdec                memcmp
 .text          0x0201be68      0x130 /opt/altera/nios2eds/bin/gnu/H-i686-pc-linux-gnu/bin/../lib/gcc/nios2-elf/4.7.3/../../../../../H-i686-pc-linux-gnu/nios2-elf/lib/mno-hw-mul/libc.a(lib_a-__atexit.o)
                0x0201be68                __register_exitproc
 .text          0x0201bf98      0x1a0 /opt/altera/nios2eds/bin/gnu/H-i686-pc-linux-gnu/bin/../lib/gcc/nios2-elf/4.7.3/../../../../../H-i686-pc-linux-gnu/nios2-elf/lib/mno-hw-mul/libc.a(lib_a-__call_atexit.o)
                0x0201bf98                __call_exitprocs
 *(.gnu.warning.*)
 *(.fini)
                0x0201c138                PROVIDE (__etext, ABSOLUTE (.))
                0x0201c138                PROVIDE (_etext, ABSOLUTE (.))
                0x0201c138                PROVIDE (etext, ABSOLUTE (.))
 *(.eh_frame_hdr)
                0x0201c138                . = ALIGN (0x4)
                0x0201c138                PROVIDE (__preinit_array_start, ABSOLUTE (.))
 *(.preinit_array)
                0x0201c138                PROVIDE (__preinit_array_end, ABSOLUTE (.))
                0x0201c138                PROVIDE (__init_array_start, ABSOLUTE (.))
 *(.init_array)
                0x0201c138                PROVIDE (__init_array_end, ABSOLUTE (.))
                0x0201c138                PROVIDE (__fini_array_start, ABSOLUTE (.))
 *(.fini_array)
                0x0201c138                PROVIDE (__fini_array_end, ABSOLUTE (.))
 *(.eh_frame)
 *(.gcc_except_table .gcc_except_table.*)
 *(.dynamic)
                0x0201c138                PROVIDE (__CTOR_LIST__, ABSOLUTE (.))
 *(.ctors)
 *(SORT(.ctors.*))
                0x0201c138                PROVIDE (__CTOR_END__, ABSOLUTE (.))
                0x0201c138                PROVIDE (__DTOR_LIST__, ABSOLUTE (.))
 *(.dtors)
 *(SORT(.dtors.*))
                0x0201c138                PROVIDE (__DTOR_END__, ABSOLUTE (.))
 *(.jcr)
                0x0201c138                . = ALIGN (0x4)

.rodata         0x0201c138      0x8bc
                0x0201c138                PROVIDE (__ram_rodata_start, ABSOLUTE (.))
                0x0201c138                . = ALIGN (0x4)
 *(.rodata .rodata.* .gnu.linkonce.r.*)
 .rodata        0x0201c138       0x78 obj/default/ins.o
 .rodata        0x0201c1b0       0x3c obj/default/legocar.o
 .rodata        0x0201c1ec      0x158 obj/default/main.o
 .rodata        0x0201c344       0x34 obj/default/pwm_motor.o
 .rodata        0x0201c378      0x198 obj/default/terasic_lib/flash.o
 .rodata        0x0201c510       0x18 obj/default/wheel_direction.o
 .rodata        0x0201c528       0x10 /opt/altera/nios2eds/bin/gnu/H-i686-pc-linux-gnu/bin/../lib/gcc/nios2-elf/4.7.3/mno-hw-mul/libgcc.a(_thenan_sf.o)
                0x0201c528                __thenan_sf
 .rodata        0x0201c538       0x14 /opt/altera/nios2eds/bin/gnu/H-i686-pc-linux-gnu/bin/../lib/gcc/nios2-elf/4.7.3/mno-hw-mul/libgcc.a(_thenan_df.o)
                0x0201c538                __thenan_df
 .rodata        0x0201c54c      0x100 /opt/altera/nios2eds/bin/gnu/H-i686-pc-linux-gnu/bin/../lib/gcc/nios2-elf/4.7.3/mno-hw-mul/libgcc.a(_clz.o)
                0x0201c54c                __clz_tab
 .rodata.str1.4
                0x0201c64c       0x3f /opt/altera/nios2eds/bin/gnu/H-i686-pc-linux-gnu/bin/../lib/gcc/nios2-elf/4.7.3/../../../../../H-i686-pc-linux-gnu/nios2-elf/lib/mno-hw-mul/libc.a(lib_a-assert.o)
                                 0x44 (size before relaxing)
 *fill*         0x0201c68b        0x1 
 .rodata.str1.4
                0x0201c68c        0x2 /opt/altera/nios2eds/bin/gnu/H-i686-pc-linux-gnu/bin/../lib/gcc/nios2-elf/4.7.3/../../../../../H-i686-pc-linux-gnu/nios2-elf/lib/mno-hw-mul/libc.a(lib_a-impure.o)
                                  0x4 (size before relaxing)
 *fill*         0x0201c68e        0x2 
 .rodata.str1.4
                0x0201c690        0x2 /opt/altera/nios2eds/bin/gnu/H-i686-pc-linux-gnu/bin/../lib/gcc/nios2-elf/4.7.3/../../../../../H-i686-pc-linux-gnu/nios2-elf/lib/mno-hw-mul/libc.a(lib_a-puts.o)
                                  0x4 (size before relaxing)
 *fill*         0x0201c692        0x2 
 .rodata.str1.4
                0x0201c694       0x42 /opt/altera/nios2eds/bin/gnu/H-i686-pc-linux-gnu/bin/../lib/gcc/nios2-elf/4.7.3/../../../../../H-i686-pc-linux-gnu/nios2-elf/lib/mno-hw-mul/libc.a(lib_a-vfprintf.o)
                                 0x44 (size before relaxing)
 .rodata        0x0201c6d6       0x20 /opt/altera/nios2eds/bin/gnu/H-i686-pc-linux-gnu/bin/../lib/gcc/nios2-elf/4.7.3/../../../../../H-i686-pc-linux-gnu/nios2-elf/lib/mno-hw-mul/libc.a(lib_a-vfprintf.o)
 *fill*         0x0201c6f6        0x2 
 .rodata.str1.4
                0x0201c6f8       0x10 /opt/altera/nios2eds/bin/gnu/H-i686-pc-linux-gnu/bin/../lib/gcc/nios2-elf/4.7.3/../../../../../H-i686-pc-linux-gnu/nios2-elf/lib/mno-hw-mul/libc.a(lib_a-dtoa.o)
                                 0x14 (size before relaxing)
 .rodata.str1.4
                0x0201c708       0x10 /opt/altera/nios2eds/bin/gnu/H-i686-pc-linux-gnu/bin/../lib/gcc/nios2-elf/4.7.3/../../../../../H-i686-pc-linux-gnu/nios2-elf/lib/mno-hw-mul/libc.a(lib_a-locale.o)
                                 0x18 (size before relaxing)
 .rodata        0x0201c718       0x30 /opt/altera/nios2eds/bin/gnu/H-i686-pc-linux-gnu/bin/../lib/gcc/nios2-elf/4.7.3/../../../../../H-i686-pc-linux-gnu/nios2-elf/lib/mno-hw-mul/libc.a(lib_a-locale.o)
 .rodata        0x0201c748      0x124 /opt/altera/nios2eds/bin/gnu/H-i686-pc-linux-gnu/bin/../lib/gcc/nios2-elf/4.7.3/../../../../../H-i686-pc-linux-gnu/nios2-elf/lib/mno-hw-mul/libc.a(lib_a-mprec.o)
                0x0201c748                __mprec_tinytens
                0x0201c770                __mprec_bigtens
                0x0201c798                __mprec_tens
 .rodata.str1.4
                0x00000000       0x30 /opt/altera/nios2eds/bin/gnu/H-i686-pc-linux-gnu/bin/../lib/gcc/nios2-elf/4.7.3/../../../../../H-i686-pc-linux-gnu/nios2-elf/lib/mno-hw-mul/libc.a(lib_a-vfiprintf.o)
 .rodata        0x0201c86c       0x20 /opt/altera/nios2eds/bin/gnu/H-i686-pc-linux-gnu/bin/../lib/gcc/nios2-elf/4.7.3/../../../../../H-i686-pc-linux-gnu/nios2-elf/lib/mno-hw-mul/libc.a(lib_a-vfiprintf.o)
 .rodata        0x0201c88c        0xc ../legocar_firmware_microc_bsp//libucosii_bsp.a(alt_dev.o)
 .rodata        0x0201c898       0x10 ../legocar_firmware_microc_bsp//libucosii_bsp.a(alt_main.o)
 .rodata        0x0201c8a8      0x120 ../legocar_firmware_microc_bsp//libucosii_bsp.a(os_core.o)
                0x0201c8a8                OSUnMapTbl
 .rodata        0x0201c9c8       0x28 ../legocar_firmware_microc_bsp//libucosii_bsp.a(alt_sys_init.o)
 .rodata        0x0201c9f0        0x4 ../legocar_firmware_microc_bsp//libucosii_bsp.a(os_cpu_c.o)
 *(.rodata1)
                0x0201c9f4                . = ALIGN (0x4)
                0x0201c9f4                PROVIDE (__ram_rodata_end, ABSOLUTE (.))
                0x0201c138                PROVIDE (__flash_rodata_start, LOADADDR (.rodata))

.rwdata         0x0201c9f4     0x1c90 load address 0x0201e684
                0x0201c9f4                PROVIDE (__ram_rwdata_start, ABSOLUTE (.))
                0x0201c9f4                . = ALIGN (0x4)
 *(.got.plt)
 *(.got)
 *(.data1)
 *(.data .data.* .gnu.linkonce.d.*)
 .data          0x0201c9f4        0x0 ../legocar_firmware_microc_bsp//obj/HAL/src/crt0.o
 .data          0x0201c9f4        0x0 obj/default/ins.o
 .data          0x0201c9f4        0x0 obj/default/legocar.o
 .data          0x0201c9f4        0x0 obj/default/main.o
 .data          0x0201c9f4        0x0 obj/default/pwm_motor.o
 .data          0x0201c9f4        0x0 obj/default/terasic_lib/I2C.o
 .data          0x0201c9f4        0x0 obj/default/terasic_lib/accelerometer_adxl345_spi.o
 .data          0x0201c9f4        0x0 obj/default/terasic_lib/adc_spi_read.o
 .data          0x0201c9f4        0x0 obj/default/terasic_lib/flash.o
 .data          0x0201c9f4        0x0 obj/default/terasic_lib/terasic_spi.o
 .data          0x0201c9f4        0x0 obj/default/wheel_direction.o
 .data          0x0201c9f4        0x0 /opt/altera/nios2eds/bin/gnu/H-i686-pc-linux-gnu/bin/../lib/gcc/nios2-elf/4.7.3/mno-hw-mul/libgcc.a(_fixunsdfsi.o)
 .data          0x0201c9f4        0x0 /opt/altera/nios2eds/bin/gnu/H-i686-pc-linux-gnu/bin/../lib/gcc/nios2-elf/4.7.3/mno-hw-mul/libgcc.a(_addsub_sf.o)
 .data          0x0201c9f4        0x0 /opt/altera/nios2eds/bin/gnu/H-i686-pc-linux-gnu/bin/../lib/gcc/nios2-elf/4.7.3/mno-hw-mul/libgcc.a(_mul_sf.o)
 .data          0x0201c9f4        0x0 /opt/altera/nios2eds/bin/gnu/H-i686-pc-linux-gnu/bin/../lib/gcc/nios2-elf/4.7.3/mno-hw-mul/libgcc.a(_gt_sf.o)
 .data          0x0201c9f4        0x0 /opt/altera/nios2eds/bin/gnu/H-i686-pc-linux-gnu/bin/../lib/gcc/nios2-elf/4.7.3/mno-hw-mul/libgcc.a(_ge_sf.o)
 .data          0x0201c9f4        0x0 /opt/altera/nios2eds/bin/gnu/H-i686-pc-linux-gnu/bin/../lib/gcc/nios2-elf/4.7.3/mno-hw-mul/libgcc.a(_le_sf.o)
 .data          0x0201c9f4        0x0 /opt/altera/nios2eds/bin/gnu/H-i686-pc-linux-gnu/bin/../lib/gcc/nios2-elf/4.7.3/mno-hw-mul/libgcc.a(_sf_to_si.o)
 .data          0x0201c9f4        0x0 /opt/altera/nios2eds/bin/gnu/H-i686-pc-linux-gnu/bin/../lib/gcc/nios2-elf/4.7.3/mno-hw-mul/libgcc.a(_sf_to_df.o)
 .data          0x0201c9f4        0x0 /opt/altera/nios2eds/bin/gnu/H-i686-pc-linux-gnu/bin/../lib/gcc/nios2-elf/4.7.3/mno-hw-mul/libgcc.a(_thenan_sf.o)
 .data          0x0201c9f4        0x0 /opt/altera/nios2eds/bin/gnu/H-i686-pc-linux-gnu/bin/../lib/gcc/nios2-elf/4.7.3/mno-hw-mul/libgcc.a(_usi_to_sf.o)
 .data          0x0201c9f4        0x0 /opt/altera/nios2eds/bin/gnu/H-i686-pc-linux-gnu/bin/../lib/gcc/nios2-elf/4.7.3/mno-hw-mul/libgcc.a(_addsub_df.o)
 .data          0x0201c9f4        0x0 /opt/altera/nios2eds/bin/gnu/H-i686-pc-linux-gnu/bin/../lib/gcc/nios2-elf/4.7.3/mno-hw-mul/libgcc.a(_mul_df.o)
 .data          0x0201c9f4        0x0 /opt/altera/nios2eds/bin/gnu/H-i686-pc-linux-gnu/bin/../lib/gcc/nios2-elf/4.7.3/mno-hw-mul/libgcc.a(_div_df.o)
 .data          0x0201c9f4        0x0 /opt/altera/nios2eds/bin/gnu/H-i686-pc-linux-gnu/bin/../lib/gcc/nios2-elf/4.7.3/mno-hw-mul/libgcc.a(_eq_df.o)
 .data          0x0201c9f4        0x0 /opt/altera/nios2eds/bin/gnu/H-i686-pc-linux-gnu/bin/../lib/gcc/nios2-elf/4.7.3/mno-hw-mul/libgcc.a(_ge_df.o)
 .data          0x0201c9f4        0x0 /opt/altera/nios2eds/bin/gnu/H-i686-pc-linux-gnu/bin/../lib/gcc/nios2-elf/4.7.3/mno-hw-mul/libgcc.a(_si_to_df.o)
 .data          0x0201c9f4        0x0 /opt/altera/nios2eds/bin/gnu/H-i686-pc-linux-gnu/bin/../lib/gcc/nios2-elf/4.7.3/mno-hw-mul/libgcc.a(_df_to_si.o)
 .data          0x0201c9f4        0x0 /opt/altera/nios2eds/bin/gnu/H-i686-pc-linux-gnu/bin/../lib/gcc/nios2-elf/4.7.3/mno-hw-mul/libgcc.a(_make_df.o)
 .data          0x0201c9f4        0x0 /opt/altera/nios2eds/bin/gnu/H-i686-pc-linux-gnu/bin/../lib/gcc/nios2-elf/4.7.3/mno-hw-mul/libgcc.a(_df_to_sf.o)
 .data          0x0201c9f4        0x0 /opt/altera/nios2eds/bin/gnu/H-i686-pc-linux-gnu/bin/../lib/gcc/nios2-elf/4.7.3/mno-hw-mul/libgcc.a(_thenan_df.o)
 .data          0x0201c9f4        0x0 /opt/altera/nios2eds/bin/gnu/H-i686-pc-linux-gnu/bin/../lib/gcc/nios2-elf/4.7.3/mno-hw-mul/libgcc.a(lib2-divmod.o)
 .data          0x0201c9f4        0x0 /opt/altera/nios2eds/bin/gnu/H-i686-pc-linux-gnu/bin/../lib/gcc/nios2-elf/4.7.3/mno-hw-mul/libgcc.a(_muldi3.o)
 .data          0x0201c9f4        0x0 /opt/altera/nios2eds/bin/gnu/H-i686-pc-linux-gnu/bin/../lib/gcc/nios2-elf/4.7.3/mno-hw-mul/libgcc.a(_clzsi2.o)
 .data          0x0201c9f4        0x0 /opt/altera/nios2eds/bin/gnu/H-i686-pc-linux-gnu/bin/../lib/gcc/nios2-elf/4.7.3/mno-hw-mul/libgcc.a(_pack_sf.o)
 .data          0x0201c9f4        0x0 /opt/altera/nios2eds/bin/gnu/H-i686-pc-linux-gnu/bin/../lib/gcc/nios2-elf/4.7.3/mno-hw-mul/libgcc.a(_unpack_sf.o)
 .data          0x0201c9f4        0x0 /opt/altera/nios2eds/bin/gnu/H-i686-pc-linux-gnu/bin/../lib/gcc/nios2-elf/4.7.3/mno-hw-mul/libgcc.a(_fpcmp_parts_sf.o)
 .data          0x0201c9f4        0x0 /opt/altera/nios2eds/bin/gnu/H-i686-pc-linux-gnu/bin/../lib/gcc/nios2-elf/4.7.3/mno-hw-mul/libgcc.a(_make_sf.o)
 .data          0x0201c9f4        0x0 /opt/altera/nios2eds/bin/gnu/H-i686-pc-linux-gnu/bin/../lib/gcc/nios2-elf/4.7.3/mno-hw-mul/libgcc.a(_pack_df.o)
 .data          0x0201c9f4        0x0 /opt/altera/nios2eds/bin/gnu/H-i686-pc-linux-gnu/bin/../lib/gcc/nios2-elf/4.7.3/mno-hw-mul/libgcc.a(_unpack_df.o)
 .data          0x0201c9f4        0x0 /opt/altera/nios2eds/bin/gnu/H-i686-pc-linux-gnu/bin/../lib/gcc/nios2-elf/4.7.3/mno-hw-mul/libgcc.a(_fpcmp_parts_df.o)
 .data          0x0201c9f4        0x0 /opt/altera/nios2eds/bin/gnu/H-i686-pc-linux-gnu/bin/../lib/gcc/nios2-elf/4.7.3/mno-hw-mul/libgcc.a(lib2-mul.o)
 .data          0x0201c9f4        0x0 /opt/altera/nios2eds/bin/gnu/H-i686-pc-linux-gnu/bin/../lib/gcc/nios2-elf/4.7.3/mno-hw-mul/libgcc.a(_lshrdi3.o)
 .data          0x0201c9f4        0x0 /opt/altera/nios2eds/bin/gnu/H-i686-pc-linux-gnu/bin/../lib/gcc/nios2-elf/4.7.3/mno-hw-mul/libgcc.a(_ashldi3.o)
 .data          0x0201c9f4        0x0 /opt/altera/nios2eds/bin/gnu/H-i686-pc-linux-gnu/bin/../lib/gcc/nios2-elf/4.7.3/mno-hw-mul/libgcc.a(_clz.o)
 .data          0x0201c9f4        0x0 /opt/altera/nios2eds/bin/gnu/H-i686-pc-linux-gnu/bin/../lib/gcc/nios2-elf/4.7.3/../../../../../H-i686-pc-linux-gnu/nios2-elf/lib/mno-hw-mul/libc.a(lib_a-assert.o)
 .data          0x0201c9f4        0x0 /opt/altera/nios2eds/bin/gnu/H-i686-pc-linux-gnu/bin/../lib/gcc/nios2-elf/4.7.3/../../../../../H-i686-pc-linux-gnu/nios2-elf/lib/mno-hw-mul/libc.a(lib_a-fiprintf.o)
 .data          0x0201c9f4      0x400 /opt/altera/nios2eds/bin/gnu/H-i686-pc-linux-gnu/bin/../lib/gcc/nios2-elf/4.7.3/../../../../../H-i686-pc-linux-gnu/nios2-elf/lib/mno-hw-mul/libc.a(lib_a-impure.o)
 .data          0x0201cdf4        0x0 /opt/altera/nios2eds/bin/gnu/H-i686-pc-linux-gnu/bin/../lib/gcc/nios2-elf/4.7.3/../../../../../H-i686-pc-linux-gnu/nios2-elf/lib/mno-hw-mul/libc.a(lib_a-malloc.o)
 .data          0x0201cdf4      0x408 /opt/altera/nios2eds/bin/gnu/H-i686-pc-linux-gnu/bin/../lib/gcc/nios2-elf/4.7.3/../../../../../H-i686-pc-linux-gnu/nios2-elf/lib/mno-hw-mul/libc.a(lib_a-mallocr.o)
                0x0201cdf4                __malloc_av_
 .data          0x0201d1fc        0x0 /opt/altera/nios2eds/bin/gnu/H-i686-pc-linux-gnu/bin/../lib/gcc/nios2-elf/4.7.3/../../../../../H-i686-pc-linux-gnu/nios2-elf/lib/mno-hw-mul/libc.a(lib_a-printf.o)
 .data          0x0201d1fc        0x0 /opt/altera/nios2eds/bin/gnu/H-i686-pc-linux-gnu/bin/../lib/gcc/nios2-elf/4.7.3/../../../../../H-i686-pc-linux-gnu/nios2-elf/lib/mno-hw-mul/libc.a(lib_a-puts.o)
 .data          0x0201d1fc        0x0 /opt/altera/nios2eds/bin/gnu/H-i686-pc-linux-gnu/bin/../lib/gcc/nios2-elf/4.7.3/../../../../../H-i686-pc-linux-gnu/nios2-elf/lib/mno-hw-mul/libc.a(lib_a-sbrkr.o)
 .data          0x0201d1fc        0x0 /opt/altera/nios2eds/bin/gnu/H-i686-pc-linux-gnu/bin/../lib/gcc/nios2-elf/4.7.3/../../../../../H-i686-pc-linux-gnu/nios2-elf/lib/mno-hw-mul/libc.a(lib_a-strlen.o)
 .data          0x0201d1fc        0x0 /opt/altera/nios2eds/bin/gnu/H-i686-pc-linux-gnu/bin/../lib/gcc/nios2-elf/4.7.3/../../../../../H-i686-pc-linux-gnu/nios2-elf/lib/mno-hw-mul/libc.a(lib_a-vfiprintfr_1.o)
 .data          0x0201d1fc        0x0 /opt/altera/nios2eds/bin/gnu/H-i686-pc-linux-gnu/bin/../lib/gcc/nios2-elf/4.7.3/../../../../../H-i686-pc-linux-gnu/nios2-elf/lib/mno-hw-mul/libc.a(lib_a-vfprintf.o)
 .data          0x0201d1fc        0x0 /opt/altera/nios2eds/bin/gnu/H-i686-pc-linux-gnu/bin/../lib/gcc/nios2-elf/4.7.3/../../../../../H-i686-pc-linux-gnu/nios2-elf/lib/mno-hw-mul/libc.a(lib_a-wsetup.o)
 .data          0x0201d1fc        0x0 /opt/altera/nios2eds/bin/gnu/H-i686-pc-linux-gnu/bin/../lib/gcc/nios2-elf/4.7.3/../../../../../H-i686-pc-linux-gnu/nios2-elf/lib/mno-hw-mul/libc.a(lib_a-abort.o)
 .data          0x0201d1fc        0x0 /opt/altera/nios2eds/bin/gnu/H-i686-pc-linux-gnu/bin/../lib/gcc/nios2-elf/4.7.3/../../../../../H-i686-pc-linux-gnu/nios2-elf/lib/mno-hw-mul/libc.a(lib_a-dtoa.o)
 .data          0x0201d1fc        0x0 /opt/altera/nios2eds/bin/gnu/H-i686-pc-linux-gnu/bin/../lib/gcc/nios2-elf/4.7.3/../../../../../H-i686-pc-linux-gnu/nios2-elf/lib/mno-hw-mul/libc.a(lib_a-fflush.o)
 .data          0x0201d1fc        0x0 /opt/altera/nios2eds/bin/gnu/H-i686-pc-linux-gnu/bin/../lib/gcc/nios2-elf/4.7.3/../../../../../H-i686-pc-linux-gnu/nios2-elf/lib/mno-hw-mul/libc.a(lib_a-findfp.o)
 .data          0x0201d1fc        0x0 /opt/altera/nios2eds/bin/gnu/H-i686-pc-linux-gnu/bin/../lib/gcc/nios2-elf/4.7.3/../../../../../H-i686-pc-linux-gnu/nios2-elf/lib/mno-hw-mul/libc.a(lib_a-freer.o)
 .data          0x0201d1fc        0x0 /opt/altera/nios2eds/bin/gnu/H-i686-pc-linux-gnu/bin/../lib/gcc/nios2-elf/4.7.3/../../../../../H-i686-pc-linux-gnu/nios2-elf/lib/mno-hw-mul/libc.a(lib_a-fvwrite.o)
 .data          0x0201d1fc        0x0 /opt/altera/nios2eds/bin/gnu/H-i686-pc-linux-gnu/bin/../lib/gcc/nios2-elf/4.7.3/../../../../../H-i686-pc-linux-gnu/nios2-elf/lib/mno-hw-mul/libc.a(lib_a-fwalk.o)
 .data          0x0201d1fc        0x0 /opt/altera/nios2eds/bin/gnu/H-i686-pc-linux-gnu/bin/../lib/gcc/nios2-elf/4.7.3/../../../../../H-i686-pc-linux-gnu/nios2-elf/lib/mno-hw-mul/libc.a(lib_a-int_errno.o)
 .data          0x0201d1fc        0xc /opt/altera/nios2eds/bin/gnu/H-i686-pc-linux-gnu/bin/../lib/gcc/nios2-elf/4.7.3/../../../../../H-i686-pc-linux-gnu/nios2-elf/lib/mno-hw-mul/libc.a(lib_a-locale.o)
                0x0201d1fc                __lc_ctype
 .data          0x0201d208        0x0 /opt/altera/nios2eds/bin/gnu/H-i686-pc-linux-gnu/bin/../lib/gcc/nios2-elf/4.7.3/../../../../../H-i686-pc-linux-gnu/nios2-elf/lib/mno-hw-mul/libc.a(lib_a-makebuf.o)
 .data          0x0201d208        0x0 /opt/altera/nios2eds/bin/gnu/H-i686-pc-linux-gnu/bin/../lib/gcc/nios2-elf/4.7.3/../../../../../H-i686-pc-linux-gnu/nios2-elf/lib/mno-hw-mul/libc.a(lib_a-memchr.o)
 .data          0x0201d208        0x0 /opt/altera/nios2eds/bin/gnu/H-i686-pc-linux-gnu/bin/../lib/gcc/nios2-elf/4.7.3/../../../../../H-i686-pc-linux-gnu/nios2-elf/lib/mno-hw-mul/libc.a(lib_a-memcpy.o)
 .data          0x0201d208        0x0 /opt/altera/nios2eds/bin/gnu/H-i686-pc-linux-gnu/bin/../lib/gcc/nios2-elf/4.7.3/../../../../../H-i686-pc-linux-gnu/nios2-elf/lib/mno-hw-mul/libc.a(lib_a-memmove.o)
 .data          0x0201d208        0x0 /opt/altera/nios2eds/bin/gnu/H-i686-pc-linux-gnu/bin/../lib/gcc/nios2-elf/4.7.3/../../../../../H-i686-pc-linux-gnu/nios2-elf/lib/mno-hw-mul/libc.a(lib_a-memset.o)
 .data          0x0201d208        0x0 /opt/altera/nios2eds/bin/gnu/H-i686-pc-linux-gnu/bin/../lib/gcc/nios2-elf/4.7.3/../../../../../H-i686-pc-linux-gnu/nios2-elf/lib/mno-hw-mul/libc.a(lib_a-mprec.o)
 .data          0x0201d208        0x0 /opt/altera/nios2eds/bin/gnu/H-i686-pc-linux-gnu/bin/../lib/gcc/nios2-elf/4.7.3/../../../../../H-i686-pc-linux-gnu/nios2-elf/lib/mno-hw-mul/libc.a(lib_a-reallocr.o)
 .data          0x0201d208        0x0 /opt/altera/nios2eds/bin/gnu/H-i686-pc-linux-gnu/bin/../lib/gcc/nios2-elf/4.7.3/../../../../../H-i686-pc-linux-gnu/nios2-elf/lib/mno-hw-mul/libc.a(lib_a-s_isinfd.o)
 .data          0x0201d208        0x0 /opt/altera/nios2eds/bin/gnu/H-i686-pc-linux-gnu/bin/../lib/gcc/nios2-elf/4.7.3/../../../../../H-i686-pc-linux-gnu/nios2-elf/lib/mno-hw-mul/libc.a(lib_a-s_isnand.o)
 .data          0x0201d208        0x0 /opt/altera/nios2eds/bin/gnu/H-i686-pc-linux-gnu/bin/../lib/gcc/nios2-elf/4.7.3/../../../../../H-i686-pc-linux-gnu/nios2-elf/lib/mno-hw-mul/libc.a(lib_a-signal.o)
 .data          0x0201d208        0x0 /opt/altera/nios2eds/bin/gnu/H-i686-pc-linux-gnu/bin/../lib/gcc/nios2-elf/4.7.3/../../../../../H-i686-pc-linux-gnu/nios2-elf/lib/mno-hw-mul/libc.a(lib_a-signalr.o)
 .data          0x0201d208        0x0 /opt/altera/nios2eds/bin/gnu/H-i686-pc-linux-gnu/bin/../lib/gcc/nios2-elf/4.7.3/../../../../../H-i686-pc-linux-gnu/nios2-elf/lib/mno-hw-mul/libc.a(lib_a-stdio.o)
 .data          0x0201d208        0x0 /opt/altera/nios2eds/bin/gnu/H-i686-pc-linux-gnu/bin/../lib/gcc/nios2-elf/4.7.3/../../../../../H-i686-pc-linux-gnu/nios2-elf/lib/mno-hw-mul/libc.a(lib_a-strcmp.o)
 .data          0x0201d208        0x0 /opt/altera/nios2eds/bin/gnu/H-i686-pc-linux-gnu/bin/../lib/gcc/nios2-elf/4.7.3/../../../../../H-i686-pc-linux-gnu/nios2-elf/lib/mno-hw-mul/libc.a(lib_a-vfiprintf.o)
 .data          0x0201d208        0x0 /opt/altera/nios2eds/bin/gnu/H-i686-pc-linux-gnu/bin/../lib/gcc/nios2-elf/4.7.3/../../../../../H-i686-pc-linux-gnu/nios2-elf/lib/mno-hw-mul/libc.a(lib_a-writer.o)
 .data          0x0201d208        0x0 /opt/altera/nios2eds/bin/gnu/H-i686-pc-linux-gnu/bin/../lib/gcc/nios2-elf/4.7.3/../../../../../H-i686-pc-linux-gnu/nios2-elf/lib/mno-hw-mul/libc.a(lib_a-callocr.o)
 .data          0x0201d208        0x0 /opt/altera/nios2eds/bin/gnu/H-i686-pc-linux-gnu/bin/../lib/gcc/nios2-elf/4.7.3/../../../../../H-i686-pc-linux-gnu/nios2-elf/lib/mno-hw-mul/libc.a(lib_a-closer.o)
 .data          0x0201d208        0x0 /opt/altera/nios2eds/bin/gnu/H-i686-pc-linux-gnu/bin/../lib/gcc/nios2-elf/4.7.3/../../../../../H-i686-pc-linux-gnu/nios2-elf/lib/mno-hw-mul/libc.a(lib_a-fclose.o)
 .data          0x0201d208        0x0 /opt/altera/nios2eds/bin/gnu/H-i686-pc-linux-gnu/bin/../lib/gcc/nios2-elf/4.7.3/../../../../../H-i686-pc-linux-gnu/nios2-elf/lib/mno-hw-mul/libc.a(lib_a-fstatr.o)
 .data          0x0201d208        0x0 /opt/altera/nios2eds/bin/gnu/H-i686-pc-linux-gnu/bin/../lib/gcc/nios2-elf/4.7.3/../../../../../H-i686-pc-linux-gnu/nios2-elf/lib/mno-hw-mul/libc.a(lib_a-isattyr.o)
 .data          0x0201d208        0x0 /opt/altera/nios2eds/bin/gnu/H-i686-pc-linux-gnu/bin/../lib/gcc/nios2-elf/4.7.3/../../../../../H-i686-pc-linux-gnu/nios2-elf/lib/mno-hw-mul/libc.a(lib_a-lseekr.o)
 .data          0x0201d208        0x0 /opt/altera/nios2eds/bin/gnu/H-i686-pc-linux-gnu/bin/../lib/gcc/nios2-elf/4.7.3/../../../../../H-i686-pc-linux-gnu/nios2-elf/lib/mno-hw-mul/libc.a(lib_a-readr.o)
 .data          0x0201d208        0x0 /opt/altera/nios2eds/bin/gnu/H-i686-pc-linux-gnu/bin/../lib/gcc/nios2-elf/4.7.3/mno-hw-mul/libgcc.a(_udivdi3.o)
 .data          0x0201d208        0x0 /opt/altera/nios2eds/bin/gnu/H-i686-pc-linux-gnu/bin/../lib/gcc/nios2-elf/4.7.3/mno-hw-mul/libgcc.a(_umoddi3.o)
 .data          0x0201d208        0x0 /opt/altera/nios2eds/bin/gnu/H-i686-pc-linux-gnu/bin/../lib/gcc/nios2-elf/4.7.3/mno-hw-mul/libgcc.a(_ne_df.o)
 .data          0x0201d208        0x0 /opt/altera/nios2eds/bin/gnu/H-i686-pc-linux-gnu/bin/../lib/gcc/nios2-elf/4.7.3/mno-hw-mul/libgcc.a(_gt_df.o)
 .data          0x0201d208        0x0 /opt/altera/nios2eds/bin/gnu/H-i686-pc-linux-gnu/bin/../lib/gcc/nios2-elf/4.7.3/mno-hw-mul/libgcc.a(_lt_df.o)
 .data          0x0201d208        0x0 /opt/altera/nios2eds/bin/gnu/H-i686-pc-linux-gnu/bin/../lib/gcc/nios2-elf/4.7.3/mno-hw-mul/libgcc.a(_usi_to_df.o)
 .data          0x0201d208        0x0 ../legocar_firmware_microc_bsp//libucosii_bsp.a(alt_close.o)
 .data          0x0201d208        0x0 ../legocar_firmware_microc_bsp//libucosii_bsp.a(alt_dcache_flush.o)
 .data          0x0201d208        0x0 ../legocar_firmware_microc_bsp//libucosii_bsp.a(alt_dcache_flush_all.o)
 .data          0x0201d208      0x1a8 ../legocar_firmware_microc_bsp//libucosii_bsp.a(alt_dev.o)
                0x0201d208                alt_dev_null
                0x0201d230                alt_fd_list
 .data          0x0201d3b0        0x0 ../legocar_firmware_microc_bsp//libucosii_bsp.a(alt_errno.o)
 .data          0x0201d3b0        0x0 ../legocar_firmware_microc_bsp//libucosii_bsp.a(alt_exit.o)
 .data          0x0201d3b0        0x0 ../legocar_firmware_microc_bsp//libucosii_bsp.a(alt_flash_dev.o)
 .data          0x0201d3b0        0x0 ../legocar_firmware_microc_bsp//libucosii_bsp.a(alt_fstat.o)
 .data          0x0201d3b0        0x0 ../legocar_firmware_microc_bsp//libucosii_bsp.a(alt_getpid.o)
 .data          0x0201d3b0        0x0 ../legocar_firmware_microc_bsp//libucosii_bsp.a(alt_isatty.o)
 .data          0x0201d3b0        0x0 ../legocar_firmware_microc_bsp//libucosii_bsp.a(alt_kill.o)
 .data          0x0201d3b0        0x0 ../legocar_firmware_microc_bsp//libucosii_bsp.a(alt_load.o)
 .data          0x0201d3b0        0x0 ../legocar_firmware_microc_bsp//libucosii_bsp.a(alt_lseek.o)
 .data          0x0201d3b0        0x0 ../legocar_firmware_microc_bsp//libucosii_bsp.a(alt_main.o)
 .data          0x0201d3b0        0x0 ../legocar_firmware_microc_bsp//libucosii_bsp.a(alt_read.o)
 .data          0x0201d3b0        0x0 ../legocar_firmware_microc_bsp//libucosii_bsp.a(alt_release_fd.o)
 .data          0x0201d3b0        0x0 ../legocar_firmware_microc_bsp//libucosii_bsp.a(alt_sbrk.o)
 .data          0x0201d3b0        0x0 ../legocar_firmware_microc_bsp//libucosii_bsp.a(alt_tick.o)
 .data          0x0201d3b0        0x0 ../legocar_firmware_microc_bsp//libucosii_bsp.a(alt_usleep.o)
 .data          0x0201d3b0        0x0 ../legocar_firmware_microc_bsp//libucosii_bsp.a(alt_write.o)
 .data          0x0201d3b0        0x0 ../legocar_firmware_microc_bsp//libucosii_bsp.a(alt_env_lock.o)
 .data          0x0201d3b0        0x0 ../legocar_firmware_microc_bsp//libucosii_bsp.a(alt_malloc_lock.o)
 .data          0x0201d3b0        0x0 ../legocar_firmware_microc_bsp//libucosii_bsp.a(os_core.o)
 .data          0x0201d3b0        0x0 ../legocar_firmware_microc_bsp//libucosii_bsp.a(os_dbg.o)
 .data          0x0201d3b0        0x0 ../legocar_firmware_microc_bsp//libucosii_bsp.a(os_flag.o)
 .data          0x0201d3b0        0x0 ../legocar_firmware_microc_bsp//libucosii_bsp.a(os_mem.o)
 .data          0x0201d3b0        0x0 ../legocar_firmware_microc_bsp//libucosii_bsp.a(os_q.o)
 .data          0x0201d3b0        0x0 ../legocar_firmware_microc_bsp//libucosii_bsp.a(os_sem.o)
 .data          0x0201d3b0        0x0 ../legocar_firmware_microc_bsp//libucosii_bsp.a(os_task.o)
 .data          0x0201d3b0        0x0 ../legocar_firmware_microc_bsp//libucosii_bsp.a(os_time.o)
 .data          0x0201d3b0     0x1204 ../legocar_firmware_microc_bsp//libucosii_bsp.a(alt_sys_init.o)
 .data          0x0201e5b4        0x0 ../legocar_firmware_microc_bsp//libucosii_bsp.a(altera_avalon_epcs_flash_controller.o)
 .data          0x0201e5b4        0x0 ../legocar_firmware_microc_bsp//libucosii_bsp.a(altera_avalon_jtag_uart_fd.o)
 .data          0x0201e5b4        0x0 ../legocar_firmware_microc_bsp//libucosii_bsp.a(altera_avalon_jtag_uart_init.o)
 .data          0x0201e5b4        0x0 ../legocar_firmware_microc_bsp//libucosii_bsp.a(altera_avalon_jtag_uart_ioctl.o)
 .data          0x0201e5b4        0x0 ../legocar_firmware_microc_bsp//libucosii_bsp.a(altera_avalon_jtag_uart_read.o)
 .data          0x0201e5b4        0x0 ../legocar_firmware_microc_bsp//libucosii_bsp.a(altera_avalon_jtag_uart_write.o)
 .data          0x0201e5b4        0x0 ../legocar_firmware_microc_bsp//libucosii_bsp.a(altera_avalon_timer_sc.o)
 .data          0x0201e5b4        0x0 ../legocar_firmware_microc_bsp//libucosii_bsp.a(altera_avalon_uart_fd.o)
 .data          0x0201e5b4        0x0 ../legocar_firmware_microc_bsp//libucosii_bsp.a(altera_avalon_uart_init.o)
 .data          0x0201e5b4        0x0 ../legocar_firmware_microc_bsp//libucosii_bsp.a(altera_avalon_uart_read.o)
 .data          0x0201e5b4        0x0 ../legocar_firmware_microc_bsp//libucosii_bsp.a(altera_avalon_uart_write.o)
 .data          0x0201e5b4        0x0 ../legocar_firmware_microc_bsp//libucosii_bsp.a(epcs_commands.o)
 .data          0x0201e5b4        0x0 ../legocar_firmware_microc_bsp//libucosii_bsp.a(alt_alarm_start.o)
 .data          0x0201e5b4        0x0 ../legocar_firmware_microc_bsp//libucosii_bsp.a(alt_busy_sleep.o)
 .data          0x0201e5b4        0x0 ../legocar_firmware_microc_bsp//libucosii_bsp.a(alt_dev_llist_insert.o)
 .data          0x0201e5b4        0x0 ../legocar_firmware_microc_bsp//libucosii_bsp.a(alt_do_ctors.o)
 .data          0x0201e5b4        0x0 ../legocar_firmware_microc_bsp//libucosii_bsp.a(alt_do_dtors.o)
 .data          0x0201e5b4        0x0 ../legocar_firmware_microc_bsp//libucosii_bsp.a(alt_find_dev.o)
 .data          0x0201e5b4        0x0 ../legocar_firmware_microc_bsp//libucosii_bsp.a(alt_icache_flush_all.o)
 .data          0x0201e5b4        0x0 ../legocar_firmware_microc_bsp//libucosii_bsp.a(alt_iic.o)
 .data          0x0201e5b4        0x0 ../legocar_firmware_microc_bsp//libucosii_bsp.a(alt_iic_isr_register.o)
 .data          0x0201e5b4        0x0 ../legocar_firmware_microc_bsp//libucosii_bsp.a(alt_io_redirect.o)
 .data          0x0201e5b4        0x0 ../legocar_firmware_microc_bsp//libucosii_bsp.a(alt_irq_entry.o)
 .data          0x0201e5b4        0x0 ../legocar_firmware_microc_bsp//libucosii_bsp.a(alt_irq_handler.o)
 .data          0x0201e5b4        0x0 ../legocar_firmware_microc_bsp//libucosii_bsp.a(alt_irq_vars.o)
 .data          0x0201e5b4        0x0 ../legocar_firmware_microc_bsp//libucosii_bsp.a(alt_open.o)
 .data          0x0201e5b4        0x0 ../legocar_firmware_microc_bsp//libucosii_bsp.a(altera_nios2_irq.o)
 .data          0x0201e5b4        0x0 ../legocar_firmware_microc_bsp//libucosii_bsp.a(os_cpu_a.o)
 .data          0x0201e5b4        0x0 ../legocar_firmware_microc_bsp//libucosii_bsp.a(os_cpu_c.o)
 .data          0x0201e5b4        0x0 ../legocar_firmware_microc_bsp//libucosii_bsp.a(altera_avalon_spi.o)
 .data          0x0201e5b4        0x0 ../legocar_firmware_microc_bsp//libucosii_bsp.a(alt_exception_entry.o)
 .data          0x0201e5b4        0x0 ../legocar_firmware_microc_bsp//libucosii_bsp.a(alt_find_file.o)
 .data          0x0201e5b4        0x0 ../legocar_firmware_microc_bsp//libucosii_bsp.a(alt_get_fd.o)
 .data          0x0201e5b4        0x0 /opt/altera/nios2eds/bin/gnu/H-i686-pc-linux-gnu/bin/../lib/gcc/nios2-elf/4.7.3/../../../../../H-i686-pc-linux-gnu/nios2-elf/lib/mno-hw-mul/libc.a(lib_a-atexit.o)
 .data          0x0201e5b4        0x0 /opt/altera/nios2eds/bin/gnu/H-i686-pc-linux-gnu/bin/../lib/gcc/nios2-elf/4.7.3/../../../../../H-i686-pc-linux-gnu/nios2-elf/lib/mno-hw-mul/libc.a(lib_a-exit.o)
 .data          0x0201e5b4        0x0 /opt/altera/nios2eds/bin/gnu/H-i686-pc-linux-gnu/bin/../lib/gcc/nios2-elf/4.7.3/../../../../../H-i686-pc-linux-gnu/nios2-elf/lib/mno-hw-mul/libc.a(lib_a-memcmp.o)
 .data          0x0201e5b4        0x0 /opt/altera/nios2eds/bin/gnu/H-i686-pc-linux-gnu/bin/../lib/gcc/nios2-elf/4.7.3/../../../../../H-i686-pc-linux-gnu/nios2-elf/lib/mno-hw-mul/libc.a(lib_a-__atexit.o)
 .data          0x0201e5b4        0x0 /opt/altera/nios2eds/bin/gnu/H-i686-pc-linux-gnu/bin/../lib/gcc/nios2-elf/4.7.3/../../../../../H-i686-pc-linux-gnu/nios2-elf/lib/mno-hw-mul/libc.a(lib_a-__call_atexit.o)
                0x020265b4                _gp = ABSOLUTE ((. + 0x8000))
                0x020265b4                PROVIDE (gp, _gp)
 *(.rwdata .rwdata.*)
 *(.sdata .sdata.* .gnu.linkonce.s.*)
 .sdata         0x0201e5b4       0x10 obj/default/ins.o
                0x0201e5b4                ms2_per_digi
                0x0201e5bc                sensor_read_tries
                0x0201e5c0                data_wait
 .sdata         0x0201e5c4        0x8 /opt/altera/nios2eds/bin/gnu/H-i686-pc-linux-gnu/bin/../lib/gcc/nios2-elf/4.7.3/../../../../../H-i686-pc-linux-gnu/nios2-elf/lib/mno-hw-mul/libc.a(lib_a-impure.o)
                0x0201e5c4                _global_impure_ptr
                0x0201e5c8                _impure_ptr
 .sdata         0x0201e5cc        0x8 /opt/altera/nios2eds/bin/gnu/H-i686-pc-linux-gnu/bin/../lib/gcc/nios2-elf/4.7.3/../../../../../H-i686-pc-linux-gnu/nios2-elf/lib/mno-hw-mul/libc.a(lib_a-mallocr.o)
                0x0201e5cc                __malloc_sbrk_base
                0x0201e5d0                __malloc_trim_threshold
 .sdata         0x0201e5d4        0x4 /opt/altera/nios2eds/bin/gnu/H-i686-pc-linux-gnu/bin/../lib/gcc/nios2-elf/4.7.3/../../../../../H-i686-pc-linux-gnu/nios2-elf/lib/mno-hw-mul/libc.a(lib_a-locale.o)
                0x0201e5d4                __mb_cur_max
 .sdata         0x0201e5d8       0x14 ../legocar_firmware_microc_bsp//libucosii_bsp.a(alt_dev.o)
                0x0201e5d8                alt_fs_list
                0x0201e5e0                alt_dev_list
                0x0201e5e8                alt_max_fd
 .sdata         0x0201e5ec        0x4 ../legocar_firmware_microc_bsp//libucosii_bsp.a(alt_errno.o)
                0x0201e5ec                alt_errno
 .sdata         0x0201e5f0        0x8 ../legocar_firmware_microc_bsp//libucosii_bsp.a(alt_flash_dev.o)
                0x0201e5f0                alt_flash_dev_list
 .sdata         0x0201e5f8        0x4 ../legocar_firmware_microc_bsp//libucosii_bsp.a(alt_sbrk.o)
 .sdata         0x0201e5fc        0x8 ../legocar_firmware_microc_bsp//libucosii_bsp.a(alt_tick.o)
                0x0201e5fc                alt_alarm_list
 .sdata         0x0201e604        0x4 ../legocar_firmware_microc_bsp//libucosii_bsp.a(alt_env_lock.o)
 .sdata         0x0201e608        0x4 ../legocar_firmware_microc_bsp//libucosii_bsp.a(alt_malloc_lock.o)
 .sdata         0x0201e60c       0x74 ../legocar_firmware_microc_bsp//libucosii_bsp.a(os_dbg.o)
                0x0201e60c                OSDebugEn
                0x0201e610                OSEndiannessTest
                0x0201e614                OSEventEn
                0x0201e616                OSEventMax
                0x0201e618                OSEventNameSize
                0x0201e61a                OSEventSize
                0x0201e61c                OSEventTblSize
                0x0201e61e                OSEventMultiEn
                0x0201e620                OSFlagEn
                0x0201e622                OSFlagGrpSize
                0x0201e624                OSFlagNodeSize
                0x0201e626                OSFlagWidth
                0x0201e628                OSFlagMax
                0x0201e62a                OSFlagNameSize
                0x0201e62c                OSLowestPrio
                0x0201e62e                OSMboxEn
                0x0201e630                OSMemEn
                0x0201e632                OSMemMax
                0x0201e634                OSMemNameSize
                0x0201e636                OSMemSize
                0x0201e638                OSMemTblSize
                0x0201e63a                OSMutexEn
                0x0201e63c                OSPtrSize
                0x0201e63e                OSQEn
                0x0201e640                OSQMax
                0x0201e642                OSQSize
                0x0201e644                OSRdyTblSize
                0x0201e646                OSSemEn
                0x0201e648                OSStkWidth
                0x0201e64a                OSTaskCreateEn
                0x0201e64c                OSTaskCreateExtEn
                0x0201e64e                OSTaskDelEn
                0x0201e650                OSTaskIdleStkSize
                0x0201e652                OSTaskProfileEn
                0x0201e654                OSTaskMax
                0x0201e656                OSTaskNameSize
                0x0201e658                OSTaskStatEn
                0x0201e65a                OSTaskStatStkSize
                0x0201e65c                OSTaskStatStkChkEn
                0x0201e65e                OSTaskSwHookEn
                0x0201e660                OSTCBPrioTblMax
                0x0201e662                OSTCBSize
                0x0201e664                OSTicksPerSec
                0x0201e666                OSTimeTickHookEn
                0x0201e668                OSVersionNbr
                0x0201e66a                OSTmrEn
                0x0201e66c                OSTmrCfgMax
                0x0201e66e                OSTmrCfgNameSize
                0x0201e670                OSTmrCfgWheelSize
                0x0201e672                OSTmrCfgTicksPerSec
                0x0201e674                OSTmrSize
                0x0201e676                OSTmrTblSize
                0x0201e678                OSTmrWheelSize
                0x0201e67a                OSTmrWheelTblSize
                0x0201e67c                OSDataSize
 .sdata         0x0201e680        0x4 ../legocar_firmware_microc_bsp//libucosii_bsp.a(alt_irq_vars.o)
                0x0201e680                alt_priority_mask
 *(.sdata2 .sdata2.* .gnu.linkonce.s2.*)
                0x0201e684                . = ALIGN (0x4)
                0x0201e684                _edata = ABSOLUTE (.)
                0x0201e684                PROVIDE (edata, ABSOLUTE (.))
                0x0201e684                PROVIDE (__ram_rwdata_end, ABSOLUTE (.))
                0x0201e684                PROVIDE (__flash_rwdata_start, LOADADDR (.rwdata))

.bss            0x02020314     0x66e4
                0x02020314                __bss_start = ABSOLUTE (.)
                0x02020314                PROVIDE (__sbss_start, ABSOLUTE (.))
                0x02020314                PROVIDE (___sbss_start, ABSOLUTE (.))
 *(.dynsbss)
 *(.sbss .sbss.* .gnu.linkonce.sb.*)
 .sbss          0x02020314        0xc /opt/altera/nios2eds/bin/gnu/H-i686-pc-linux-gnu/bin/../lib/gcc/nios2-elf/4.7.3/../../../../../H-i686-pc-linux-gnu/nios2-elf/lib/mno-hw-mul/libc.a(lib_a-mallocr.o)
                0x02020314                __malloc_max_total_mem
                0x02020318                __malloc_max_sbrked_mem
                0x0202031c                __malloc_top_pad
 .sbss          0x02020320        0x4 /opt/altera/nios2eds/bin/gnu/H-i686-pc-linux-gnu/bin/../lib/gcc/nios2-elf/4.7.3/../../../../../H-i686-pc-linux-gnu/nios2-elf/lib/mno-hw-mul/libc.a(lib_a-int_errno.o)
                0x02020320                errno
 .sbss          0x02020324        0xc /opt/altera/nios2eds/bin/gnu/H-i686-pc-linux-gnu/bin/../lib/gcc/nios2-elf/4.7.3/../../../../../H-i686-pc-linux-gnu/nios2-elf/lib/mno-hw-mul/libc.a(lib_a-locale.o)
                0x02020324                _PathLocale
                0x02020328                __mlocale_changed
                0x0202032c                __nlocale_changed
 .sbss          0x02020330        0x4 ../legocar_firmware_microc_bsp//libucosii_bsp.a(alt_dev.o)
                0x02020330                alt_fd_list_lock
 .sbss          0x02020334        0xc ../legocar_firmware_microc_bsp//libucosii_bsp.a(alt_main.o)
                0x02020334                alt_argc
                0x02020338                alt_argv
                0x0202033c                alt_envp
 .sbss          0x02020340        0x8 ../legocar_firmware_microc_bsp//libucosii_bsp.a(alt_tick.o)
                0x02020340                _alt_tick_rate
                0x02020344                _alt_nticks
 .sbss          0x02020348        0x8 ../legocar_firmware_microc_bsp//libucosii_bsp.a(alt_env_lock.o)
                0x0202034c                alt_envsem
 .sbss          0x02020350        0x8 ../legocar_firmware_microc_bsp//libucosii_bsp.a(alt_malloc_lock.o)
                0x02020354                alt_heapsem
 .sbss          0x02020358       0x50 ../legocar_firmware_microc_bsp//libucosii_bsp.a(os_core.o)
                0x02020358                OSLockNesting
                0x02020359                OSRunning
                0x0202035c                OSIdleCtr
                0x02020360                OSPrioHighRdy
                0x02020361                OSPrioCur
                0x02020364                OSTCBList
                0x02020368                OSTickStepState
                0x0202036c                OSCtxSwCtr
                0x02020370                OSIdleCtrMax
                0x02020374                OSTCBFreeList
                0x02020378                OSCPUUsage
                0x02020379                OSTaskCtr
                0x0202037c                OSMemFreeList
                0x02020380                OSTCBHighRdy
                0x02020384                OSQFreeList
                0x02020388                OSRdyGrp
                0x02020389                OSRdyTbl
                0x0202038c                OSEventFreeList
                0x02020390                OSIntNesting
                0x02020394                OSTCBCur
                0x02020398                OSTime
                0x0202039c                OSFlagFreeList
                0x020203a0                OSStatRdy
                0x020203a4                OSIdleCtrRun
 .sbss          0x020203a8        0x4 ../legocar_firmware_microc_bsp//libucosii_bsp.a(alt_irq_vars.o)
                0x020203a8                alt_irq_active
 *(.sbss2 .sbss2.* .gnu.linkonce.sb2.*)
 *(.scommon)
                0x020203ac                PROVIDE (__sbss_end, ABSOLUTE (.))
                0x020203ac                PROVIDE (___sbss_end, ABSOLUTE (.))
 *(.dynbss)
 *(.bss .bss.* .gnu.linkonce.b.*)
 .bss           0x020203ac        0x0 ../legocar_firmware_microc_bsp//obj/HAL/src/crt0.o
 .bss           0x020203ac        0x0 obj/default/ins.o
 .bss           0x020203ac        0x0 obj/default/legocar.o
 .bss           0x020203ac        0x0 obj/default/main.o
 .bss           0x020203ac        0x0 obj/default/pwm_motor.o
 .bss           0x020203ac        0x0 obj/default/terasic_lib/I2C.o
 .bss           0x020203ac        0x0 obj/default/terasic_lib/accelerometer_adxl345_spi.o
 .bss           0x020203ac        0x0 obj/default/terasic_lib/adc_spi_read.o
 .bss           0x020203ac        0x0 obj/default/terasic_lib/flash.o
 .bss           0x020203ac        0x0 obj/default/terasic_lib/terasic_spi.o
 .bss           0x020203ac        0x0 obj/default/wheel_direction.o
 .bss           0x020203ac        0x0 /opt/altera/nios2eds/bin/gnu/H-i686-pc-linux-gnu/bin/../lib/gcc/nios2-elf/4.7.3/mno-hw-mul/libgcc.a(_fixunsdfsi.o)
 .bss           0x020203ac        0x0 /opt/altera/nios2eds/bin/gnu/H-i686-pc-linux-gnu/bin/../lib/gcc/nios2-elf/4.7.3/mno-hw-mul/libgcc.a(_addsub_sf.o)
 .bss           0x020203ac        0x0 /opt/altera/nios2eds/bin/gnu/H-i686-pc-linux-gnu/bin/../lib/gcc/nios2-elf/4.7.3/mno-hw-mul/libgcc.a(_mul_sf.o)
 .bss           0x020203ac        0x0 /opt/altera/nios2eds/bin/gnu/H-i686-pc-linux-gnu/bin/../lib/gcc/nios2-elf/4.7.3/mno-hw-mul/libgcc.a(_gt_sf.o)
 .bss           0x020203ac        0x0 /opt/altera/nios2eds/bin/gnu/H-i686-pc-linux-gnu/bin/../lib/gcc/nios2-elf/4.7.3/mno-hw-mul/libgcc.a(_ge_sf.o)
 .bss           0x020203ac        0x0 /opt/altera/nios2eds/bin/gnu/H-i686-pc-linux-gnu/bin/../lib/gcc/nios2-elf/4.7.3/mno-hw-mul/libgcc.a(_le_sf.o)
 .bss           0x020203ac        0x0 /opt/altera/nios2eds/bin/gnu/H-i686-pc-linux-gnu/bin/../lib/gcc/nios2-elf/4.7.3/mno-hw-mul/libgcc.a(_sf_to_si.o)
 .bss           0x020203ac        0x0 /opt/altera/nios2eds/bin/gnu/H-i686-pc-linux-gnu/bin/../lib/gcc/nios2-elf/4.7.3/mno-hw-mul/libgcc.a(_sf_to_df.o)
 .bss           0x020203ac        0x0 /opt/altera/nios2eds/bin/gnu/H-i686-pc-linux-gnu/bin/../lib/gcc/nios2-elf/4.7.3/mno-hw-mul/libgcc.a(_thenan_sf.o)
 .bss           0x020203ac        0x0 /opt/altera/nios2eds/bin/gnu/H-i686-pc-linux-gnu/bin/../lib/gcc/nios2-elf/4.7.3/mno-hw-mul/libgcc.a(_usi_to_sf.o)
 .bss           0x020203ac        0x0 /opt/altera/nios2eds/bin/gnu/H-i686-pc-linux-gnu/bin/../lib/gcc/nios2-elf/4.7.3/mno-hw-mul/libgcc.a(_addsub_df.o)
 .bss           0x020203ac        0x0 /opt/altera/nios2eds/bin/gnu/H-i686-pc-linux-gnu/bin/../lib/gcc/nios2-elf/4.7.3/mno-hw-mul/libgcc.a(_mul_df.o)
 .bss           0x020203ac        0x0 /opt/altera/nios2eds/bin/gnu/H-i686-pc-linux-gnu/bin/../lib/gcc/nios2-elf/4.7.3/mno-hw-mul/libgcc.a(_div_df.o)
 .bss           0x020203ac        0x0 /opt/altera/nios2eds/bin/gnu/H-i686-pc-linux-gnu/bin/../lib/gcc/nios2-elf/4.7.3/mno-hw-mul/libgcc.a(_eq_df.o)
 .bss           0x020203ac        0x0 /opt/altera/nios2eds/bin/gnu/H-i686-pc-linux-gnu/bin/../lib/gcc/nios2-elf/4.7.3/mno-hw-mul/libgcc.a(_ge_df.o)
 .bss           0x020203ac        0x0 /opt/altera/nios2eds/bin/gnu/H-i686-pc-linux-gnu/bin/../lib/gcc/nios2-elf/4.7.3/mno-hw-mul/libgcc.a(_si_to_df.o)
 .bss           0x020203ac        0x0 /opt/altera/nios2eds/bin/gnu/H-i686-pc-linux-gnu/bin/../lib/gcc/nios2-elf/4.7.3/mno-hw-mul/libgcc.a(_df_to_si.o)
 .bss           0x020203ac        0x0 /opt/altera/nios2eds/bin/gnu/H-i686-pc-linux-gnu/bin/../lib/gcc/nios2-elf/4.7.3/mno-hw-mul/libgcc.a(_make_df.o)
 .bss           0x020203ac        0x0 /opt/altera/nios2eds/bin/gnu/H-i686-pc-linux-gnu/bin/../lib/gcc/nios2-elf/4.7.3/mno-hw-mul/libgcc.a(_df_to_sf.o)
 .bss           0x020203ac        0x0 /opt/altera/nios2eds/bin/gnu/H-i686-pc-linux-gnu/bin/../lib/gcc/nios2-elf/4.7.3/mno-hw-mul/libgcc.a(_thenan_df.o)
 .bss           0x020203ac        0x0 /opt/altera/nios2eds/bin/gnu/H-i686-pc-linux-gnu/bin/../lib/gcc/nios2-elf/4.7.3/mno-hw-mul/libgcc.a(lib2-divmod.o)
 .bss           0x020203ac        0x0 /opt/altera/nios2eds/bin/gnu/H-i686-pc-linux-gnu/bin/../lib/gcc/nios2-elf/4.7.3/mno-hw-mul/libgcc.a(_muldi3.o)
 .bss           0x020203ac        0x0 /opt/altera/nios2eds/bin/gnu/H-i686-pc-linux-gnu/bin/../lib/gcc/nios2-elf/4.7.3/mno-hw-mul/libgcc.a(_clzsi2.o)
 .bss           0x020203ac        0x0 /opt/altera/nios2eds/bin/gnu/H-i686-pc-linux-gnu/bin/../lib/gcc/nios2-elf/4.7.3/mno-hw-mul/libgcc.a(_pack_sf.o)
 .bss           0x020203ac        0x0 /opt/altera/nios2eds/bin/gnu/H-i686-pc-linux-gnu/bin/../lib/gcc/nios2-elf/4.7.3/mno-hw-mul/libgcc.a(_unpack_sf.o)
 .bss           0x020203ac        0x0 /opt/altera/nios2eds/bin/gnu/H-i686-pc-linux-gnu/bin/../lib/gcc/nios2-elf/4.7.3/mno-hw-mul/libgcc.a(_fpcmp_parts_sf.o)
 .bss           0x020203ac        0x0 /opt/altera/nios2eds/bin/gnu/H-i686-pc-linux-gnu/bin/../lib/gcc/nios2-elf/4.7.3/mno-hw-mul/libgcc.a(_make_sf.o)
 .bss           0x020203ac        0x0 /opt/altera/nios2eds/bin/gnu/H-i686-pc-linux-gnu/bin/../lib/gcc/nios2-elf/4.7.3/mno-hw-mul/libgcc.a(_pack_df.o)
 .bss           0x020203ac        0x0 /opt/altera/nios2eds/bin/gnu/H-i686-pc-linux-gnu/bin/../lib/gcc/nios2-elf/4.7.3/mno-hw-mul/libgcc.a(_unpack_df.o)
 .bss           0x020203ac        0x0 /opt/altera/nios2eds/bin/gnu/H-i686-pc-linux-gnu/bin/../lib/gcc/nios2-elf/4.7.3/mno-hw-mul/libgcc.a(_fpcmp_parts_df.o)
 .bss           0x020203ac        0x0 /opt/altera/nios2eds/bin/gnu/H-i686-pc-linux-gnu/bin/../lib/gcc/nios2-elf/4.7.3/mno-hw-mul/libgcc.a(lib2-mul.o)
 .bss           0x020203ac        0x0 /opt/altera/nios2eds/bin/gnu/H-i686-pc-linux-gnu/bin/../lib/gcc/nios2-elf/4.7.3/mno-hw-mul/libgcc.a(_lshrdi3.o)
 .bss           0x020203ac        0x0 /opt/altera/nios2eds/bin/gnu/H-i686-pc-linux-gnu/bin/../lib/gcc/nios2-elf/4.7.3/mno-hw-mul/libgcc.a(_ashldi3.o)
 .bss           0x020203ac        0x0 /opt/altera/nios2eds/bin/gnu/H-i686-pc-linux-gnu/bin/../lib/gcc/nios2-elf/4.7.3/mno-hw-mul/libgcc.a(_clz.o)
 .bss           0x020203ac        0x0 /opt/altera/nios2eds/bin/gnu/H-i686-pc-linux-gnu/bin/../lib/gcc/nios2-elf/4.7.3/../../../../../H-i686-pc-linux-gnu/nios2-elf/lib/mno-hw-mul/libc.a(lib_a-assert.o)
 .bss           0x020203ac        0x0 /opt/altera/nios2eds/bin/gnu/H-i686-pc-linux-gnu/bin/../lib/gcc/nios2-elf/4.7.3/../../../../../H-i686-pc-linux-gnu/nios2-elf/lib/mno-hw-mul/libc.a(lib_a-fiprintf.o)
 .bss           0x020203ac        0x0 /opt/altera/nios2eds/bin/gnu/H-i686-pc-linux-gnu/bin/../lib/gcc/nios2-elf/4.7.3/../../../../../H-i686-pc-linux-gnu/nios2-elf/lib/mno-hw-mul/libc.a(lib_a-impure.o)
 .bss           0x020203ac        0x0 /opt/altera/nios2eds/bin/gnu/H-i686-pc-linux-gnu/bin/../lib/gcc/nios2-elf/4.7.3/../../../../../H-i686-pc-linux-gnu/nios2-elf/lib/mno-hw-mul/libc.a(lib_a-malloc.o)
 .bss           0x020203ac       0x28 /opt/altera/nios2eds/bin/gnu/H-i686-pc-linux-gnu/bin/../lib/gcc/nios2-elf/4.7.3/../../../../../H-i686-pc-linux-gnu/nios2-elf/lib/mno-hw-mul/libc.a(lib_a-mallocr.o)
                0x020203ac                __malloc_current_mallinfo
 .bss           0x020203d4        0x0 /opt/altera/nios2eds/bin/gnu/H-i686-pc-linux-gnu/bin/../lib/gcc/nios2-elf/4.7.3/../../../../../H-i686-pc-linux-gnu/nios2-elf/lib/mno-hw-mul/libc.a(lib_a-printf.o)
 .bss           0x020203d4        0x0 /opt/altera/nios2eds/bin/gnu/H-i686-pc-linux-gnu/bin/../lib/gcc/nios2-elf/4.7.3/../../../../../H-i686-pc-linux-gnu/nios2-elf/lib/mno-hw-mul/libc.a(lib_a-puts.o)
 .bss           0x020203d4        0x0 /opt/altera/nios2eds/bin/gnu/H-i686-pc-linux-gnu/bin/../lib/gcc/nios2-elf/4.7.3/../../../../../H-i686-pc-linux-gnu/nios2-elf/lib/mno-hw-mul/libc.a(lib_a-sbrkr.o)
 .bss           0x020203d4        0x0 /opt/altera/nios2eds/bin/gnu/H-i686-pc-linux-gnu/bin/../lib/gcc/nios2-elf/4.7.3/../../../../../H-i686-pc-linux-gnu/nios2-elf/lib/mno-hw-mul/libc.a(lib_a-strlen.o)
 .bss           0x020203d4        0x0 /opt/altera/nios2eds/bin/gnu/H-i686-pc-linux-gnu/bin/../lib/gcc/nios2-elf/4.7.3/../../../../../H-i686-pc-linux-gnu/nios2-elf/lib/mno-hw-mul/libc.a(lib_a-vfiprintfr_1.o)
 .bss           0x020203d4        0x0 /opt/altera/nios2eds/bin/gnu/H-i686-pc-linux-gnu/bin/../lib/gcc/nios2-elf/4.7.3/../../../../../H-i686-pc-linux-gnu/nios2-elf/lib/mno-hw-mul/libc.a(lib_a-vfprintf.o)
 .bss           0x020203d4        0x0 /opt/altera/nios2eds/bin/gnu/H-i686-pc-linux-gnu/bin/../lib/gcc/nios2-elf/4.7.3/../../../../../H-i686-pc-linux-gnu/nios2-elf/lib/mno-hw-mul/libc.a(lib_a-wsetup.o)
 .bss           0x020203d4        0x0 /opt/altera/nios2eds/bin/gnu/H-i686-pc-linux-gnu/bin/../lib/gcc/nios2-elf/4.7.3/../../../../../H-i686-pc-linux-gnu/nios2-elf/lib/mno-hw-mul/libc.a(lib_a-abort.o)
 .bss           0x020203d4        0x0 /opt/altera/nios2eds/bin/gnu/H-i686-pc-linux-gnu/bin/../lib/gcc/nios2-elf/4.7.3/../../../../../H-i686-pc-linux-gnu/nios2-elf/lib/mno-hw-mul/libc.a(lib_a-dtoa.o)
 .bss           0x020203d4        0x0 /opt/altera/nios2eds/bin/gnu/H-i686-pc-linux-gnu/bin/../lib/gcc/nios2-elf/4.7.3/../../../../../H-i686-pc-linux-gnu/nios2-elf/lib/mno-hw-mul/libc.a(lib_a-fflush.o)
 .bss           0x020203d4        0x0 /opt/altera/nios2eds/bin/gnu/H-i686-pc-linux-gnu/bin/../lib/gcc/nios2-elf/4.7.3/../../../../../H-i686-pc-linux-gnu/nios2-elf/lib/mno-hw-mul/libc.a(lib_a-findfp.o)
 .bss           0x020203d4        0x0 /opt/altera/nios2eds/bin/gnu/H-i686-pc-linux-gnu/bin/../lib/gcc/nios2-elf/4.7.3/../../../../../H-i686-pc-linux-gnu/nios2-elf/lib/mno-hw-mul/libc.a(lib_a-freer.o)
 .bss           0x020203d4        0x0 /opt/altera/nios2eds/bin/gnu/H-i686-pc-linux-gnu/bin/../lib/gcc/nios2-elf/4.7.3/../../../../../H-i686-pc-linux-gnu/nios2-elf/lib/mno-hw-mul/libc.a(lib_a-fvwrite.o)
 .bss           0x020203d4        0x0 /opt/altera/nios2eds/bin/gnu/H-i686-pc-linux-gnu/bin/../lib/gcc/nios2-elf/4.7.3/../../../../../H-i686-pc-linux-gnu/nios2-elf/lib/mno-hw-mul/libc.a(lib_a-fwalk.o)
 .bss           0x020203d4        0x0 /opt/altera/nios2eds/bin/gnu/H-i686-pc-linux-gnu/bin/../lib/gcc/nios2-elf/4.7.3/../../../../../H-i686-pc-linux-gnu/nios2-elf/lib/mno-hw-mul/libc.a(lib_a-int_errno.o)
 .bss           0x020203d4        0x0 /opt/altera/nios2eds/bin/gnu/H-i686-pc-linux-gnu/bin/../lib/gcc/nios2-elf/4.7.3/../../../../../H-i686-pc-linux-gnu/nios2-elf/lib/mno-hw-mul/libc.a(lib_a-locale.o)
 .bss           0x020203d4        0x0 /opt/altera/nios2eds/bin/gnu/H-i686-pc-linux-gnu/bin/../lib/gcc/nios2-elf/4.7.3/../../../../../H-i686-pc-linux-gnu/nios2-elf/lib/mno-hw-mul/libc.a(lib_a-makebuf.o)
 .bss           0x020203d4        0x0 /opt/altera/nios2eds/bin/gnu/H-i686-pc-linux-gnu/bin/../lib/gcc/nios2-elf/4.7.3/../../../../../H-i686-pc-linux-gnu/nios2-elf/lib/mno-hw-mul/libc.a(lib_a-memchr.o)
 .bss           0x020203d4        0x0 /opt/altera/nios2eds/bin/gnu/H-i686-pc-linux-gnu/bin/../lib/gcc/nios2-elf/4.7.3/../../../../../H-i686-pc-linux-gnu/nios2-elf/lib/mno-hw-mul/libc.a(lib_a-memcpy.o)
 .bss           0x020203d4        0x0 /opt/altera/nios2eds/bin/gnu/H-i686-pc-linux-gnu/bin/../lib/gcc/nios2-elf/4.7.3/../../../../../H-i686-pc-linux-gnu/nios2-elf/lib/mno-hw-mul/libc.a(lib_a-memmove.o)
 .bss           0x020203d4        0x0 /opt/altera/nios2eds/bin/gnu/H-i686-pc-linux-gnu/bin/../lib/gcc/nios2-elf/4.7.3/../../../../../H-i686-pc-linux-gnu/nios2-elf/lib/mno-hw-mul/libc.a(lib_a-memset.o)
 .bss           0x020203d4        0x0 /opt/altera/nios2eds/bin/gnu/H-i686-pc-linux-gnu/bin/../lib/gcc/nios2-elf/4.7.3/../../../../../H-i686-pc-linux-gnu/nios2-elf/lib/mno-hw-mul/libc.a(lib_a-mprec.o)
 .bss           0x020203d4        0x0 /opt/altera/nios2eds/bin/gnu/H-i686-pc-linux-gnu/bin/../lib/gcc/nios2-elf/4.7.3/../../../../../H-i686-pc-linux-gnu/nios2-elf/lib/mno-hw-mul/libc.a(lib_a-reallocr.o)
 .bss           0x020203d4        0x0 /opt/altera/nios2eds/bin/gnu/H-i686-pc-linux-gnu/bin/../lib/gcc/nios2-elf/4.7.3/../../../../../H-i686-pc-linux-gnu/nios2-elf/lib/mno-hw-mul/libc.a(lib_a-s_isinfd.o)
 .bss           0x020203d4        0x0 /opt/altera/nios2eds/bin/gnu/H-i686-pc-linux-gnu/bin/../lib/gcc/nios2-elf/4.7.3/../../../../../H-i686-pc-linux-gnu/nios2-elf/lib/mno-hw-mul/libc.a(lib_a-s_isnand.o)
 .bss           0x020203d4        0x0 /opt/altera/nios2eds/bin/gnu/H-i686-pc-linux-gnu/bin/../lib/gcc/nios2-elf/4.7.3/../../../../../H-i686-pc-linux-gnu/nios2-elf/lib/mno-hw-mul/libc.a(lib_a-signal.o)
 .bss           0x020203d4        0x0 /opt/altera/nios2eds/bin/gnu/H-i686-pc-linux-gnu/bin/../lib/gcc/nios2-elf/4.7.3/../../../../../H-i686-pc-linux-gnu/nios2-elf/lib/mno-hw-mul/libc.a(lib_a-signalr.o)
 .bss           0x020203d4        0x0 /opt/altera/nios2eds/bin/gnu/H-i686-pc-linux-gnu/bin/../lib/gcc/nios2-elf/4.7.3/../../../../../H-i686-pc-linux-gnu/nios2-elf/lib/mno-hw-mul/libc.a(lib_a-stdio.o)
 .bss           0x020203d4        0x0 /opt/altera/nios2eds/bin/gnu/H-i686-pc-linux-gnu/bin/../lib/gcc/nios2-elf/4.7.3/../../../../../H-i686-pc-linux-gnu/nios2-elf/lib/mno-hw-mul/libc.a(lib_a-strcmp.o)
 .bss           0x020203d4        0x0 /opt/altera/nios2eds/bin/gnu/H-i686-pc-linux-gnu/bin/../lib/gcc/nios2-elf/4.7.3/../../../../../H-i686-pc-linux-gnu/nios2-elf/lib/mno-hw-mul/libc.a(lib_a-vfiprintf.o)
 .bss           0x020203d4        0x0 /opt/altera/nios2eds/bin/gnu/H-i686-pc-linux-gnu/bin/../lib/gcc/nios2-elf/4.7.3/../../../../../H-i686-pc-linux-gnu/nios2-elf/lib/mno-hw-mul/libc.a(lib_a-writer.o)
 .bss           0x020203d4        0x0 /opt/altera/nios2eds/bin/gnu/H-i686-pc-linux-gnu/bin/../lib/gcc/nios2-elf/4.7.3/../../../../../H-i686-pc-linux-gnu/nios2-elf/lib/mno-hw-mul/libc.a(lib_a-callocr.o)
 .bss           0x020203d4        0x0 /opt/altera/nios2eds/bin/gnu/H-i686-pc-linux-gnu/bin/../lib/gcc/nios2-elf/4.7.3/../../../../../H-i686-pc-linux-gnu/nios2-elf/lib/mno-hw-mul/libc.a(lib_a-closer.o)
 .bss           0x020203d4        0x0 /opt/altera/nios2eds/bin/gnu/H-i686-pc-linux-gnu/bin/../lib/gcc/nios2-elf/4.7.3/../../../../../H-i686-pc-linux-gnu/nios2-elf/lib/mno-hw-mul/libc.a(lib_a-fclose.o)
 .bss           0x020203d4        0x0 /opt/altera/nios2eds/bin/gnu/H-i686-pc-linux-gnu/bin/../lib/gcc/nios2-elf/4.7.3/../../../../../H-i686-pc-linux-gnu/nios2-elf/lib/mno-hw-mul/libc.a(lib_a-fstatr.o)
 .bss           0x020203d4        0x0 /opt/altera/nios2eds/bin/gnu/H-i686-pc-linux-gnu/bin/../lib/gcc/nios2-elf/4.7.3/../../../../../H-i686-pc-linux-gnu/nios2-elf/lib/mno-hw-mul/libc.a(lib_a-isattyr.o)
 .bss           0x020203d4        0x0 /opt/altera/nios2eds/bin/gnu/H-i686-pc-linux-gnu/bin/../lib/gcc/nios2-elf/4.7.3/../../../../../H-i686-pc-linux-gnu/nios2-elf/lib/mno-hw-mul/libc.a(lib_a-lseekr.o)
 .bss           0x020203d4        0x0 /opt/altera/nios2eds/bin/gnu/H-i686-pc-linux-gnu/bin/../lib/gcc/nios2-elf/4.7.3/../../../../../H-i686-pc-linux-gnu/nios2-elf/lib/mno-hw-mul/libc.a(lib_a-readr.o)
 .bss           0x020203d4        0x0 /opt/altera/nios2eds/bin/gnu/H-i686-pc-linux-gnu/bin/../lib/gcc/nios2-elf/4.7.3/mno-hw-mul/libgcc.a(_udivdi3.o)
 .bss           0x020203d4        0x0 /opt/altera/nios2eds/bin/gnu/H-i686-pc-linux-gnu/bin/../lib/gcc/nios2-elf/4.7.3/mno-hw-mul/libgcc.a(_umoddi3.o)
 .bss           0x020203d4        0x0 /opt/altera/nios2eds/bin/gnu/H-i686-pc-linux-gnu/bin/../lib/gcc/nios2-elf/4.7.3/mno-hw-mul/libgcc.a(_ne_df.o)
 .bss           0x020203d4        0x0 /opt/altera/nios2eds/bin/gnu/H-i686-pc-linux-gnu/bin/../lib/gcc/nios2-elf/4.7.3/mno-hw-mul/libgcc.a(_gt_df.o)
 .bss           0x020203d4        0x0 /opt/altera/nios2eds/bin/gnu/H-i686-pc-linux-gnu/bin/../lib/gcc/nios2-elf/4.7.3/mno-hw-mul/libgcc.a(_lt_df.o)
 .bss           0x020203d4        0x0 /opt/altera/nios2eds/bin/gnu/H-i686-pc-linux-gnu/bin/../lib/gcc/nios2-elf/4.7.3/mno-hw-mul/libgcc.a(_usi_to_df.o)
 .bss           0x020203d4        0x0 ../legocar_firmware_microc_bsp//libucosii_bsp.a(alt_close.o)
 .bss           0x020203d4        0x0 ../legocar_firmware_microc_bsp//libucosii_bsp.a(alt_dcache_flush.o)
 .bss           0x020203d4        0x0 ../legocar_firmware_microc_bsp//libucosii_bsp.a(alt_dcache_flush_all.o)
 .bss           0x020203d4        0x0 ../legocar_firmware_microc_bsp//libucosii_bsp.a(alt_dev.o)
 .bss           0x020203d4        0x0 ../legocar_firmware_microc_bsp//libucosii_bsp.a(alt_errno.o)
 .bss           0x020203d4        0x0 ../legocar_firmware_microc_bsp//libucosii_bsp.a(alt_exit.o)
 .bss           0x020203d4        0x0 ../legocar_firmware_microc_bsp//libucosii_bsp.a(alt_flash_dev.o)
 .bss           0x020203d4        0x0 ../legocar_firmware_microc_bsp//libucosii_bsp.a(alt_fstat.o)
 .bss           0x020203d4        0x0 ../legocar_firmware_microc_bsp//libucosii_bsp.a(alt_getpid.o)
 .bss           0x020203d4        0x0 ../legocar_firmware_microc_bsp//libucosii_bsp.a(alt_isatty.o)
 .bss           0x020203d4        0x0 ../legocar_firmware_microc_bsp//libucosii_bsp.a(alt_kill.o)
 .bss           0x020203d4        0x0 ../legocar_firmware_microc_bsp//libucosii_bsp.a(alt_load.o)
 .bss           0x020203d4        0x0 ../legocar_firmware_microc_bsp//libucosii_bsp.a(alt_lseek.o)
 .bss           0x020203d4        0x0 ../legocar_firmware_microc_bsp//libucosii_bsp.a(alt_main.o)
 .bss           0x020203d4        0x0 ../legocar_firmware_microc_bsp//libucosii_bsp.a(alt_read.o)
 .bss           0x020203d4        0x0 ../legocar_firmware_microc_bsp//libucosii_bsp.a(alt_release_fd.o)
 .bss           0x020203d4        0x0 ../legocar_firmware_microc_bsp//libucosii_bsp.a(alt_sbrk.o)
 .bss           0x020203d4        0x0 ../legocar_firmware_microc_bsp//libucosii_bsp.a(alt_tick.o)
 .bss           0x020203d4        0x0 ../legocar_firmware_microc_bsp//libucosii_bsp.a(alt_usleep.o)
 .bss           0x020203d4        0x0 ../legocar_firmware_microc_bsp//libucosii_bsp.a(alt_write.o)
 .bss           0x020203d4        0x0 ../legocar_firmware_microc_bsp//libucosii_bsp.a(alt_env_lock.o)
 .bss           0x020203d4        0x0 ../legocar_firmware_microc_bsp//libucosii_bsp.a(alt_malloc_lock.o)
 .bss           0x020203d4        0x0 ../legocar_firmware_microc_bsp//libucosii_bsp.a(os_core.o)
 .bss           0x020203d4        0x0 ../legocar_firmware_microc_bsp//libucosii_bsp.a(os_dbg.o)
 .bss           0x020203d4        0x0 ../legocar_firmware_microc_bsp//libucosii_bsp.a(os_flag.o)
 .bss           0x020203d4        0x0 ../legocar_firmware_microc_bsp//libucosii_bsp.a(os_mem.o)
 .bss           0x020203d4        0x0 ../legocar_firmware_microc_bsp//libucosii_bsp.a(os_q.o)
 .bss           0x020203d4        0x0 ../legocar_firmware_microc_bsp//libucosii_bsp.a(os_sem.o)
 .bss           0x020203d4        0x0 ../legocar_firmware_microc_bsp//libucosii_bsp.a(os_task.o)
 .bss           0x020203d4        0x0 ../legocar_firmware_microc_bsp//libucosii_bsp.a(os_time.o)
 .bss           0x020203d4        0x0 ../legocar_firmware_microc_bsp//libucosii_bsp.a(alt_sys_init.o)
 .bss           0x020203d4        0x0 ../legocar_firmware_microc_bsp//libucosii_bsp.a(altera_avalon_epcs_flash_controller.o)
 .bss           0x020203d4        0x0 ../legocar_firmware_microc_bsp//libucosii_bsp.a(altera_avalon_jtag_uart_fd.o)
 .bss           0x020203d4        0x0 ../legocar_firmware_microc_bsp//libucosii_bsp.a(altera_avalon_jtag_uart_init.o)
 .bss           0x020203d4        0x0 ../legocar_firmware_microc_bsp//libucosii_bsp.a(altera_avalon_jtag_uart_ioctl.o)
 .bss           0x020203d4        0x0 ../legocar_firmware_microc_bsp//libucosii_bsp.a(altera_avalon_jtag_uart_read.o)
 .bss           0x020203d4        0x0 ../legocar_firmware_microc_bsp//libucosii_bsp.a(altera_avalon_jtag_uart_write.o)
 .bss           0x020203d4        0x0 ../legocar_firmware_microc_bsp//libucosii_bsp.a(altera_avalon_timer_sc.o)
 .bss           0x020203d4        0x0 ../legocar_firmware_microc_bsp//libucosii_bsp.a(altera_avalon_uart_fd.o)
 .bss           0x020203d4        0x0 ../legocar_firmware_microc_bsp//libucosii_bsp.a(altera_avalon_uart_init.o)
 .bss           0x020203d4        0x0 ../legocar_firmware_microc_bsp//libucosii_bsp.a(altera_avalon_uart_read.o)
 .bss           0x020203d4        0x0 ../legocar_firmware_microc_bsp//libucosii_bsp.a(altera_avalon_uart_write.o)
 .bss           0x020203d4        0x0 ../legocar_firmware_microc_bsp//libucosii_bsp.a(epcs_commands.o)
 .bss           0x020203d4        0x0 ../legocar_firmware_microc_bsp//libucosii_bsp.a(alt_alarm_start.o)
 .bss           0x020203d4        0x0 ../legocar_firmware_microc_bsp//libucosii_bsp.a(alt_busy_sleep.o)
 .bss           0x020203d4        0x0 ../legocar_firmware_microc_bsp//libucosii_bsp.a(alt_dev_llist_insert.o)
 .bss           0x020203d4        0x0 ../legocar_firmware_microc_bsp//libucosii_bsp.a(alt_do_ctors.o)
 .bss           0x020203d4        0x0 ../legocar_firmware_microc_bsp//libucosii_bsp.a(alt_do_dtors.o)
 .bss           0x020203d4        0x0 ../legocar_firmware_microc_bsp//libucosii_bsp.a(alt_find_dev.o)
 .bss           0x020203d4        0x0 ../legocar_firmware_microc_bsp//libucosii_bsp.a(alt_icache_flush_all.o)
 .bss           0x020203d4        0x0 ../legocar_firmware_microc_bsp//libucosii_bsp.a(alt_iic.o)
 .bss           0x020203d4        0x0 ../legocar_firmware_microc_bsp//libucosii_bsp.a(alt_iic_isr_register.o)
 .bss           0x020203d4        0x0 ../legocar_firmware_microc_bsp//libucosii_bsp.a(alt_io_redirect.o)
 .bss           0x020203d4        0x0 ../legocar_firmware_microc_bsp//libucosii_bsp.a(alt_irq_entry.o)
 .bss           0x020203d4        0x0 ../legocar_firmware_microc_bsp//libucosii_bsp.a(alt_irq_handler.o)
 .bss           0x020203d4        0x0 ../legocar_firmware_microc_bsp//libucosii_bsp.a(alt_irq_vars.o)
 .bss           0x020203d4        0x0 ../legocar_firmware_microc_bsp//libucosii_bsp.a(alt_open.o)
 .bss           0x020203d4        0x0 ../legocar_firmware_microc_bsp//libucosii_bsp.a(altera_nios2_irq.o)
 .bss           0x020203d4        0x0 ../legocar_firmware_microc_bsp//libucosii_bsp.a(os_cpu_a.o)
 .bss           0x020203d4        0x0 ../legocar_firmware_microc_bsp//libucosii_bsp.a(os_cpu_c.o)
 .bss           0x020203d4        0x0 ../legocar_firmware_microc_bsp//libucosii_bsp.a(altera_avalon_spi.o)
 .bss           0x020203d4        0x0 ../legocar_firmware_microc_bsp//libucosii_bsp.a(alt_exception_entry.o)
 .bss           0x020203d4        0x0 ../legocar_firmware_microc_bsp//libucosii_bsp.a(alt_find_file.o)
 .bss           0x020203d4        0x0 ../legocar_firmware_microc_bsp//libucosii_bsp.a(alt_get_fd.o)
 .bss           0x020203d4        0x0 /opt/altera/nios2eds/bin/gnu/H-i686-pc-linux-gnu/bin/../lib/gcc/nios2-elf/4.7.3/../../../../../H-i686-pc-linux-gnu/nios2-elf/lib/mno-hw-mul/libc.a(lib_a-atexit.o)
 .bss           0x020203d4        0x0 /opt/altera/nios2eds/bin/gnu/H-i686-pc-linux-gnu/bin/../lib/gcc/nios2-elf/4.7.3/../../../../../H-i686-pc-linux-gnu/nios2-elf/lib/mno-hw-mul/libc.a(lib_a-exit.o)
 .bss           0x020203d4        0x0 /opt/altera/nios2eds/bin/gnu/H-i686-pc-linux-gnu/bin/../lib/gcc/nios2-elf/4.7.3/../../../../../H-i686-pc-linux-gnu/nios2-elf/lib/mno-hw-mul/libc.a(lib_a-memcmp.o)
 .bss           0x020203d4        0x0 /opt/altera/nios2eds/bin/gnu/H-i686-pc-linux-gnu/bin/../lib/gcc/nios2-elf/4.7.3/../../../../../H-i686-pc-linux-gnu/nios2-elf/lib/mno-hw-mul/libc.a(lib_a-__atexit.o)
 .bss           0x020203d4        0x0 /opt/altera/nios2eds/bin/gnu/H-i686-pc-linux-gnu/bin/../lib/gcc/nios2-elf/4.7.3/../../../../../H-i686-pc-linux-gnu/nios2-elf/lib/mno-hw-mul/libc.a(lib_a-__call_atexit.o)
 *(COMMON)
 COMMON         0x020203d4     0x3170 obj/default/main.o
                0x020203d4                car
                0x020204e0                ins
                0x02020544                acc_sensor_task_stk
                0x02021544                stabilizer_task_stk
                0x02022544                control_task_stk
 COMMON         0x02023544     0x3224 ../legocar_firmware_microc_bsp//libucosii_bsp.a(os_core.o)
                0x02023544                OSFlagTbl
                0x020238b4                OSMemTbl
                0x020244e4                OSTaskStatStk
                0x02024ce4                OSQTbl
                0x02024ec4                OSTaskIdleStk
                0x020256c4                OSEventTbl
                0x02026204                OSTCBTbl
                0x02026714                OSTCBPrioTbl
 COMMON         0x02026768      0x100 ../legocar_firmware_microc_bsp//libucosii_bsp.a(alt_irq_handler.o)
                0x02026768                alt_irq
 COMMON         0x02026868      0x190 /opt/altera/nios2eds/bin/gnu/H-i686-pc-linux-gnu/bin/../lib/gcc/nios2-elf/4.7.3/../../../../../H-i686-pc-linux-gnu/nios2-elf/lib/mno-hw-mul/libc.a(lib_a-atexit.o)
                0x02026868                _atexit0
                0x020269f8                . = ALIGN (0x4)
                0x020269f8                __bss_end = ABSOLUTE (.)

.sdram          0x020269f8        0x0
                0x020269f8                PROVIDE (_alt_partition_sdram_start, ABSOLUTE (.))
 *(.sdram .sdram. sdram.*)
                0x020269f8                . = ALIGN (0x4)
                0x020269f8                PROVIDE (_alt_partition_sdram_end, ABSOLUTE (.))
                0x020269f8                _end = ABSOLUTE (.)
                0x020269f8                end = ABSOLUTE (.)
                0x020269f8                __alt_stack_base = ABSOLUTE (.)
                0x020269f8                PROVIDE (_alt_partition_sdram_load_addr, LOADADDR (.sdram))

.epcs           0x04000000        0x0 load address 0x020269f8
                0x04000000                PROVIDE (_alt_partition_epcs_start, ABSOLUTE (.))
 *(.epcs .epcs. epcs.*)
                0x04000000                . = ALIGN (0x4)
                0x04000000                PROVIDE (_alt_partition_epcs_end, ABSOLUTE (.))
                0x020269f8                PROVIDE (_alt_partition_epcs_load_addr, LOADADDR (.epcs))

.stab
 *(.stab)

.stabstr
 *(.stabstr)

.stab.excl
 *(.stab.excl)

.stab.exclstr
 *(.stab.exclstr)

.stab.index
 *(.stab.index)

.stab.indexstr
 *(.stab.indexstr)

.comment        0x00000000       0x23
 *(.comment)
 .comment       0x00000000       0x23 obj/default/ins.o
                                 0x24 (size before relaxing)
 .comment       0x00000000       0x24 obj/default/legocar.o
 .comment       0x00000000       0x24 obj/default/main.o
 .comment       0x00000000       0x24 obj/default/pwm_motor.o
 .comment       0x00000000       0x24 obj/default/terasic_lib/I2C.o
 .comment       0x00000000       0x24 obj/default/terasic_lib/accelerometer_adxl345_spi.o
 .comment       0x00000000       0x24 obj/default/terasic_lib/adc_spi_read.o
 .comment       0x00000000       0x24 obj/default/terasic_lib/flash.o
 .comment       0x00000000       0x24 obj/default/terasic_lib/terasic_spi.o
 .comment       0x00000000       0x24 obj/default/wheel_direction.o
 .comment       0x00000000       0x24 /opt/altera/nios2eds/bin/gnu/H-i686-pc-linux-gnu/bin/../lib/gcc/nios2-elf/4.7.3/mno-hw-mul/libgcc.a(_fixunsdfsi.o)
 .comment       0x00000000       0x24 /opt/altera/nios2eds/bin/gnu/H-i686-pc-linux-gnu/bin/../lib/gcc/nios2-elf/4.7.3/mno-hw-mul/libgcc.a(_addsub_sf.o)
 .comment       0x00000000       0x24 /opt/altera/nios2eds/bin/gnu/H-i686-pc-linux-gnu/bin/../lib/gcc/nios2-elf/4.7.3/mno-hw-mul/libgcc.a(_mul_sf.o)
 .comment       0x00000000       0x24 /opt/altera/nios2eds/bin/gnu/H-i686-pc-linux-gnu/bin/../lib/gcc/nios2-elf/4.7.3/mno-hw-mul/libgcc.a(_gt_sf.o)
 .comment       0x00000000       0x24 /opt/altera/nios2eds/bin/gnu/H-i686-pc-linux-gnu/bin/../lib/gcc/nios2-elf/4.7.3/mno-hw-mul/libgcc.a(_ge_sf.o)
 .comment       0x00000000       0x24 /opt/altera/nios2eds/bin/gnu/H-i686-pc-linux-gnu/bin/../lib/gcc/nios2-elf/4.7.3/mno-hw-mul/libgcc.a(_le_sf.o)
 .comment       0x00000000       0x24 /opt/altera/nios2eds/bin/gnu/H-i686-pc-linux-gnu/bin/../lib/gcc/nios2-elf/4.7.3/mno-hw-mul/libgcc.a(_sf_to_si.o)
 .comment       0x00000000       0x24 /opt/altera/nios2eds/bin/gnu/H-i686-pc-linux-gnu/bin/../lib/gcc/nios2-elf/4.7.3/mno-hw-mul/libgcc.a(_sf_to_df.o)
 .comment       0x00000000       0x24 /opt/altera/nios2eds/bin/gnu/H-i686-pc-linux-gnu/bin/../lib/gcc/nios2-elf/4.7.3/mno-hw-mul/libgcc.a(_thenan_sf.o)
 .comment       0x00000000       0x24 /opt/altera/nios2eds/bin/gnu/H-i686-pc-linux-gnu/bin/../lib/gcc/nios2-elf/4.7.3/mno-hw-mul/libgcc.a(_usi_to_sf.o)
 .comment       0x00000000       0x24 /opt/altera/nios2eds/bin/gnu/H-i686-pc-linux-gnu/bin/../lib/gcc/nios2-elf/4.7.3/mno-hw-mul/libgcc.a(_addsub_df.o)
 .comment       0x00000000       0x24 /opt/altera/nios2eds/bin/gnu/H-i686-pc-linux-gnu/bin/../lib/gcc/nios2-elf/4.7.3/mno-hw-mul/libgcc.a(_mul_df.o)
 .comment       0x00000000       0x24 /opt/altera/nios2eds/bin/gnu/H-i686-pc-linux-gnu/bin/../lib/gcc/nios2-elf/4.7.3/mno-hw-mul/libgcc.a(_div_df.o)
 .comment       0x00000000       0x24 /opt/altera/nios2eds/bin/gnu/H-i686-pc-linux-gnu/bin/../lib/gcc/nios2-elf/4.7.3/mno-hw-mul/libgcc.a(_eq_df.o)
 .comment       0x00000000       0x24 /opt/altera/nios2eds/bin/gnu/H-i686-pc-linux-gnu/bin/../lib/gcc/nios2-elf/4.7.3/mno-hw-mul/libgcc.a(_ge_df.o)
 .comment       0x00000000       0x24 /opt/altera/nios2eds/bin/gnu/H-i686-pc-linux-gnu/bin/../lib/gcc/nios2-elf/4.7.3/mno-hw-mul/libgcc.a(_si_to_df.o)
 .comment       0x00000000       0x24 /opt/altera/nios2eds/bin/gnu/H-i686-pc-linux-gnu/bin/../lib/gcc/nios2-elf/4.7.3/mno-hw-mul/libgcc.a(_df_to_si.o)
 .comment       0x00000000       0x24 /opt/altera/nios2eds/bin/gnu/H-i686-pc-linux-gnu/bin/../lib/gcc/nios2-elf/4.7.3/mno-hw-mul/libgcc.a(_make_df.o)
 .comment       0x00000000       0x24 /opt/altera/nios2eds/bin/gnu/H-i686-pc-linux-gnu/bin/../lib/gcc/nios2-elf/4.7.3/mno-hw-mul/libgcc.a(_df_to_sf.o)
 .comment       0x00000000       0x24 /opt/altera/nios2eds/bin/gnu/H-i686-pc-linux-gnu/bin/../lib/gcc/nios2-elf/4.7.3/mno-hw-mul/libgcc.a(_thenan_df.o)
 .comment       0x00000000       0x24 /opt/altera/nios2eds/bin/gnu/H-i686-pc-linux-gnu/bin/../lib/gcc/nios2-elf/4.7.3/mno-hw-mul/libgcc.a(lib2-divmod.o)
 .comment       0x00000000       0x24 /opt/altera/nios2eds/bin/gnu/H-i686-pc-linux-gnu/bin/../lib/gcc/nios2-elf/4.7.3/mno-hw-mul/libgcc.a(_muldi3.o)
 .comment       0x00000000       0x24 /opt/altera/nios2eds/bin/gnu/H-i686-pc-linux-gnu/bin/../lib/gcc/nios2-elf/4.7.3/mno-hw-mul/libgcc.a(_clzsi2.o)
 .comment       0x00000000       0x24 /opt/altera/nios2eds/bin/gnu/H-i686-pc-linux-gnu/bin/../lib/gcc/nios2-elf/4.7.3/mno-hw-mul/libgcc.a(_pack_sf.o)
 .comment       0x00000000       0x24 /opt/altera/nios2eds/bin/gnu/H-i686-pc-linux-gnu/bin/../lib/gcc/nios2-elf/4.7.3/mno-hw-mul/libgcc.a(_unpack_sf.o)
 .comment       0x00000000       0x24 /opt/altera/nios2eds/bin/gnu/H-i686-pc-linux-gnu/bin/../lib/gcc/nios2-elf/4.7.3/mno-hw-mul/libgcc.a(_fpcmp_parts_sf.o)
 .comment       0x00000000       0x24 /opt/altera/nios2eds/bin/gnu/H-i686-pc-linux-gnu/bin/../lib/gcc/nios2-elf/4.7.3/mno-hw-mul/libgcc.a(_make_sf.o)
 .comment       0x00000000       0x24 /opt/altera/nios2eds/bin/gnu/H-i686-pc-linux-gnu/bin/../lib/gcc/nios2-elf/4.7.3/mno-hw-mul/libgcc.a(_pack_df.o)
 .comment       0x00000000       0x24 /opt/altera/nios2eds/bin/gnu/H-i686-pc-linux-gnu/bin/../lib/gcc/nios2-elf/4.7.3/mno-hw-mul/libgcc.a(_unpack_df.o)
 .comment       0x00000000       0x24 /opt/altera/nios2eds/bin/gnu/H-i686-pc-linux-gnu/bin/../lib/gcc/nios2-elf/4.7.3/mno-hw-mul/libgcc.a(_fpcmp_parts_df.o)
 .comment       0x00000000       0x24 /opt/altera/nios2eds/bin/gnu/H-i686-pc-linux-gnu/bin/../lib/gcc/nios2-elf/4.7.3/mno-hw-mul/libgcc.a(lib2-mul.o)
 .comment       0x00000000       0x24 /opt/altera/nios2eds/bin/gnu/H-i686-pc-linux-gnu/bin/../lib/gcc/nios2-elf/4.7.3/mno-hw-mul/libgcc.a(_lshrdi3.o)
 .comment       0x00000000       0x24 /opt/altera/nios2eds/bin/gnu/H-i686-pc-linux-gnu/bin/../lib/gcc/nios2-elf/4.7.3/mno-hw-mul/libgcc.a(_ashldi3.o)
 .comment       0x00000000       0x24 /opt/altera/nios2eds/bin/gnu/H-i686-pc-linux-gnu/bin/../lib/gcc/nios2-elf/4.7.3/mno-hw-mul/libgcc.a(_clz.o)
 .comment       0x00000000       0x24 /opt/altera/nios2eds/bin/gnu/H-i686-pc-linux-gnu/bin/../lib/gcc/nios2-elf/4.7.3/../../../../../H-i686-pc-linux-gnu/nios2-elf/lib/mno-hw-mul/libc.a(lib_a-assert.o)
 .comment       0x00000000       0x24 /opt/altera/nios2eds/bin/gnu/H-i686-pc-linux-gnu/bin/../lib/gcc/nios2-elf/4.7.3/../../../../../H-i686-pc-linux-gnu/nios2-elf/lib/mno-hw-mul/libc.a(lib_a-fiprintf.o)
 .comment       0x00000000       0x24 /opt/altera/nios2eds/bin/gnu/H-i686-pc-linux-gnu/bin/../lib/gcc/nios2-elf/4.7.3/../../../../../H-i686-pc-linux-gnu/nios2-elf/lib/mno-hw-mul/libc.a(lib_a-impure.o)
 .comment       0x00000000       0x24 /opt/altera/nios2eds/bin/gnu/H-i686-pc-linux-gnu/bin/../lib/gcc/nios2-elf/4.7.3/../../../../../H-i686-pc-linux-gnu/nios2-elf/lib/mno-hw-mul/libc.a(lib_a-malloc.o)
 .comment       0x00000000       0x24 /opt/altera/nios2eds/bin/gnu/H-i686-pc-linux-gnu/bin/../lib/gcc/nios2-elf/4.7.3/../../../../../H-i686-pc-linux-gnu/nios2-elf/lib/mno-hw-mul/libc.a(lib_a-mallocr.o)
 .comment       0x00000000       0x24 /opt/altera/nios2eds/bin/gnu/H-i686-pc-linux-gnu/bin/../lib/gcc/nios2-elf/4.7.3/../../../../../H-i686-pc-linux-gnu/nios2-elf/lib/mno-hw-mul/libc.a(lib_a-printf.o)
 .comment       0x00000000       0x24 /opt/altera/nios2eds/bin/gnu/H-i686-pc-linux-gnu/bin/../lib/gcc/nios2-elf/4.7.3/../../../../../H-i686-pc-linux-gnu/nios2-elf/lib/mno-hw-mul/libc.a(lib_a-puts.o)
 .comment       0x00000000       0x24 /opt/altera/nios2eds/bin/gnu/H-i686-pc-linux-gnu/bin/../lib/gcc/nios2-elf/4.7.3/../../../../../H-i686-pc-linux-gnu/nios2-elf/lib/mno-hw-mul/libc.a(lib_a-sbrkr.o)
 .comment       0x00000000       0x24 /opt/altera/nios2eds/bin/gnu/H-i686-pc-linux-gnu/bin/../lib/gcc/nios2-elf/4.7.3/../../../../../H-i686-pc-linux-gnu/nios2-elf/lib/mno-hw-mul/libc.a(lib_a-strlen.o)
 .comment       0x00000000       0x24 /opt/altera/nios2eds/bin/gnu/H-i686-pc-linux-gnu/bin/../lib/gcc/nios2-elf/4.7.3/../../../../../H-i686-pc-linux-gnu/nios2-elf/lib/mno-hw-mul/libc.a(lib_a-vfiprintfr_1.o)
 .comment       0x00000000       0x24 /opt/altera/nios2eds/bin/gnu/H-i686-pc-linux-gnu/bin/../lib/gcc/nios2-elf/4.7.3/../../../../../H-i686-pc-linux-gnu/nios2-elf/lib/mno-hw-mul/libc.a(lib_a-vfprintf.o)
 .comment       0x00000000       0x24 /opt/altera/nios2eds/bin/gnu/H-i686-pc-linux-gnu/bin/../lib/gcc/nios2-elf/4.7.3/../../../../../H-i686-pc-linux-gnu/nios2-elf/lib/mno-hw-mul/libc.a(lib_a-wsetup.o)
 .comment       0x00000000       0x24 /opt/altera/nios2eds/bin/gnu/H-i686-pc-linux-gnu/bin/../lib/gcc/nios2-elf/4.7.3/../../../../../H-i686-pc-linux-gnu/nios2-elf/lib/mno-hw-mul/libc.a(lib_a-abort.o)
 .comment       0x00000000       0x24 /opt/altera/nios2eds/bin/gnu/H-i686-pc-linux-gnu/bin/../lib/gcc/nios2-elf/4.7.3/../../../../../H-i686-pc-linux-gnu/nios2-elf/lib/mno-hw-mul/libc.a(lib_a-dtoa.o)
 .comment       0x00000000       0x24 /opt/altera/nios2eds/bin/gnu/H-i686-pc-linux-gnu/bin/../lib/gcc/nios2-elf/4.7.3/../../../../../H-i686-pc-linux-gnu/nios2-elf/lib/mno-hw-mul/libc.a(lib_a-fflush.o)
 .comment       0x00000000       0x24 /opt/altera/nios2eds/bin/gnu/H-i686-pc-linux-gnu/bin/../lib/gcc/nios2-elf/4.7.3/../../../../../H-i686-pc-linux-gnu/nios2-elf/lib/mno-hw-mul/libc.a(lib_a-findfp.o)
 .comment       0x00000000       0x24 /opt/altera/nios2eds/bin/gnu/H-i686-pc-linux-gnu/bin/../lib/gcc/nios2-elf/4.7.3/../../../../../H-i686-pc-linux-gnu/nios2-elf/lib/mno-hw-mul/libc.a(lib_a-freer.o)
 .comment       0x00000000       0x24 /opt/altera/nios2eds/bin/gnu/H-i686-pc-linux-gnu/bin/../lib/gcc/nios2-elf/4.7.3/../../../../../H-i686-pc-linux-gnu/nios2-elf/lib/mno-hw-mul/libc.a(lib_a-fvwrite.o)
 .comment       0x00000000       0x24 /opt/altera/nios2eds/bin/gnu/H-i686-pc-linux-gnu/bin/../lib/gcc/nios2-elf/4.7.3/../../../../../H-i686-pc-linux-gnu/nios2-elf/lib/mno-hw-mul/libc.a(lib_a-fwalk.o)
 .comment       0x00000000       0x24 /opt/altera/nios2eds/bin/gnu/H-i686-pc-linux-gnu/bin/../lib/gcc/nios2-elf/4.7.3/../../../../../H-i686-pc-linux-gnu/nios2-elf/lib/mno-hw-mul/libc.a(lib_a-int_errno.o)
 .comment       0x00000000       0x24 /opt/altera/nios2eds/bin/gnu/H-i686-pc-linux-gnu/bin/../lib/gcc/nios2-elf/4.7.3/../../../../../H-i686-pc-linux-gnu/nios2-elf/lib/mno-hw-mul/libc.a(lib_a-locale.o)
 .comment       0x00000000       0x24 /opt/altera/nios2eds/bin/gnu/H-i686-pc-linux-gnu/bin/../lib/gcc/nios2-elf/4.7.3/../../../../../H-i686-pc-linux-gnu/nios2-elf/lib/mno-hw-mul/libc.a(lib_a-makebuf.o)
 .comment       0x00000000       0x24 /opt/altera/nios2eds/bin/gnu/H-i686-pc-linux-gnu/bin/../lib/gcc/nios2-elf/4.7.3/../../../../../H-i686-pc-linux-gnu/nios2-elf/lib/mno-hw-mul/libc.a(lib_a-memchr.o)
 .comment       0x00000000       0x24 /opt/altera/nios2eds/bin/gnu/H-i686-pc-linux-gnu/bin/../lib/gcc/nios2-elf/4.7.3/../../../../../H-i686-pc-linux-gnu/nios2-elf/lib/mno-hw-mul/libc.a(lib_a-memcpy.o)
 .comment       0x00000000       0x24 /opt/altera/nios2eds/bin/gnu/H-i686-pc-linux-gnu/bin/../lib/gcc/nios2-elf/4.7.3/../../../../../H-i686-pc-linux-gnu/nios2-elf/lib/mno-hw-mul/libc.a(lib_a-memmove.o)
 .comment       0x00000000       0x24 /opt/altera/nios2eds/bin/gnu/H-i686-pc-linux-gnu/bin/../lib/gcc/nios2-elf/4.7.3/../../../../../H-i686-pc-linux-gnu/nios2-elf/lib/mno-hw-mul/libc.a(lib_a-memset.o)
 .comment       0x00000000       0x24 /opt/altera/nios2eds/bin/gnu/H-i686-pc-linux-gnu/bin/../lib/gcc/nios2-elf/4.7.3/../../../../../H-i686-pc-linux-gnu/nios2-elf/lib/mno-hw-mul/libc.a(lib_a-mprec.o)
 .comment       0x00000000       0x24 /opt/altera/nios2eds/bin/gnu/H-i686-pc-linux-gnu/bin/../lib/gcc/nios2-elf/4.7.3/../../../../../H-i686-pc-linux-gnu/nios2-elf/lib/mno-hw-mul/libc.a(lib_a-reallocr.o)
 .comment       0x00000000       0x24 /opt/altera/nios2eds/bin/gnu/H-i686-pc-linux-gnu/bin/../lib/gcc/nios2-elf/4.7.3/../../../../../H-i686-pc-linux-gnu/nios2-elf/lib/mno-hw-mul/libc.a(lib_a-s_isinfd.o)
 .comment       0x00000000       0x24 /opt/altera/nios2eds/bin/gnu/H-i686-pc-linux-gnu/bin/../lib/gcc/nios2-elf/4.7.3/../../../../../H-i686-pc-linux-gnu/nios2-elf/lib/mno-hw-mul/libc.a(lib_a-s_isnand.o)
 .comment       0x00000000       0x24 /opt/altera/nios2eds/bin/gnu/H-i686-pc-linux-gnu/bin/../lib/gcc/nios2-elf/4.7.3/../../../../../H-i686-pc-linux-gnu/nios2-elf/lib/mno-hw-mul/libc.a(lib_a-signal.o)
 .comment       0x00000000       0x24 /opt/altera/nios2eds/bin/gnu/H-i686-pc-linux-gnu/bin/../lib/gcc/nios2-elf/4.7.3/../../../../../H-i686-pc-linux-gnu/nios2-elf/lib/mno-hw-mul/libc.a(lib_a-signalr.o)
 .comment       0x00000000       0x24 /opt/altera/nios2eds/bin/gnu/H-i686-pc-linux-gnu/bin/../lib/gcc/nios2-elf/4.7.3/../../../../../H-i686-pc-linux-gnu/nios2-elf/lib/mno-hw-mul/libc.a(lib_a-stdio.o)
 .comment       0x00000000       0x24 /opt/altera/nios2eds/bin/gnu/H-i686-pc-linux-gnu/bin/../lib/gcc/nios2-elf/4.7.3/../../../../../H-i686-pc-linux-gnu/nios2-elf/lib/mno-hw-mul/libc.a(lib_a-strcmp.o)
 .comment       0x00000000       0x24 /opt/altera/nios2eds/bin/gnu/H-i686-pc-linux-gnu/bin/../lib/gcc/nios2-elf/4.7.3/../../../../../H-i686-pc-linux-gnu/nios2-elf/lib/mno-hw-mul/libc.a(lib_a-vfiprintf.o)
 .comment       0x00000000       0x24 /opt/altera/nios2eds/bin/gnu/H-i686-pc-linux-gnu/bin/../lib/gcc/nios2-elf/4.7.3/../../../../../H-i686-pc-linux-gnu/nios2-elf/lib/mno-hw-mul/libc.a(lib_a-writer.o)
 .comment       0x00000000       0x24 /opt/altera/nios2eds/bin/gnu/H-i686-pc-linux-gnu/bin/../lib/gcc/nios2-elf/4.7.3/../../../../../H-i686-pc-linux-gnu/nios2-elf/lib/mno-hw-mul/libc.a(lib_a-callocr.o)
 .comment       0x00000000       0x24 /opt/altera/nios2eds/bin/gnu/H-i686-pc-linux-gnu/bin/../lib/gcc/nios2-elf/4.7.3/../../../../../H-i686-pc-linux-gnu/nios2-elf/lib/mno-hw-mul/libc.a(lib_a-closer.o)
 .comment       0x00000000       0x24 /opt/altera/nios2eds/bin/gnu/H-i686-pc-linux-gnu/bin/../lib/gcc/nios2-elf/4.7.3/../../../../../H-i686-pc-linux-gnu/nios2-elf/lib/mno-hw-mul/libc.a(lib_a-fclose.o)
 .comment       0x00000000       0x24 /opt/altera/nios2eds/bin/gnu/H-i686-pc-linux-gnu/bin/../lib/gcc/nios2-elf/4.7.3/../../../../../H-i686-pc-linux-gnu/nios2-elf/lib/mno-hw-mul/libc.a(lib_a-fstatr.o)
 .comment       0x00000000       0x24 /opt/altera/nios2eds/bin/gnu/H-i686-pc-linux-gnu/bin/../lib/gcc/nios2-elf/4.7.3/../../../../../H-i686-pc-linux-gnu/nios2-elf/lib/mno-hw-mul/libc.a(lib_a-isattyr.o)
 .comment       0x00000000       0x24 /opt/altera/nios2eds/bin/gnu/H-i686-pc-linux-gnu/bin/../lib/gcc/nios2-elf/4.7.3/../../../../../H-i686-pc-linux-gnu/nios2-elf/lib/mno-hw-mul/libc.a(lib_a-lseekr.o)
 .comment       0x00000000       0x24 /opt/altera/nios2eds/bin/gnu/H-i686-pc-linux-gnu/bin/../lib/gcc/nios2-elf/4.7.3/../../../../../H-i686-pc-linux-gnu/nios2-elf/lib/mno-hw-mul/libc.a(lib_a-readr.o)
 .comment       0x00000000       0x24 /opt/altera/nios2eds/bin/gnu/H-i686-pc-linux-gnu/bin/../lib/gcc/nios2-elf/4.7.3/mno-hw-mul/libgcc.a(_udivdi3.o)
 .comment       0x00000000       0x24 /opt/altera/nios2eds/bin/gnu/H-i686-pc-linux-gnu/bin/../lib/gcc/nios2-elf/4.7.3/mno-hw-mul/libgcc.a(_umoddi3.o)
 .comment       0x00000000       0x24 /opt/altera/nios2eds/bin/gnu/H-i686-pc-linux-gnu/bin/../lib/gcc/nios2-elf/4.7.3/mno-hw-mul/libgcc.a(_ne_df.o)
 .comment       0x00000000       0x24 /opt/altera/nios2eds/bin/gnu/H-i686-pc-linux-gnu/bin/../lib/gcc/nios2-elf/4.7.3/mno-hw-mul/libgcc.a(_gt_df.o)
 .comment       0x00000000       0x24 /opt/altera/nios2eds/bin/gnu/H-i686-pc-linux-gnu/bin/../lib/gcc/nios2-elf/4.7.3/mno-hw-mul/libgcc.a(_lt_df.o)
 .comment       0x00000000       0x24 /opt/altera/nios2eds/bin/gnu/H-i686-pc-linux-gnu/bin/../lib/gcc/nios2-elf/4.7.3/mno-hw-mul/libgcc.a(_usi_to_df.o)
 .comment       0x00000000       0x24 ../legocar_firmware_microc_bsp//libucosii_bsp.a(alt_close.o)
 .comment       0x00000000       0x24 ../legocar_firmware_microc_bsp//libucosii_bsp.a(alt_dcache_flush.o)
 .comment       0x00000000       0x24 ../legocar_firmware_microc_bsp//libucosii_bsp.a(alt_dcache_flush_all.o)
 .comment       0x00000000       0x24 ../legocar_firmware_microc_bsp//libucosii_bsp.a(alt_dev.o)
 .comment       0x00000000       0x24 ../legocar_firmware_microc_bsp//libucosii_bsp.a(alt_errno.o)
 .comment       0x00000000       0x24 ../legocar_firmware_microc_bsp//libucosii_bsp.a(alt_exit.o)
 .comment       0x00000000       0x24 ../legocar_firmware_microc_bsp//libucosii_bsp.a(alt_flash_dev.o)
 .comment       0x00000000       0x24 ../legocar_firmware_microc_bsp//libucosii_bsp.a(alt_fstat.o)
 .comment       0x00000000       0x24 ../legocar_firmware_microc_bsp//libucosii_bsp.a(alt_getpid.o)
 .comment       0x00000000       0x24 ../legocar_firmware_microc_bsp//libucosii_bsp.a(alt_isatty.o)
 .comment       0x00000000       0x24 ../legocar_firmware_microc_bsp//libucosii_bsp.a(alt_kill.o)
 .comment       0x00000000       0x24 ../legocar_firmware_microc_bsp//libucosii_bsp.a(alt_load.o)
 .comment       0x00000000       0x24 ../legocar_firmware_microc_bsp//libucosii_bsp.a(alt_lseek.o)
 .comment       0x00000000       0x24 ../legocar_firmware_microc_bsp//libucosii_bsp.a(alt_main.o)
 .comment       0x00000000       0x24 ../legocar_firmware_microc_bsp//libucosii_bsp.a(alt_read.o)
 .comment       0x00000000       0x24 ../legocar_firmware_microc_bsp//libucosii_bsp.a(alt_release_fd.o)
 .comment       0x00000000       0x24 ../legocar_firmware_microc_bsp//libucosii_bsp.a(alt_sbrk.o)
 .comment       0x00000000       0x24 ../legocar_firmware_microc_bsp//libucosii_bsp.a(alt_tick.o)
 .comment       0x00000000       0x24 ../legocar_firmware_microc_bsp//libucosii_bsp.a(alt_usleep.o)
 .comment       0x00000000       0x24 ../legocar_firmware_microc_bsp//libucosii_bsp.a(alt_write.o)
 .comment       0x00000000       0x24 ../legocar_firmware_microc_bsp//libucosii_bsp.a(alt_env_lock.o)
 .comment       0x00000000       0x24 ../legocar_firmware_microc_bsp//libucosii_bsp.a(alt_malloc_lock.o)
 .comment       0x00000000       0x24 ../legocar_firmware_microc_bsp//libucosii_bsp.a(os_core.o)
 .comment       0x00000000       0x24 ../legocar_firmware_microc_bsp//libucosii_bsp.a(os_dbg.o)
 .comment       0x00000000       0x24 ../legocar_firmware_microc_bsp//libucosii_bsp.a(os_flag.o)
 .comment       0x00000000       0x24 ../legocar_firmware_microc_bsp//libucosii_bsp.a(os_mem.o)
 .comment       0x00000000       0x24 ../legocar_firmware_microc_bsp//libucosii_bsp.a(os_q.o)
 .comment       0x00000000       0x24 ../legocar_firmware_microc_bsp//libucosii_bsp.a(os_sem.o)
 .comment       0x00000000       0x24 ../legocar_firmware_microc_bsp//libucosii_bsp.a(os_task.o)
 .comment       0x00000000       0x24 ../legocar_firmware_microc_bsp//libucosii_bsp.a(os_time.o)
 .comment       0x00000000       0x24 ../legocar_firmware_microc_bsp//libucosii_bsp.a(alt_sys_init.o)
 .comment       0x00000000       0x24 ../legocar_firmware_microc_bsp//libucosii_bsp.a(altera_avalon_epcs_flash_controller.o)
 .comment       0x00000000       0x24 ../legocar_firmware_microc_bsp//libucosii_bsp.a(altera_avalon_jtag_uart_fd.o)
 .comment       0x00000000       0x24 ../legocar_firmware_microc_bsp//libucosii_bsp.a(altera_avalon_jtag_uart_init.o)
 .comment       0x00000000       0x24 ../legocar_firmware_microc_bsp//libucosii_bsp.a(altera_avalon_jtag_uart_ioctl.o)
 .comment       0x00000000       0x24 ../legocar_firmware_microc_bsp//libucosii_bsp.a(altera_avalon_jtag_uart_read.o)
 .comment       0x00000000       0x24 ../legocar_firmware_microc_bsp//libucosii_bsp.a(altera_avalon_jtag_uart_write.o)
 .comment       0x00000000       0x24 ../legocar_firmware_microc_bsp//libucosii_bsp.a(altera_avalon_timer_sc.o)
 .comment       0x00000000       0x24 ../legocar_firmware_microc_bsp//libucosii_bsp.a(altera_avalon_uart_fd.o)
 .comment       0x00000000       0x24 ../legocar_firmware_microc_bsp//libucosii_bsp.a(altera_avalon_uart_init.o)
 .comment       0x00000000       0x24 ../legocar_firmware_microc_bsp//libucosii_bsp.a(altera_avalon_uart_read.o)
 .comment       0x00000000       0x24 ../legocar_firmware_microc_bsp//libucosii_bsp.a(altera_avalon_uart_write.o)
 .comment       0x00000000       0x24 ../legocar_firmware_microc_bsp//libucosii_bsp.a(epcs_commands.o)
 .comment       0x00000000       0x24 ../legocar_firmware_microc_bsp//libucosii_bsp.a(alt_alarm_start.o)
 .comment       0x00000000       0x24 ../legocar_firmware_microc_bsp//libucosii_bsp.a(alt_busy_sleep.o)
 .comment       0x00000000       0x24 ../legocar_firmware_microc_bsp//libucosii_bsp.a(alt_dev_llist_insert.o)
 .comment       0x00000000       0x24 ../legocar_firmware_microc_bsp//libucosii_bsp.a(alt_do_ctors.o)
 .comment       0x00000000       0x24 ../legocar_firmware_microc_bsp//libucosii_bsp.a(alt_do_dtors.o)
 .comment       0x00000000       0x24 ../legocar_firmware_microc_bsp//libucosii_bsp.a(alt_find_dev.o)
 .comment       0x00000000       0x24 ../legocar_firmware_microc_bsp//libucosii_bsp.a(alt_icache_flush_all.o)
 .comment       0x00000000       0x24 ../legocar_firmware_microc_bsp//libucosii_bsp.a(alt_iic.o)
 .comment       0x00000000       0x24 ../legocar_firmware_microc_bsp//libucosii_bsp.a(alt_iic_isr_register.o)
 .comment       0x00000000       0x24 ../legocar_firmware_microc_bsp//libucosii_bsp.a(alt_io_redirect.o)
 .comment       0x00000000       0x24 ../legocar_firmware_microc_bsp//libucosii_bsp.a(alt_irq_handler.o)
 .comment       0x00000000       0x24 ../legocar_firmware_microc_bsp//libucosii_bsp.a(alt_irq_vars.o)
 .comment       0x00000000       0x24 ../legocar_firmware_microc_bsp//libucosii_bsp.a(alt_open.o)
 .comment       0x00000000       0x24 ../legocar_firmware_microc_bsp//libucosii_bsp.a(altera_nios2_irq.o)
 .comment       0x00000000       0x24 ../legocar_firmware_microc_bsp//libucosii_bsp.a(os_cpu_c.o)
 .comment       0x00000000       0x24 ../legocar_firmware_microc_bsp//libucosii_bsp.a(altera_avalon_spi.o)
 .comment       0x00000000       0x24 ../legocar_firmware_microc_bsp//libucosii_bsp.a(alt_find_file.o)
 .comment       0x00000000       0x24 ../legocar_firmware_microc_bsp//libucosii_bsp.a(alt_get_fd.o)
 .comment       0x00000000       0x24 /opt/altera/nios2eds/bin/gnu/H-i686-pc-linux-gnu/bin/../lib/gcc/nios2-elf/4.7.3/../../../../../H-i686-pc-linux-gnu/nios2-elf/lib/mno-hw-mul/libc.a(lib_a-atexit.o)
 .comment       0x00000000       0x24 /opt/altera/nios2eds/bin/gnu/H-i686-pc-linux-gnu/bin/../lib/gcc/nios2-elf/4.7.3/../../../../../H-i686-pc-linux-gnu/nios2-elf/lib/mno-hw-mul/libc.a(lib_a-exit.o)
 .comment       0x00000000       0x24 /opt/altera/nios2eds/bin/gnu/H-i686-pc-linux-gnu/bin/../lib/gcc/nios2-elf/4.7.3/../../../../../H-i686-pc-linux-gnu/nios2-elf/lib/mno-hw-mul/libc.a(lib_a-memcmp.o)
 .comment       0x00000000       0x24 /opt/altera/nios2eds/bin/gnu/H-i686-pc-linux-gnu/bin/../lib/gcc/nios2-elf/4.7.3/../../../../../H-i686-pc-linux-gnu/nios2-elf/lib/mno-hw-mul/libc.a(lib_a-__atexit.o)
 .comment       0x00000000       0x24 /opt/altera/nios2eds/bin/gnu/H-i686-pc-linux-gnu/bin/../lib/gcc/nios2-elf/4.7.3/../../../../../H-i686-pc-linux-gnu/nios2-elf/lib/mno-hw-mul/libc.a(lib_a-__call_atexit.o)

.debug
 *(.debug)

.line
 *(.line)

.debug_srcinfo
 *(.debug_srcinfo)

.debug_sfnames
 *(.debug_sfnames)

.debug_aranges  0x00000000     0x1458
 *(.debug_aranges)
 .debug_aranges
                0x00000000       0x28 ../legocar_firmware_microc_bsp//obj/HAL/src/crt0.o
 .debug_aranges
                0x00000028       0x20 obj/default/ins.o
 .debug_aranges
                0x00000048       0x20 obj/default/legocar.o
 .debug_aranges
                0x00000068       0x20 obj/default/main.o
 .debug_aranges
                0x00000088       0x20 obj/default/pwm_motor.o
 .debug_aranges
                0x000000a8       0x20 obj/default/terasic_lib/I2C.o
 .debug_aranges
                0x000000c8       0x20 obj/default/terasic_lib/accelerometer_adxl345_spi.o
 .debug_aranges
                0x000000e8       0x20 obj/default/terasic_lib/adc_spi_read.o
 .debug_aranges
                0x00000108       0x20 obj/default/terasic_lib/flash.o
 .debug_aranges
                0x00000128       0x20 obj/default/terasic_lib/terasic_spi.o
 .debug_aranges
                0x00000148       0x20 obj/default/wheel_direction.o
 .debug_aranges
                0x00000168       0x20 /opt/altera/nios2eds/bin/gnu/H-i686-pc-linux-gnu/bin/../lib/gcc/nios2-elf/4.7.3/mno-hw-mul/libgcc.a(_fixunsdfsi.o)
 .debug_aranges
                0x00000188       0x20 /opt/altera/nios2eds/bin/gnu/H-i686-pc-linux-gnu/bin/../lib/gcc/nios2-elf/4.7.3/mno-hw-mul/libgcc.a(_addsub_sf.o)
 .debug_aranges
                0x000001a8       0x20 /opt/altera/nios2eds/bin/gnu/H-i686-pc-linux-gnu/bin/../lib/gcc/nios2-elf/4.7.3/mno-hw-mul/libgcc.a(_mul_sf.o)
 .debug_aranges
                0x000001c8       0x20 /opt/altera/nios2eds/bin/gnu/H-i686-pc-linux-gnu/bin/../lib/gcc/nios2-elf/4.7.3/mno-hw-mul/libgcc.a(_gt_sf.o)
 .debug_aranges
                0x000001e8       0x20 /opt/altera/nios2eds/bin/gnu/H-i686-pc-linux-gnu/bin/../lib/gcc/nios2-elf/4.7.3/mno-hw-mul/libgcc.a(_ge_sf.o)
 .debug_aranges
                0x00000208       0x20 /opt/altera/nios2eds/bin/gnu/H-i686-pc-linux-gnu/bin/../lib/gcc/nios2-elf/4.7.3/mno-hw-mul/libgcc.a(_le_sf.o)
 .debug_aranges
                0x00000228       0x20 /opt/altera/nios2eds/bin/gnu/H-i686-pc-linux-gnu/bin/../lib/gcc/nios2-elf/4.7.3/mno-hw-mul/libgcc.a(_sf_to_si.o)
 .debug_aranges
                0x00000248       0x20 /opt/altera/nios2eds/bin/gnu/H-i686-pc-linux-gnu/bin/../lib/gcc/nios2-elf/4.7.3/mno-hw-mul/libgcc.a(_sf_to_df.o)
 .debug_aranges
                0x00000268       0x18 /opt/altera/nios2eds/bin/gnu/H-i686-pc-linux-gnu/bin/../lib/gcc/nios2-elf/4.7.3/mno-hw-mul/libgcc.a(_thenan_sf.o)
 .debug_aranges
                0x00000280       0x20 /opt/altera/nios2eds/bin/gnu/H-i686-pc-linux-gnu/bin/../lib/gcc/nios2-elf/4.7.3/mno-hw-mul/libgcc.a(_usi_to_sf.o)
 .debug_aranges
                0x000002a0       0x20 /opt/altera/nios2eds/bin/gnu/H-i686-pc-linux-gnu/bin/../lib/gcc/nios2-elf/4.7.3/mno-hw-mul/libgcc.a(_addsub_df.o)
 .debug_aranges
                0x000002c0       0x20 /opt/altera/nios2eds/bin/gnu/H-i686-pc-linux-gnu/bin/../lib/gcc/nios2-elf/4.7.3/mno-hw-mul/libgcc.a(_mul_df.o)
 .debug_aranges
                0x000002e0       0x20 /opt/altera/nios2eds/bin/gnu/H-i686-pc-linux-gnu/bin/../lib/gcc/nios2-elf/4.7.3/mno-hw-mul/libgcc.a(_div_df.o)
 .debug_aranges
                0x00000300       0x20 /opt/altera/nios2eds/bin/gnu/H-i686-pc-linux-gnu/bin/../lib/gcc/nios2-elf/4.7.3/mno-hw-mul/libgcc.a(_eq_df.o)
 .debug_aranges
                0x00000320       0x20 /opt/altera/nios2eds/bin/gnu/H-i686-pc-linux-gnu/bin/../lib/gcc/nios2-elf/4.7.3/mno-hw-mul/libgcc.a(_ge_df.o)
 .debug_aranges
                0x00000340       0x20 /opt/altera/nios2eds/bin/gnu/H-i686-pc-linux-gnu/bin/../lib/gcc/nios2-elf/4.7.3/mno-hw-mul/libgcc.a(_si_to_df.o)
 .debug_aranges
                0x00000360       0x20 /opt/altera/nios2eds/bin/gnu/H-i686-pc-linux-gnu/bin/../lib/gcc/nios2-elf/4.7.3/mno-hw-mul/libgcc.a(_df_to_si.o)
 .debug_aranges
                0x00000380       0x20 /opt/altera/nios2eds/bin/gnu/H-i686-pc-linux-gnu/bin/../lib/gcc/nios2-elf/4.7.3/mno-hw-mul/libgcc.a(_make_df.o)
 .debug_aranges
                0x000003a0       0x20 /opt/altera/nios2eds/bin/gnu/H-i686-pc-linux-gnu/bin/../lib/gcc/nios2-elf/4.7.3/mno-hw-mul/libgcc.a(_df_to_sf.o)
 .debug_aranges
                0x000003c0       0x18 /opt/altera/nios2eds/bin/gnu/H-i686-pc-linux-gnu/bin/../lib/gcc/nios2-elf/4.7.3/mno-hw-mul/libgcc.a(_thenan_df.o)
 .debug_aranges
                0x000003d8       0x20 /opt/altera/nios2eds/bin/gnu/H-i686-pc-linux-gnu/bin/../lib/gcc/nios2-elf/4.7.3/mno-hw-mul/libgcc.a(lib2-divmod.o)
 .debug_aranges
                0x000003f8       0x20 /opt/altera/nios2eds/bin/gnu/H-i686-pc-linux-gnu/bin/../lib/gcc/nios2-elf/4.7.3/mno-hw-mul/libgcc.a(_muldi3.o)
 .debug_aranges
                0x00000418       0x20 /opt/altera/nios2eds/bin/gnu/H-i686-pc-linux-gnu/bin/../lib/gcc/nios2-elf/4.7.3/mno-hw-mul/libgcc.a(_clzsi2.o)
 .debug_aranges
                0x00000438       0x20 /opt/altera/nios2eds/bin/gnu/H-i686-pc-linux-gnu/bin/../lib/gcc/nios2-elf/4.7.3/mno-hw-mul/libgcc.a(_pack_sf.o)
 .debug_aranges
                0x00000458       0x20 /opt/altera/nios2eds/bin/gnu/H-i686-pc-linux-gnu/bin/../lib/gcc/nios2-elf/4.7.3/mno-hw-mul/libgcc.a(_unpack_sf.o)
 .debug_aranges
                0x00000478       0x20 /opt/altera/nios2eds/bin/gnu/H-i686-pc-linux-gnu/bin/../lib/gcc/nios2-elf/4.7.3/mno-hw-mul/libgcc.a(_fpcmp_parts_sf.o)
 .debug_aranges
                0x00000498       0x20 /opt/altera/nios2eds/bin/gnu/H-i686-pc-linux-gnu/bin/../lib/gcc/nios2-elf/4.7.3/mno-hw-mul/libgcc.a(_make_sf.o)
 .debug_aranges
                0x000004b8       0x20 /opt/altera/nios2eds/bin/gnu/H-i686-pc-linux-gnu/bin/../lib/gcc/nios2-elf/4.7.3/mno-hw-mul/libgcc.a(_pack_df.o)
 .debug_aranges
                0x000004d8       0x20 /opt/altera/nios2eds/bin/gnu/H-i686-pc-linux-gnu/bin/../lib/gcc/nios2-elf/4.7.3/mno-hw-mul/libgcc.a(_unpack_df.o)
 .debug_aranges
                0x000004f8       0x20 /opt/altera/nios2eds/bin/gnu/H-i686-pc-linux-gnu/bin/../lib/gcc/nios2-elf/4.7.3/mno-hw-mul/libgcc.a(_fpcmp_parts_df.o)
 .debug_aranges
                0x00000518       0x20 /opt/altera/nios2eds/bin/gnu/H-i686-pc-linux-gnu/bin/../lib/gcc/nios2-elf/4.7.3/mno-hw-mul/libgcc.a(lib2-mul.o)
 .debug_aranges
                0x00000538       0x20 /opt/altera/nios2eds/bin/gnu/H-i686-pc-linux-gnu/bin/../lib/gcc/nios2-elf/4.7.3/mno-hw-mul/libgcc.a(_lshrdi3.o)
 .debug_aranges
                0x00000558       0x20 /opt/altera/nios2eds/bin/gnu/H-i686-pc-linux-gnu/bin/../lib/gcc/nios2-elf/4.7.3/mno-hw-mul/libgcc.a(_ashldi3.o)
 .debug_aranges
                0x00000578       0x18 /opt/altera/nios2eds/bin/gnu/H-i686-pc-linux-gnu/bin/../lib/gcc/nios2-elf/4.7.3/mno-hw-mul/libgcc.a(_clz.o)
 .debug_aranges
                0x00000590       0x20 /opt/altera/nios2eds/bin/gnu/H-i686-pc-linux-gnu/bin/../lib/gcc/nios2-elf/4.7.3/../../../../../H-i686-pc-linux-gnu/nios2-elf/lib/mno-hw-mul/libc.a(lib_a-assert.o)
 .debug_aranges
                0x000005b0       0x20 /opt/altera/nios2eds/bin/gnu/H-i686-pc-linux-gnu/bin/../lib/gcc/nios2-elf/4.7.3/../../../../../H-i686-pc-linux-gnu/nios2-elf/lib/mno-hw-mul/libc.a(lib_a-fiprintf.o)
 .debug_aranges
                0x000005d0       0x18 /opt/altera/nios2eds/bin/gnu/H-i686-pc-linux-gnu/bin/../lib/gcc/nios2-elf/4.7.3/../../../../../H-i686-pc-linux-gnu/nios2-elf/lib/mno-hw-mul/libc.a(lib_a-impure.o)
 .debug_aranges
                0x000005e8       0x20 /opt/altera/nios2eds/bin/gnu/H-i686-pc-linux-gnu/bin/../lib/gcc/nios2-elf/4.7.3/../../../../../H-i686-pc-linux-gnu/nios2-elf/lib/mno-hw-mul/libc.a(lib_a-malloc.o)
 .debug_aranges
                0x00000608       0x20 /opt/altera/nios2eds/bin/gnu/H-i686-pc-linux-gnu/bin/../lib/gcc/nios2-elf/4.7.3/../../../../../H-i686-pc-linux-gnu/nios2-elf/lib/mno-hw-mul/libc.a(lib_a-mallocr.o)
 .debug_aranges
                0x00000628       0x20 /opt/altera/nios2eds/bin/gnu/H-i686-pc-linux-gnu/bin/../lib/gcc/nios2-elf/4.7.3/../../../../../H-i686-pc-linux-gnu/nios2-elf/lib/mno-hw-mul/libc.a(lib_a-printf.o)
 .debug_aranges
                0x00000648       0x20 /opt/altera/nios2eds/bin/gnu/H-i686-pc-linux-gnu/bin/../lib/gcc/nios2-elf/4.7.3/../../../../../H-i686-pc-linux-gnu/nios2-elf/lib/mno-hw-mul/libc.a(lib_a-puts.o)
 .debug_aranges
                0x00000668       0x20 /opt/altera/nios2eds/bin/gnu/H-i686-pc-linux-gnu/bin/../lib/gcc/nios2-elf/4.7.3/../../../../../H-i686-pc-linux-gnu/nios2-elf/lib/mno-hw-mul/libc.a(lib_a-sbrkr.o)
 .debug_aranges
                0x00000688       0x20 /opt/altera/nios2eds/bin/gnu/H-i686-pc-linux-gnu/bin/../lib/gcc/nios2-elf/4.7.3/../../../../../H-i686-pc-linux-gnu/nios2-elf/lib/mno-hw-mul/libc.a(lib_a-strlen.o)
 .debug_aranges
                0x000006a8       0x20 /opt/altera/nios2eds/bin/gnu/H-i686-pc-linux-gnu/bin/../lib/gcc/nios2-elf/4.7.3/../../../../../H-i686-pc-linux-gnu/nios2-elf/lib/mno-hw-mul/libc.a(lib_a-vfiprintfr_1.o)
 .debug_aranges
                0x000006c8       0x20 /opt/altera/nios2eds/bin/gnu/H-i686-pc-linux-gnu/bin/../lib/gcc/nios2-elf/4.7.3/../../../../../H-i686-pc-linux-gnu/nios2-elf/lib/mno-hw-mul/libc.a(lib_a-vfprintf.o)
 .debug_aranges
                0x000006e8       0x20 /opt/altera/nios2eds/bin/gnu/H-i686-pc-linux-gnu/bin/../lib/gcc/nios2-elf/4.7.3/../../../../../H-i686-pc-linux-gnu/nios2-elf/lib/mno-hw-mul/libc.a(lib_a-wsetup.o)
 .debug_aranges
                0x00000708       0x20 /opt/altera/nios2eds/bin/gnu/H-i686-pc-linux-gnu/bin/../lib/gcc/nios2-elf/4.7.3/../../../../../H-i686-pc-linux-gnu/nios2-elf/lib/mno-hw-mul/libc.a(lib_a-abort.o)
 .debug_aranges
                0x00000728       0x20 /opt/altera/nios2eds/bin/gnu/H-i686-pc-linux-gnu/bin/../lib/gcc/nios2-elf/4.7.3/../../../../../H-i686-pc-linux-gnu/nios2-elf/lib/mno-hw-mul/libc.a(lib_a-dtoa.o)
 .debug_aranges
                0x00000748       0x20 /opt/altera/nios2eds/bin/gnu/H-i686-pc-linux-gnu/bin/../lib/gcc/nios2-elf/4.7.3/../../../../../H-i686-pc-linux-gnu/nios2-elf/lib/mno-hw-mul/libc.a(lib_a-fflush.o)
 .debug_aranges
                0x00000768       0x20 /opt/altera/nios2eds/bin/gnu/H-i686-pc-linux-gnu/bin/../lib/gcc/nios2-elf/4.7.3/../../../../../H-i686-pc-linux-gnu/nios2-elf/lib/mno-hw-mul/libc.a(lib_a-findfp.o)
 .debug_aranges
                0x00000788       0x20 /opt/altera/nios2eds/bin/gnu/H-i686-pc-linux-gnu/bin/../lib/gcc/nios2-elf/4.7.3/../../../../../H-i686-pc-linux-gnu/nios2-elf/lib/mno-hw-mul/libc.a(lib_a-freer.o)
 .debug_aranges
                0x000007a8       0x20 /opt/altera/nios2eds/bin/gnu/H-i686-pc-linux-gnu/bin/../lib/gcc/nios2-elf/4.7.3/../../../../../H-i686-pc-linux-gnu/nios2-elf/lib/mno-hw-mul/libc.a(lib_a-fvwrite.o)
 .debug_aranges
                0x000007c8       0x20 /opt/altera/nios2eds/bin/gnu/H-i686-pc-linux-gnu/bin/../lib/gcc/nios2-elf/4.7.3/../../../../../H-i686-pc-linux-gnu/nios2-elf/lib/mno-hw-mul/libc.a(lib_a-fwalk.o)
 .debug_aranges
                0x000007e8       0x18 /opt/altera/nios2eds/bin/gnu/H-i686-pc-linux-gnu/bin/../lib/gcc/nios2-elf/4.7.3/../../../../../H-i686-pc-linux-gnu/nios2-elf/lib/mno-hw-mul/libc.a(lib_a-int_errno.o)
 .debug_aranges
                0x00000800       0x20 /opt/altera/nios2eds/bin/gnu/H-i686-pc-linux-gnu/bin/../lib/gcc/nios2-elf/4.7.3/../../../../../H-i686-pc-linux-gnu/nios2-elf/lib/mno-hw-mul/libc.a(lib_a-locale.o)
 .debug_aranges
                0x00000820       0x20 /opt/altera/nios2eds/bin/gnu/H-i686-pc-linux-gnu/bin/../lib/gcc/nios2-elf/4.7.3/../../../../../H-i686-pc-linux-gnu/nios2-elf/lib/mno-hw-mul/libc.a(lib_a-makebuf.o)
 .debug_aranges
                0x00000840       0x20 /opt/altera/nios2eds/bin/gnu/H-i686-pc-linux-gnu/bin/../lib/gcc/nios2-elf/4.7.3/../../../../../H-i686-pc-linux-gnu/nios2-elf/lib/mno-hw-mul/libc.a(lib_a-memchr.o)
 .debug_aranges
                0x00000860       0x20 /opt/altera/nios2eds/bin/gnu/H-i686-pc-linux-gnu/bin/../lib/gcc/nios2-elf/4.7.3/../../../../../H-i686-pc-linux-gnu/nios2-elf/lib/mno-hw-mul/libc.a(lib_a-memcpy.o)
 .debug_aranges
                0x00000880       0x20 /opt/altera/nios2eds/bin/gnu/H-i686-pc-linux-gnu/bin/../lib/gcc/nios2-elf/4.7.3/../../../../../H-i686-pc-linux-gnu/nios2-elf/lib/mno-hw-mul/libc.a(lib_a-memmove.o)
 .debug_aranges
                0x000008a0       0x20 /opt/altera/nios2eds/bin/gnu/H-i686-pc-linux-gnu/bin/../lib/gcc/nios2-elf/4.7.3/../../../../../H-i686-pc-linux-gnu/nios2-elf/lib/mno-hw-mul/libc.a(lib_a-memset.o)
 .debug_aranges
                0x000008c0       0x20 /opt/altera/nios2eds/bin/gnu/H-i686-pc-linux-gnu/bin/../lib/gcc/nios2-elf/4.7.3/../../../../../H-i686-pc-linux-gnu/nios2-elf/lib/mno-hw-mul/libc.a(lib_a-mprec.o)
 .debug_aranges
                0x000008e0       0x20 /opt/altera/nios2eds/bin/gnu/H-i686-pc-linux-gnu/bin/../lib/gcc/nios2-elf/4.7.3/../../../../../H-i686-pc-linux-gnu/nios2-elf/lib/mno-hw-mul/libc.a(lib_a-reallocr.o)
 .debug_aranges
                0x00000900       0x20 /opt/altera/nios2eds/bin/gnu/H-i686-pc-linux-gnu/bin/../lib/gcc/nios2-elf/4.7.3/../../../../../H-i686-pc-linux-gnu/nios2-elf/lib/mno-hw-mul/libc.a(lib_a-s_isinfd.o)
 .debug_aranges
                0x00000920       0x20 /opt/altera/nios2eds/bin/gnu/H-i686-pc-linux-gnu/bin/../lib/gcc/nios2-elf/4.7.3/../../../../../H-i686-pc-linux-gnu/nios2-elf/lib/mno-hw-mul/libc.a(lib_a-s_isnand.o)
 .debug_aranges
                0x00000940       0x20 /opt/altera/nios2eds/bin/gnu/H-i686-pc-linux-gnu/bin/../lib/gcc/nios2-elf/4.7.3/../../../../../H-i686-pc-linux-gnu/nios2-elf/lib/mno-hw-mul/libc.a(lib_a-signal.o)
 .debug_aranges
                0x00000960       0x20 /opt/altera/nios2eds/bin/gnu/H-i686-pc-linux-gnu/bin/../lib/gcc/nios2-elf/4.7.3/../../../../../H-i686-pc-linux-gnu/nios2-elf/lib/mno-hw-mul/libc.a(lib_a-signalr.o)
 .debug_aranges
                0x00000980       0x20 /opt/altera/nios2eds/bin/gnu/H-i686-pc-linux-gnu/bin/../lib/gcc/nios2-elf/4.7.3/../../../../../H-i686-pc-linux-gnu/nios2-elf/lib/mno-hw-mul/libc.a(lib_a-stdio.o)
 .debug_aranges
                0x000009a0       0x20 /opt/altera/nios2eds/bin/gnu/H-i686-pc-linux-gnu/bin/../lib/gcc/nios2-elf/4.7.3/../../../../../H-i686-pc-linux-gnu/nios2-elf/lib/mno-hw-mul/libc.a(lib_a-strcmp.o)
 .debug_aranges
                0x000009c0       0x20 /opt/altera/nios2eds/bin/gnu/H-i686-pc-linux-gnu/bin/../lib/gcc/nios2-elf/4.7.3/../../../../../H-i686-pc-linux-gnu/nios2-elf/lib/mno-hw-mul/libc.a(lib_a-vfiprintf.o)
 .debug_aranges
                0x000009e0       0x20 /opt/altera/nios2eds/bin/gnu/H-i686-pc-linux-gnu/bin/../lib/gcc/nios2-elf/4.7.3/../../../../../H-i686-pc-linux-gnu/nios2-elf/lib/mno-hw-mul/libc.a(lib_a-writer.o)
 .debug_aranges
                0x00000a00       0x20 /opt/altera/nios2eds/bin/gnu/H-i686-pc-linux-gnu/bin/../lib/gcc/nios2-elf/4.7.3/../../../../../H-i686-pc-linux-gnu/nios2-elf/lib/mno-hw-mul/libc.a(lib_a-callocr.o)
 .debug_aranges
                0x00000a20       0x20 /opt/altera/nios2eds/bin/gnu/H-i686-pc-linux-gnu/bin/../lib/gcc/nios2-elf/4.7.3/../../../../../H-i686-pc-linux-gnu/nios2-elf/lib/mno-hw-mul/libc.a(lib_a-closer.o)
 .debug_aranges
                0x00000a40       0x20 /opt/altera/nios2eds/bin/gnu/H-i686-pc-linux-gnu/bin/../lib/gcc/nios2-elf/4.7.3/../../../../../H-i686-pc-linux-gnu/nios2-elf/lib/mno-hw-mul/libc.a(lib_a-fclose.o)
 .debug_aranges
                0x00000a60       0x20 /opt/altera/nios2eds/bin/gnu/H-i686-pc-linux-gnu/bin/../lib/gcc/nios2-elf/4.7.3/../../../../../H-i686-pc-linux-gnu/nios2-elf/lib/mno-hw-mul/libc.a(lib_a-fstatr.o)
 .debug_aranges
                0x00000a80       0x20 /opt/altera/nios2eds/bin/gnu/H-i686-pc-linux-gnu/bin/../lib/gcc/nios2-elf/4.7.3/../../../../../H-i686-pc-linux-gnu/nios2-elf/lib/mno-hw-mul/libc.a(lib_a-isattyr.o)
 .debug_aranges
                0x00000aa0       0x20 /opt/altera/nios2eds/bin/gnu/H-i686-pc-linux-gnu/bin/../lib/gcc/nios2-elf/4.7.3/../../../../../H-i686-pc-linux-gnu/nios2-elf/lib/mno-hw-mul/libc.a(lib_a-lseekr.o)
 .debug_aranges
                0x00000ac0       0x20 /opt/altera/nios2eds/bin/gnu/H-i686-pc-linux-gnu/bin/../lib/gcc/nios2-elf/4.7.3/../../../../../H-i686-pc-linux-gnu/nios2-elf/lib/mno-hw-mul/libc.a(lib_a-readr.o)
 .debug_aranges
                0x00000ae0       0x20 /opt/altera/nios2eds/bin/gnu/H-i686-pc-linux-gnu/bin/../lib/gcc/nios2-elf/4.7.3/mno-hw-mul/libgcc.a(_udivdi3.o)
 .debug_aranges
                0x00000b00       0x20 /opt/altera/nios2eds/bin/gnu/H-i686-pc-linux-gnu/bin/../lib/gcc/nios2-elf/4.7.3/mno-hw-mul/libgcc.a(_umoddi3.o)
 .debug_aranges
                0x00000b20       0x20 /opt/altera/nios2eds/bin/gnu/H-i686-pc-linux-gnu/bin/../lib/gcc/nios2-elf/4.7.3/mno-hw-mul/libgcc.a(_ne_df.o)
 .debug_aranges
                0x00000b40       0x20 /opt/altera/nios2eds/bin/gnu/H-i686-pc-linux-gnu/bin/../lib/gcc/nios2-elf/4.7.3/mno-hw-mul/libgcc.a(_gt_df.o)
 .debug_aranges
                0x00000b60       0x20 /opt/altera/nios2eds/bin/gnu/H-i686-pc-linux-gnu/bin/../lib/gcc/nios2-elf/4.7.3/mno-hw-mul/libgcc.a(_lt_df.o)
 .debug_aranges
                0x00000b80       0x20 /opt/altera/nios2eds/bin/gnu/H-i686-pc-linux-gnu/bin/../lib/gcc/nios2-elf/4.7.3/mno-hw-mul/libgcc.a(_usi_to_df.o)
 .debug_aranges
                0x00000ba0       0x20 ../legocar_firmware_microc_bsp//libucosii_bsp.a(alt_close.o)
 .debug_aranges
                0x00000bc0       0x20 ../legocar_firmware_microc_bsp//libucosii_bsp.a(alt_dcache_flush.o)
 .debug_aranges
                0x00000be0       0x20 ../legocar_firmware_microc_bsp//libucosii_bsp.a(alt_dcache_flush_all.o)
 .debug_aranges
                0x00000c00       0x20 ../legocar_firmware_microc_bsp//libucosii_bsp.a(alt_dev.o)
 .debug_aranges
                0x00000c20       0x18 ../legocar_firmware_microc_bsp//libucosii_bsp.a(alt_errno.o)
 .debug_aranges
                0x00000c38       0x20 ../legocar_firmware_microc_bsp//libucosii_bsp.a(alt_exit.o)
 .debug_aranges
                0x00000c58       0x20 ../legocar_firmware_microc_bsp//libucosii_bsp.a(alt_flash_dev.o)
 .debug_aranges
                0x00000c78       0x20 ../legocar_firmware_microc_bsp//libucosii_bsp.a(alt_fstat.o)
 .debug_aranges
                0x00000c98       0x20 ../legocar_firmware_microc_bsp//libucosii_bsp.a(alt_getpid.o)
 .debug_aranges
                0x00000cb8       0x20 ../legocar_firmware_microc_bsp//libucosii_bsp.a(alt_isatty.o)
 .debug_aranges
                0x00000cd8       0x20 ../legocar_firmware_microc_bsp//libucosii_bsp.a(alt_kill.o)
 .debug_aranges
                0x00000cf8       0x20 ../legocar_firmware_microc_bsp//libucosii_bsp.a(alt_load.o)
 .debug_aranges
                0x00000d18       0x20 ../legocar_firmware_microc_bsp//libucosii_bsp.a(alt_lseek.o)
 .debug_aranges
                0x00000d38       0x20 ../legocar_firmware_microc_bsp//libucosii_bsp.a(alt_main.o)
 .debug_aranges
                0x00000d58       0x20 ../legocar_firmware_microc_bsp//libucosii_bsp.a(alt_read.o)
 .debug_aranges
                0x00000d78       0x20 ../legocar_firmware_microc_bsp//libucosii_bsp.a(alt_release_fd.o)
 .debug_aranges
                0x00000d98       0x20 ../legocar_firmware_microc_bsp//libucosii_bsp.a(alt_sbrk.o)
 .debug_aranges
                0x00000db8       0x20 ../legocar_firmware_microc_bsp//libucosii_bsp.a(alt_tick.o)
 .debug_aranges
                0x00000dd8       0x20 ../legocar_firmware_microc_bsp//libucosii_bsp.a(alt_usleep.o)
 .debug_aranges
                0x00000df8       0x20 ../legocar_firmware_microc_bsp//libucosii_bsp.a(alt_write.o)
 .debug_aranges
                0x00000e18       0x20 ../legocar_firmware_microc_bsp//libucosii_bsp.a(alt_env_lock.o)
 .debug_aranges
                0x00000e38       0x20 ../legocar_firmware_microc_bsp//libucosii_bsp.a(alt_malloc_lock.o)
 .debug_aranges
                0x00000e58       0x20 ../legocar_firmware_microc_bsp//libucosii_bsp.a(os_core.o)
 .debug_aranges
                0x00000e78       0x20 ../legocar_firmware_microc_bsp//libucosii_bsp.a(os_dbg.o)
 .debug_aranges
                0x00000e98       0x20 ../legocar_firmware_microc_bsp//libucosii_bsp.a(os_flag.o)
 .debug_aranges
                0x00000eb8       0x20 ../legocar_firmware_microc_bsp//libucosii_bsp.a(os_mem.o)
 .debug_aranges
                0x00000ed8       0x20 ../legocar_firmware_microc_bsp//libucosii_bsp.a(os_q.o)
 .debug_aranges
                0x00000ef8       0x20 ../legocar_firmware_microc_bsp//libucosii_bsp.a(os_sem.o)
 .debug_aranges
                0x00000f18       0x20 ../legocar_firmware_microc_bsp//libucosii_bsp.a(os_task.o)
 .debug_aranges
                0x00000f38       0x20 ../legocar_firmware_microc_bsp//libucosii_bsp.a(os_time.o)
 .debug_aranges
                0x00000f58       0x20 ../legocar_firmware_microc_bsp//libucosii_bsp.a(alt_sys_init.o)
 .debug_aranges
                0x00000f78       0x20 ../legocar_firmware_microc_bsp//libucosii_bsp.a(altera_avalon_epcs_flash_controller.o)
 .debug_aranges
                0x00000f98       0x20 ../legocar_firmware_microc_bsp//libucosii_bsp.a(altera_avalon_jtag_uart_fd.o)
 .debug_aranges
                0x00000fb8       0x20 ../legocar_firmware_microc_bsp//libucosii_bsp.a(altera_avalon_jtag_uart_init.o)
 .debug_aranges
                0x00000fd8       0x20 ../legocar_firmware_microc_bsp//libucosii_bsp.a(altera_avalon_jtag_uart_ioctl.o)
 .debug_aranges
                0x00000ff8       0x20 ../legocar_firmware_microc_bsp//libucosii_bsp.a(altera_avalon_jtag_uart_read.o)
 .debug_aranges
                0x00001018       0x20 ../legocar_firmware_microc_bsp//libucosii_bsp.a(altera_avalon_jtag_uart_write.o)
 .debug_aranges
                0x00001038       0x20 ../legocar_firmware_microc_bsp//libucosii_bsp.a(altera_avalon_timer_sc.o)
 .debug_aranges
                0x00001058       0x20 ../legocar_firmware_microc_bsp//libucosii_bsp.a(altera_avalon_uart_fd.o)
 .debug_aranges
                0x00001078       0x20 ../legocar_firmware_microc_bsp//libucosii_bsp.a(altera_avalon_uart_init.o)
 .debug_aranges
                0x00001098       0x20 ../legocar_firmware_microc_bsp//libucosii_bsp.a(altera_avalon_uart_read.o)
 .debug_aranges
                0x000010b8       0x20 ../legocar_firmware_microc_bsp//libucosii_bsp.a(altera_avalon_uart_write.o)
 .debug_aranges
                0x000010d8       0x20 ../legocar_firmware_microc_bsp//libucosii_bsp.a(epcs_commands.o)
 .debug_aranges
                0x000010f8       0x20 ../legocar_firmware_microc_bsp//libucosii_bsp.a(alt_alarm_start.o)
 .debug_aranges
                0x00001118       0x20 ../legocar_firmware_microc_bsp//libucosii_bsp.a(alt_busy_sleep.o)
 .debug_aranges
                0x00001138       0x20 ../legocar_firmware_microc_bsp//libucosii_bsp.a(alt_dev_llist_insert.o)
 .debug_aranges
                0x00001158       0x20 ../legocar_firmware_microc_bsp//libucosii_bsp.a(alt_do_ctors.o)
 .debug_aranges
                0x00001178       0x20 ../legocar_firmware_microc_bsp//libucosii_bsp.a(alt_do_dtors.o)
 .debug_aranges
                0x00001198       0x20 ../legocar_firmware_microc_bsp//libucosii_bsp.a(alt_find_dev.o)
 .debug_aranges
                0x000011b8       0x20 ../legocar_firmware_microc_bsp//libucosii_bsp.a(alt_icache_flush_all.o)
 .debug_aranges
                0x000011d8       0x20 ../legocar_firmware_microc_bsp//libucosii_bsp.a(alt_iic.o)
 .debug_aranges
                0x000011f8       0x20 ../legocar_firmware_microc_bsp//libucosii_bsp.a(alt_iic_isr_register.o)
 .debug_aranges
                0x00001218       0x20 ../legocar_firmware_microc_bsp//libucosii_bsp.a(alt_io_redirect.o)
 .debug_aranges
                0x00001238       0x30 ../legocar_firmware_microc_bsp//libucosii_bsp.a(alt_irq_entry.o)
 .debug_aranges
                0x00001268       0x20 ../legocar_firmware_microc_bsp//libucosii_bsp.a(alt_irq_handler.o)
 .debug_aranges
                0x00001288       0x18 ../legocar_firmware_microc_bsp//libucosii_bsp.a(alt_irq_vars.o)
 .debug_aranges
                0x000012a0       0x20 ../legocar_firmware_microc_bsp//libucosii_bsp.a(alt_open.o)
 .debug_aranges
                0x000012c0       0x20 ../legocar_firmware_microc_bsp//libucosii_bsp.a(altera_nios2_irq.o)
 .debug_aranges
                0x000012e0       0x20 ../legocar_firmware_microc_bsp//libucosii_bsp.a(os_cpu_a.o)
 .debug_aranges
                0x00001300       0x20 ../legocar_firmware_microc_bsp//libucosii_bsp.a(os_cpu_c.o)
 .debug_aranges
                0x00001320       0x20 ../legocar_firmware_microc_bsp//libucosii_bsp.a(altera_avalon_spi.o)
 .debug_aranges
                0x00001340       0x38 ../legocar_firmware_microc_bsp//libucosii_bsp.a(alt_exception_entry.o)
 .debug_aranges
                0x00001378       0x20 ../legocar_firmware_microc_bsp//libucosii_bsp.a(alt_find_file.o)
 .debug_aranges
                0x00001398       0x20 ../legocar_firmware_microc_bsp//libucosii_bsp.a(alt_get_fd.o)
 .debug_aranges
                0x000013b8       0x20 /opt/altera/nios2eds/bin/gnu/H-i686-pc-linux-gnu/bin/../lib/gcc/nios2-elf/4.7.3/../../../../../H-i686-pc-linux-gnu/nios2-elf/lib/mno-hw-mul/libc.a(lib_a-atexit.o)
 .debug_aranges
                0x000013d8       0x20 /opt/altera/nios2eds/bin/gnu/H-i686-pc-linux-gnu/bin/../lib/gcc/nios2-elf/4.7.3/../../../../../H-i686-pc-linux-gnu/nios2-elf/lib/mno-hw-mul/libc.a(lib_a-exit.o)
 .debug_aranges
                0x000013f8       0x20 /opt/altera/nios2eds/bin/gnu/H-i686-pc-linux-gnu/bin/../lib/gcc/nios2-elf/4.7.3/../../../../../H-i686-pc-linux-gnu/nios2-elf/lib/mno-hw-mul/libc.a(lib_a-memcmp.o)
 .debug_aranges
                0x00001418       0x20 /opt/altera/nios2eds/bin/gnu/H-i686-pc-linux-gnu/bin/../lib/gcc/nios2-elf/4.7.3/../../../../../H-i686-pc-linux-gnu/nios2-elf/lib/mno-hw-mul/libc.a(lib_a-__atexit.o)
 .debug_aranges
                0x00001438       0x20 /opt/altera/nios2eds/bin/gnu/H-i686-pc-linux-gnu/bin/../lib/gcc/nios2-elf/4.7.3/../../../../../H-i686-pc-linux-gnu/nios2-elf/lib/mno-hw-mul/libc.a(lib_a-__call_atexit.o)

.debug_pubnames
 *(.debug_pubnames)

.debug_info     0x00000000    0x39ec9
 *(.debug_info .gnu.linkonce.wi.*)
 .debug_info    0x00000000       0x91 ../legocar_firmware_microc_bsp//obj/HAL/src/crt0.o
 .debug_info    0x00000091      0x399 obj/default/ins.o
 .debug_info    0x0000042a      0x371 obj/default/legocar.o
 .debug_info    0x0000079b      0x387 obj/default/main.o
 .debug_info    0x00000b22      0x285 obj/default/pwm_motor.o
 .debug_info    0x00000da7      0x593 obj/default/terasic_lib/I2C.o
 .debug_info    0x0000133a      0x2e9 obj/default/terasic_lib/accelerometer_adxl345_spi.o
 .debug_info    0x00001623      0x191 obj/default/terasic_lib/adc_spi_read.o
 .debug_info    0x000017b4      0xc3b obj/default/terasic_lib/flash.o
 .debug_info    0x000023ef      0x347 obj/default/terasic_lib/terasic_spi.o
 .debug_info    0x00002736      0x217 obj/default/wheel_direction.o
 .debug_info    0x0000294d       0xc5 /opt/altera/nios2eds/bin/gnu/H-i686-pc-linux-gnu/bin/../lib/gcc/nios2-elf/4.7.3/mno-hw-mul/libgcc.a(_fixunsdfsi.o)
 .debug_info    0x00002a12      0x57a /opt/altera/nios2eds/bin/gnu/H-i686-pc-linux-gnu/bin/../lib/gcc/nios2-elf/4.7.3/mno-hw-mul/libgcc.a(_addsub_sf.o)
 .debug_info    0x00002f8c      0x45d /opt/altera/nios2eds/bin/gnu/H-i686-pc-linux-gnu/bin/../lib/gcc/nios2-elf/4.7.3/mno-hw-mul/libgcc.a(_mul_sf.o)
 .debug_info    0x000033e9      0x314 /opt/altera/nios2eds/bin/gnu/H-i686-pc-linux-gnu/bin/../lib/gcc/nios2-elf/4.7.3/mno-hw-mul/libgcc.a(_gt_sf.o)
 .debug_info    0x000036fd      0x314 /opt/altera/nios2eds/bin/gnu/H-i686-pc-linux-gnu/bin/../lib/gcc/nios2-elf/4.7.3/mno-hw-mul/libgcc.a(_ge_sf.o)
 .debug_info    0x00003a11      0x314 /opt/altera/nios2eds/bin/gnu/H-i686-pc-linux-gnu/bin/../lib/gcc/nios2-elf/4.7.3/mno-hw-mul/libgcc.a(_le_sf.o)
 .debug_info    0x00003d25      0x2ff /opt/altera/nios2eds/bin/gnu/H-i686-pc-linux-gnu/bin/../lib/gcc/nios2-elf/4.7.3/mno-hw-mul/libgcc.a(_sf_to_si.o)
 .debug_info    0x00004024      0x2b7 /opt/altera/nios2eds/bin/gnu/H-i686-pc-linux-gnu/bin/../lib/gcc/nios2-elf/4.7.3/mno-hw-mul/libgcc.a(_sf_to_df.o)
 .debug_info    0x000042db      0x155 /opt/altera/nios2eds/bin/gnu/H-i686-pc-linux-gnu/bin/../lib/gcc/nios2-elf/4.7.3/mno-hw-mul/libgcc.a(_thenan_sf.o)
 .debug_info    0x00004430      0x288 /opt/altera/nios2eds/bin/gnu/H-i686-pc-linux-gnu/bin/../lib/gcc/nios2-elf/4.7.3/mno-hw-mul/libgcc.a(_usi_to_sf.o)
 .debug_info    0x000046b8      0x588 /opt/altera/nios2eds/bin/gnu/H-i686-pc-linux-gnu/bin/../lib/gcc/nios2-elf/4.7.3/mno-hw-mul/libgcc.a(_addsub_df.o)
 .debug_info    0x00004c40      0x519 /opt/altera/nios2eds/bin/gnu/H-i686-pc-linux-gnu/bin/../lib/gcc/nios2-elf/4.7.3/mno-hw-mul/libgcc.a(_mul_df.o)
 .debug_info    0x00005159      0x443 /opt/altera/nios2eds/bin/gnu/H-i686-pc-linux-gnu/bin/../lib/gcc/nios2-elf/4.7.3/mno-hw-mul/libgcc.a(_div_df.o)
 .debug_info    0x0000559c      0x320 /opt/altera/nios2eds/bin/gnu/H-i686-pc-linux-gnu/bin/../lib/gcc/nios2-elf/4.7.3/mno-hw-mul/libgcc.a(_eq_df.o)
 .debug_info    0x000058bc      0x320 /opt/altera/nios2eds/bin/gnu/H-i686-pc-linux-gnu/bin/../lib/gcc/nios2-elf/4.7.3/mno-hw-mul/libgcc.a(_ge_df.o)
 .debug_info    0x00005bdc      0x261 /opt/altera/nios2eds/bin/gnu/H-i686-pc-linux-gnu/bin/../lib/gcc/nios2-elf/4.7.3/mno-hw-mul/libgcc.a(_si_to_df.o)
 .debug_info    0x00005e3d      0x30b /opt/altera/nios2eds/bin/gnu/H-i686-pc-linux-gnu/bin/../lib/gcc/nios2-elf/4.7.3/mno-hw-mul/libgcc.a(_df_to_si.o)
 .debug_info    0x00006148      0x209 /opt/altera/nios2eds/bin/gnu/H-i686-pc-linux-gnu/bin/../lib/gcc/nios2-elf/4.7.3/mno-hw-mul/libgcc.a(_make_df.o)
 .debug_info    0x00006351      0x2c8 /opt/altera/nios2eds/bin/gnu/H-i686-pc-linux-gnu/bin/../lib/gcc/nios2-elf/4.7.3/mno-hw-mul/libgcc.a(_df_to_sf.o)
 .debug_info    0x00006619      0x155 /opt/altera/nios2eds/bin/gnu/H-i686-pc-linux-gnu/bin/../lib/gcc/nios2-elf/4.7.3/mno-hw-mul/libgcc.a(_thenan_df.o)
 .debug_info    0x0000676e      0x289 /opt/altera/nios2eds/bin/gnu/H-i686-pc-linux-gnu/bin/../lib/gcc/nios2-elf/4.7.3/mno-hw-mul/libgcc.a(lib2-divmod.o)
 .debug_info    0x000069f7      0x1eb /opt/altera/nios2eds/bin/gnu/H-i686-pc-linux-gnu/bin/../lib/gcc/nios2-elf/4.7.3/mno-hw-mul/libgcc.a(_muldi3.o)
 .debug_info    0x00006be2      0x123 /opt/altera/nios2eds/bin/gnu/H-i686-pc-linux-gnu/bin/../lib/gcc/nios2-elf/4.7.3/mno-hw-mul/libgcc.a(_clzsi2.o)
 .debug_info    0x00006d05      0x2f2 /opt/altera/nios2eds/bin/gnu/H-i686-pc-linux-gnu/bin/../lib/gcc/nios2-elf/4.7.3/mno-hw-mul/libgcc.a(_pack_sf.o)
 .debug_info    0x00006ff7      0x26a /opt/altera/nios2eds/bin/gnu/H-i686-pc-linux-gnu/bin/../lib/gcc/nios2-elf/4.7.3/mno-hw-mul/libgcc.a(_unpack_sf.o)
 .debug_info    0x00007261      0x226 /opt/altera/nios2eds/bin/gnu/H-i686-pc-linux-gnu/bin/../lib/gcc/nios2-elf/4.7.3/mno-hw-mul/libgcc.a(_fpcmp_parts_sf.o)
 .debug_info    0x00007487      0x20a /opt/altera/nios2eds/bin/gnu/H-i686-pc-linux-gnu/bin/../lib/gcc/nios2-elf/4.7.3/mno-hw-mul/libgcc.a(_make_sf.o)
 .debug_info    0x00007691      0x2f7 /opt/altera/nios2eds/bin/gnu/H-i686-pc-linux-gnu/bin/../lib/gcc/nios2-elf/4.7.3/mno-hw-mul/libgcc.a(_pack_df.o)
 .debug_info    0x00007988      0x265 /opt/altera/nios2eds/bin/gnu/H-i686-pc-linux-gnu/bin/../lib/gcc/nios2-elf/4.7.3/mno-hw-mul/libgcc.a(_unpack_df.o)
 .debug_info    0x00007bed      0x226 /opt/altera/nios2eds/bin/gnu/H-i686-pc-linux-gnu/bin/../lib/gcc/nios2-elf/4.7.3/mno-hw-mul/libgcc.a(_fpcmp_parts_df.o)
 .debug_info    0x00007e13       0xb8 /opt/altera/nios2eds/bin/gnu/H-i686-pc-linux-gnu/bin/../lib/gcc/nios2-elf/4.7.3/mno-hw-mul/libgcc.a(lib2-mul.o)
 .debug_info    0x00007ecb      0x185 /opt/altera/nios2eds/bin/gnu/H-i686-pc-linux-gnu/bin/../lib/gcc/nios2-elf/4.7.3/mno-hw-mul/libgcc.a(_lshrdi3.o)
 .debug_info    0x00008050      0x185 /opt/altera/nios2eds/bin/gnu/H-i686-pc-linux-gnu/bin/../lib/gcc/nios2-elf/4.7.3/mno-hw-mul/libgcc.a(_ashldi3.o)
 .debug_info    0x000081d5       0xac /opt/altera/nios2eds/bin/gnu/H-i686-pc-linux-gnu/bin/../lib/gcc/nios2-elf/4.7.3/mno-hw-mul/libgcc.a(_clz.o)
 .debug_info    0x00008281      0xa3d /opt/altera/nios2eds/bin/gnu/H-i686-pc-linux-gnu/bin/../lib/gcc/nios2-elf/4.7.3/../../../../../H-i686-pc-linux-gnu/nios2-elf/lib/mno-hw-mul/libc.a(lib_a-assert.o)
 .debug_info    0x00008cbe      0xa66 /opt/altera/nios2eds/bin/gnu/H-i686-pc-linux-gnu/bin/../lib/gcc/nios2-elf/4.7.3/../../../../../H-i686-pc-linux-gnu/nios2-elf/lib/mno-hw-mul/libc.a(lib_a-fiprintf.o)
 .debug_info    0x00009724      0x938 /opt/altera/nios2eds/bin/gnu/H-i686-pc-linux-gnu/bin/../lib/gcc/nios2-elf/4.7.3/../../../../../H-i686-pc-linux-gnu/nios2-elf/lib/mno-hw-mul/libc.a(lib_a-impure.o)
 .debug_info    0x0000a05c      0x9c9 /opt/altera/nios2eds/bin/gnu/H-i686-pc-linux-gnu/bin/../lib/gcc/nios2-elf/4.7.3/../../../../../H-i686-pc-linux-gnu/nios2-elf/lib/mno-hw-mul/libc.a(lib_a-malloc.o)
 .debug_info    0x0000aa25      0xe44 /opt/altera/nios2eds/bin/gnu/H-i686-pc-linux-gnu/bin/../lib/gcc/nios2-elf/4.7.3/../../../../../H-i686-pc-linux-gnu/nios2-elf/lib/mno-hw-mul/libc.a(lib_a-mallocr.o)
 .debug_info    0x0000b869      0xa6c /opt/altera/nios2eds/bin/gnu/H-i686-pc-linux-gnu/bin/../lib/gcc/nios2-elf/4.7.3/../../../../../H-i686-pc-linux-gnu/nios2-elf/lib/mno-hw-mul/libc.a(lib_a-printf.o)
 .debug_info    0x0000c2d5      0xab7 /opt/altera/nios2eds/bin/gnu/H-i686-pc-linux-gnu/bin/../lib/gcc/nios2-elf/4.7.3/../../../../../H-i686-pc-linux-gnu/nios2-elf/lib/mno-hw-mul/libc.a(lib_a-puts.o)
 .debug_info    0x0000cd8c      0x9a3 /opt/altera/nios2eds/bin/gnu/H-i686-pc-linux-gnu/bin/../lib/gcc/nios2-elf/4.7.3/../../../../../H-i686-pc-linux-gnu/nios2-elf/lib/mno-hw-mul/libc.a(lib_a-sbrkr.o)
 .debug_info    0x0000d72f       0xdf /opt/altera/nios2eds/bin/gnu/H-i686-pc-linux-gnu/bin/../lib/gcc/nios2-elf/4.7.3/../../../../../H-i686-pc-linux-gnu/nios2-elf/lib/mno-hw-mul/libc.a(lib_a-strlen.o)
 .debug_info    0x0000d80e      0x9d9 /opt/altera/nios2eds/bin/gnu/H-i686-pc-linux-gnu/bin/../lib/gcc/nios2-elf/4.7.3/../../../../../H-i686-pc-linux-gnu/nios2-elf/lib/mno-hw-mul/libc.a(lib_a-vfiprintfr_1.o)
 .debug_info    0x0000e1e7     0x195a /opt/altera/nios2eds/bin/gnu/H-i686-pc-linux-gnu/bin/../lib/gcc/nios2-elf/4.7.3/../../../../../H-i686-pc-linux-gnu/nios2-elf/lib/mno-hw-mul/libc.a(lib_a-vfprintf.o)
 .debug_info    0x0000fb41      0x9d4 /opt/altera/nios2eds/bin/gnu/H-i686-pc-linux-gnu/bin/../lib/gcc/nios2-elf/4.7.3/../../../../../H-i686-pc-linux-gnu/nios2-elf/lib/mno-hw-mul/libc.a(lib_a-wsetup.o)
 .debug_info    0x00010515       0xdf /opt/altera/nios2eds/bin/gnu/H-i686-pc-linux-gnu/bin/../lib/gcc/nios2-elf/4.7.3/../../../../../H-i686-pc-linux-gnu/nios2-elf/lib/mno-hw-mul/libc.a(lib_a-abort.o)
 .debug_info    0x000105f4     0x1409 /opt/altera/nios2eds/bin/gnu/H-i686-pc-linux-gnu/bin/../lib/gcc/nios2-elf/4.7.3/../../../../../H-i686-pc-linux-gnu/nios2-elf/lib/mno-hw-mul/libc.a(lib_a-dtoa.o)
 .debug_info    0x000119fd      0xad0 /opt/altera/nios2eds/bin/gnu/H-i686-pc-linux-gnu/bin/../lib/gcc/nios2-elf/4.7.3/../../../../../H-i686-pc-linux-gnu/nios2-elf/lib/mno-hw-mul/libc.a(lib_a-fflush.o)
 .debug_info    0x000124cd      0xd6e /opt/altera/nios2eds/bin/gnu/H-i686-pc-linux-gnu/bin/../lib/gcc/nios2-elf/4.7.3/../../../../../H-i686-pc-linux-gnu/nios2-elf/lib/mno-hw-mul/libc.a(lib_a-findfp.o)
 .debug_info    0x0001323b      0xcf9 /opt/altera/nios2eds/bin/gnu/H-i686-pc-linux-gnu/bin/../lib/gcc/nios2-elf/4.7.3/../../../../../H-i686-pc-linux-gnu/nios2-elf/lib/mno-hw-mul/libc.a(lib_a-freer.o)
 .debug_info    0x00013f34      0xd05 /opt/altera/nios2eds/bin/gnu/H-i686-pc-linux-gnu/bin/../lib/gcc/nios2-elf/4.7.3/../../../../../H-i686-pc-linux-gnu/nios2-elf/lib/mno-hw-mul/libc.a(lib_a-fvwrite.o)
 .debug_info    0x00014c39      0xb72 /opt/altera/nios2eds/bin/gnu/H-i686-pc-linux-gnu/bin/../lib/gcc/nios2-elf/4.7.3/../../../../../H-i686-pc-linux-gnu/nios2-elf/lib/mno-hw-mul/libc.a(lib_a-fwalk.o)
 .debug_info    0x000157ab       0x84 /opt/altera/nios2eds/bin/gnu/H-i686-pc-linux-gnu/bin/../lib/gcc/nios2-elf/4.7.3/../../../../../H-i686-pc-linux-gnu/nios2-elf/lib/mno-hw-mul/libc.a(lib_a-int_errno.o)
 .debug_info    0x0001582f      0xc10 /opt/altera/nios2eds/bin/gnu/H-i686-pc-linux-gnu/bin/../lib/gcc/nios2-elf/4.7.3/../../../../../H-i686-pc-linux-gnu/nios2-elf/lib/mno-hw-mul/libc.a(lib_a-locale.o)
 .debug_info    0x0001643f      0xbc2 /opt/altera/nios2eds/bin/gnu/H-i686-pc-linux-gnu/bin/../lib/gcc/nios2-elf/4.7.3/../../../../../H-i686-pc-linux-gnu/nios2-elf/lib/mno-hw-mul/libc.a(lib_a-makebuf.o)
 .debug_info    0x00017001      0x13e /opt/altera/nios2eds/bin/gnu/H-i686-pc-linux-gnu/bin/../lib/gcc/nios2-elf/4.7.3/../../../../../H-i686-pc-linux-gnu/nios2-elf/lib/mno-hw-mul/libc.a(lib_a-memchr.o)
 .debug_info    0x0001713f      0x10f /opt/altera/nios2eds/bin/gnu/H-i686-pc-linux-gnu/bin/../lib/gcc/nios2-elf/4.7.3/../../../../../H-i686-pc-linux-gnu/nios2-elf/lib/mno-hw-mul/libc.a(lib_a-memcpy.o)
 .debug_info    0x0001724e      0x147 /opt/altera/nios2eds/bin/gnu/H-i686-pc-linux-gnu/bin/../lib/gcc/nios2-elf/4.7.3/../../../../../H-i686-pc-linux-gnu/nios2-elf/lib/mno-hw-mul/libc.a(lib_a-memmove.o)
 .debug_info    0x00017395      0x117 /opt/altera/nios2eds/bin/gnu/H-i686-pc-linux-gnu/bin/../lib/gcc/nios2-elf/4.7.3/../../../../../H-i686-pc-linux-gnu/nios2-elf/lib/mno-hw-mul/libc.a(lib_a-memset.o)
 .debug_info    0x000174ac     0x1734 /opt/altera/nios2eds/bin/gnu/H-i686-pc-linux-gnu/bin/../lib/gcc/nios2-elf/4.7.3/../../../../../H-i686-pc-linux-gnu/nios2-elf/lib/mno-hw-mul/libc.a(lib_a-mprec.o)
 .debug_info    0x00018be0      0xd8e /opt/altera/nios2eds/bin/gnu/H-i686-pc-linux-gnu/bin/../lib/gcc/nios2-elf/4.7.3/../../../../../H-i686-pc-linux-gnu/nios2-elf/lib/mno-hw-mul/libc.a(lib_a-reallocr.o)
 .debug_info    0x0001996e       0xe8 /opt/altera/nios2eds/bin/gnu/H-i686-pc-linux-gnu/bin/../lib/gcc/nios2-elf/4.7.3/../../../../../H-i686-pc-linux-gnu/nios2-elf/lib/mno-hw-mul/libc.a(lib_a-s_isinfd.o)
 .debug_info    0x00019a56       0xe8 /opt/altera/nios2eds/bin/gnu/H-i686-pc-linux-gnu/bin/../lib/gcc/nios2-elf/4.7.3/../../../../../H-i686-pc-linux-gnu/nios2-elf/lib/mno-hw-mul/libc.a(lib_a-s_isnand.o)
 .debug_info    0x00019b3e      0xc3c /opt/altera/nios2eds/bin/gnu/H-i686-pc-linux-gnu/bin/../lib/gcc/nios2-elf/4.7.3/../../../../../H-i686-pc-linux-gnu/nios2-elf/lib/mno-hw-mul/libc.a(lib_a-signal.o)
 .debug_info    0x0001a77a      0xa03 /opt/altera/nios2eds/bin/gnu/H-i686-pc-linux-gnu/bin/../lib/gcc/nios2-elf/4.7.3/../../../../../H-i686-pc-linux-gnu/nios2-elf/lib/mno-hw-mul/libc.a(lib_a-signalr.o)
 .debug_info    0x0001b17d      0xbfd /opt/altera/nios2eds/bin/gnu/H-i686-pc-linux-gnu/bin/../lib/gcc/nios2-elf/4.7.3/../../../../../H-i686-pc-linux-gnu/nios2-elf/lib/mno-hw-mul/libc.a(lib_a-stdio.o)
 .debug_info    0x0001bd7a       0xe1 /opt/altera/nios2eds/bin/gnu/H-i686-pc-linux-gnu/bin/../lib/gcc/nios2-elf/4.7.3/../../../../../H-i686-pc-linux-gnu/nios2-elf/lib/mno-hw-mul/libc.a(lib_a-strcmp.o)
 .debug_info    0x0001be5b     0x11d8 /opt/altera/nios2eds/bin/gnu/H-i686-pc-linux-gnu/bin/../lib/gcc/nios2-elf/4.7.3/../../../../../H-i686-pc-linux-gnu/nios2-elf/lib/mno-hw-mul/libc.a(lib_a-vfiprintf.o)
 .debug_info    0x0001d033      0x9d2 /opt/altera/nios2eds/bin/gnu/H-i686-pc-linux-gnu/bin/../lib/gcc/nios2-elf/4.7.3/../../../../../H-i686-pc-linux-gnu/nios2-elf/lib/mno-hw-mul/libc.a(lib_a-writer.o)
 .debug_info    0x0001da05      0xa8b /opt/altera/nios2eds/bin/gnu/H-i686-pc-linux-gnu/bin/../lib/gcc/nios2-elf/4.7.3/../../../../../H-i686-pc-linux-gnu/nios2-elf/lib/mno-hw-mul/libc.a(lib_a-callocr.o)
 .debug_info    0x0001e490      0x97f /opt/altera/nios2eds/bin/gnu/H-i686-pc-linux-gnu/bin/../lib/gcc/nios2-elf/4.7.3/../../../../../H-i686-pc-linux-gnu/nios2-elf/lib/mno-hw-mul/libc.a(lib_a-closer.o)
 .debug_info    0x0001ee0f      0xa97 /opt/altera/nios2eds/bin/gnu/H-i686-pc-linux-gnu/bin/../lib/gcc/nios2-elf/4.7.3/../../../../../H-i686-pc-linux-gnu/nios2-elf/lib/mno-hw-mul/libc.a(lib_a-fclose.o)
 .debug_info    0x0001f8a6      0xb2f /opt/altera/nios2eds/bin/gnu/H-i686-pc-linux-gnu/bin/../lib/gcc/nios2-elf/4.7.3/../../../../../H-i686-pc-linux-gnu/nios2-elf/lib/mno-hw-mul/libc.a(lib_a-fstatr.o)
 .debug_info    0x000203d5      0x97f /opt/altera/nios2eds/bin/gnu/H-i686-pc-linux-gnu/bin/../lib/gcc/nios2-elf/4.7.3/../../../../../H-i686-pc-linux-gnu/nios2-elf/lib/mno-hw-mul/libc.a(lib_a-isattyr.o)
 .debug_info    0x00020d54      0x9cb /opt/altera/nios2eds/bin/gnu/H-i686-pc-linux-gnu/bin/../lib/gcc/nios2-elf/4.7.3/../../../../../H-i686-pc-linux-gnu/nios2-elf/lib/mno-hw-mul/libc.a(lib_a-lseekr.o)
 .debug_info    0x0002171f      0x9cb /opt/altera/nios2eds/bin/gnu/H-i686-pc-linux-gnu/bin/../lib/gcc/nios2-elf/4.7.3/../../../../../H-i686-pc-linux-gnu/nios2-elf/lib/mno-hw-mul/libc.a(lib_a-readr.o)
 .debug_info    0x000220ea      0x71c /opt/altera/nios2eds/bin/gnu/H-i686-pc-linux-gnu/bin/../lib/gcc/nios2-elf/4.7.3/mno-hw-mul/libgcc.a(_udivdi3.o)
 .debug_info    0x00022806      0x773 /opt/altera/nios2eds/bin/gnu/H-i686-pc-linux-gnu/bin/../lib/gcc/nios2-elf/4.7.3/mno-hw-mul/libgcc.a(_umoddi3.o)
 .debug_info    0x00022f79      0x320 /opt/altera/nios2eds/bin/gnu/H-i686-pc-linux-gnu/bin/../lib/gcc/nios2-elf/4.7.3/mno-hw-mul/libgcc.a(_ne_df.o)
 .debug_info    0x00023299      0x320 /opt/altera/nios2eds/bin/gnu/H-i686-pc-linux-gnu/bin/../lib/gcc/nios2-elf/4.7.3/mno-hw-mul/libgcc.a(_gt_df.o)
 .debug_info    0x000235b9      0x320 /opt/altera/nios2eds/bin/gnu/H-i686-pc-linux-gnu/bin/../lib/gcc/nios2-elf/4.7.3/mno-hw-mul/libgcc.a(_lt_df.o)
 .debug_info    0x000238d9      0x284 /opt/altera/nios2eds/bin/gnu/H-i686-pc-linux-gnu/bin/../lib/gcc/nios2-elf/4.7.3/mno-hw-mul/libgcc.a(_usi_to_df.o)
 .debug_info    0x00023b5d      0x388 ../legocar_firmware_microc_bsp//libucosii_bsp.a(alt_close.o)
 .debug_info    0x00023ee5       0xba ../legocar_firmware_microc_bsp//libucosii_bsp.a(alt_dcache_flush.o)
 .debug_info    0x00023f9f       0x90 ../legocar_firmware_microc_bsp//libucosii_bsp.a(alt_dcache_flush_all.o)
 .debug_info    0x0002402f      0x5dd ../legocar_firmware_microc_bsp//libucosii_bsp.a(alt_dev.o)
 .debug_info    0x0002460c       0xa3 ../legocar_firmware_microc_bsp//libucosii_bsp.a(alt_errno.o)
 .debug_info    0x000246af      0x141 ../legocar_firmware_microc_bsp//libucosii_bsp.a(alt_exit.o)
 .debug_info    0x000247f0      0x406 ../legocar_firmware_microc_bsp//libucosii_bsp.a(alt_flash_dev.o)
 .debug_info    0x00024bf6      0x510 ../legocar_firmware_microc_bsp//libucosii_bsp.a(alt_fstat.o)
 .debug_info    0x00025106       0x47 ../legocar_firmware_microc_bsp//libucosii_bsp.a(alt_getpid.o)
 .debug_info    0x0002514d      0x513 ../legocar_firmware_microc_bsp//libucosii_bsp.a(alt_isatty.o)
 .debug_info    0x00025660      0x108 ../legocar_firmware_microc_bsp//libucosii_bsp.a(alt_kill.o)
 .debug_info    0x00025768      0x135 ../legocar_firmware_microc_bsp//libucosii_bsp.a(alt_load.o)
 .debug_info    0x0002589d      0x3b9 ../legocar_firmware_microc_bsp//libucosii_bsp.a(alt_lseek.o)
 .debug_info    0x00025c56      0x28b ../legocar_firmware_microc_bsp//libucosii_bsp.a(alt_main.o)
 .debug_info    0x00025ee1      0x538 ../legocar_firmware_microc_bsp//libucosii_bsp.a(alt_read.o)
 .debug_info    0x00026419      0x323 ../legocar_firmware_microc_bsp//libucosii_bsp.a(alt_release_fd.o)
 .debug_info    0x0002673c      0x1b2 ../legocar_firmware_microc_bsp//libucosii_bsp.a(alt_sbrk.o)
 .debug_info    0x000268ee      0x2bf ../legocar_firmware_microc_bsp//libucosii_bsp.a(alt_tick.o)
 .debug_info    0x00026bad      0x145 ../legocar_firmware_microc_bsp//libucosii_bsp.a(alt_usleep.o)
 .debug_info    0x00026cf2      0x53f ../legocar_firmware_microc_bsp//libucosii_bsp.a(alt_write.o)
 .debug_info    0x00027231      0xd5c ../legocar_firmware_microc_bsp//libucosii_bsp.a(alt_env_lock.o)
 .debug_info    0x00027f8d      0xea6 ../legocar_firmware_microc_bsp//libucosii_bsp.a(alt_malloc_lock.o)
 .debug_info    0x00028e33     0x174b ../legocar_firmware_microc_bsp//libucosii_bsp.a(os_core.o)
 .debug_info    0x0002a57e      0xb93 ../legocar_firmware_microc_bsp//libucosii_bsp.a(os_dbg.o)
 .debug_info    0x0002b111     0x1040 ../legocar_firmware_microc_bsp//libucosii_bsp.a(os_flag.o)
 .debug_info    0x0002c151      0x6ba ../legocar_firmware_microc_bsp//libucosii_bsp.a(os_mem.o)
 .debug_info    0x0002c80b      0xe4d ../legocar_firmware_microc_bsp//libucosii_bsp.a(os_q.o)
 .debug_info    0x0002d658      0xa89 ../legocar_firmware_microc_bsp//libucosii_bsp.a(os_sem.o)
 .debug_info    0x0002e0e1     0x11bb ../legocar_firmware_microc_bsp//libucosii_bsp.a(os_task.o)
 .debug_info    0x0002f29c      0x75d ../legocar_firmware_microc_bsp//libucosii_bsp.a(os_time.o)
 .debug_info    0x0002f9f9      0xab9 ../legocar_firmware_microc_bsp//libucosii_bsp.a(alt_sys_init.o)
 .debug_info    0x000304b2      0x8ae ../legocar_firmware_microc_bsp//libucosii_bsp.a(altera_avalon_epcs_flash_controller.o)
 .debug_info    0x00030d60      0x6f3 ../legocar_firmware_microc_bsp//libucosii_bsp.a(altera_avalon_jtag_uart_fd.o)
 .debug_info    0x00031453      0x709 ../legocar_firmware_microc_bsp//libucosii_bsp.a(altera_avalon_jtag_uart_init.o)
 .debug_info    0x00031b5c      0x412 ../legocar_firmware_microc_bsp//libucosii_bsp.a(altera_avalon_jtag_uart_ioctl.o)
 .debug_info    0x00031f6e      0x5c4 ../legocar_firmware_microc_bsp//libucosii_bsp.a(altera_avalon_jtag_uart_read.o)
 .debug_info    0x00032532      0x5c2 ../legocar_firmware_microc_bsp//libucosii_bsp.a(altera_avalon_jtag_uart_write.o)
 .debug_info    0x00032af4      0x235 ../legocar_firmware_microc_bsp//libucosii_bsp.a(altera_avalon_timer_sc.o)
 .debug_info    0x00032d29      0x604 ../legocar_firmware_microc_bsp//libucosii_bsp.a(altera_avalon_uart_fd.o)
 .debug_info    0x0003332d      0x632 ../legocar_firmware_microc_bsp//libucosii_bsp.a(altera_avalon_uart_init.o)
 .debug_info    0x0003395f      0x5b2 ../legocar_firmware_microc_bsp//libucosii_bsp.a(altera_avalon_uart_read.o)
 .debug_info    0x00033f11      0x5a8 ../legocar_firmware_microc_bsp//libucosii_bsp.a(altera_avalon_uart_write.o)
 .debug_info    0x000344b9      0x482 ../legocar_firmware_microc_bsp//libucosii_bsp.a(epcs_commands.o)
 .debug_info    0x0003493b      0x2e4 ../legocar_firmware_microc_bsp//libucosii_bsp.a(alt_alarm_start.o)
 .debug_info    0x00034c1f       0xd5 ../legocar_firmware_microc_bsp//libucosii_bsp.a(alt_busy_sleep.o)
 .debug_info    0x00034cf4      0x1b9 ../legocar_firmware_microc_bsp//libucosii_bsp.a(alt_dev_llist_insert.o)
 .debug_info    0x00034ead       0x8d ../legocar_firmware_microc_bsp//libucosii_bsp.a(alt_do_ctors.o)
 .debug_info    0x00034f3a       0x8d ../legocar_firmware_microc_bsp//libucosii_bsp.a(alt_do_dtors.o)
 .debug_info    0x00034fc7      0x345 ../legocar_firmware_microc_bsp//libucosii_bsp.a(alt_find_dev.o)
 .debug_info    0x0003530c       0x90 ../legocar_firmware_microc_bsp//libucosii_bsp.a(alt_icache_flush_all.o)
 .debug_info    0x0003539c      0x364 ../legocar_firmware_microc_bsp//libucosii_bsp.a(alt_iic.o)
 .debug_info    0x00035700      0x1f6 ../legocar_firmware_microc_bsp//libucosii_bsp.a(alt_iic_isr_register.o)
 .debug_info    0x000358f6      0x528 ../legocar_firmware_microc_bsp//libucosii_bsp.a(alt_io_redirect.o)
 .debug_info    0x00035e1e       0x9a ../legocar_firmware_microc_bsp//libucosii_bsp.a(alt_irq_entry.o)
 .debug_info    0x00035eb8      0x1bd ../legocar_firmware_microc_bsp//libucosii_bsp.a(alt_irq_handler.o)
 .debug_info    0x00036075       0x8a ../legocar_firmware_microc_bsp//libucosii_bsp.a(alt_irq_vars.o)
 .debug_info    0x000360ff      0x41d ../legocar_firmware_microc_bsp//libucosii_bsp.a(alt_open.o)
 .debug_info    0x0003651c       0x90 ../legocar_firmware_microc_bsp//libucosii_bsp.a(altera_nios2_irq.o)
 .debug_info    0x000365ac       0x99 ../legocar_firmware_microc_bsp//libucosii_bsp.a(os_cpu_a.o)
 .debug_info    0x00036645      0xdff ../legocar_firmware_microc_bsp//libucosii_bsp.a(os_cpu_c.o)
 .debug_info    0x00037444      0x18b ../legocar_firmware_microc_bsp//libucosii_bsp.a(altera_avalon_spi.o)
 .debug_info    0x000375cf       0xa0 ../legocar_firmware_microc_bsp//libucosii_bsp.a(alt_exception_entry.o)
 .debug_info    0x0003766f      0x344 ../legocar_firmware_microc_bsp//libucosii_bsp.a(alt_find_file.o)
 .debug_info    0x000379b3      0x486 ../legocar_firmware_microc_bsp//libucosii_bsp.a(alt_get_fd.o)
 .debug_info    0x00037e39      0x1e6 /opt/altera/nios2eds/bin/gnu/H-i686-pc-linux-gnu/bin/../lib/gcc/nios2-elf/4.7.3/../../../../../H-i686-pc-linux-gnu/nios2-elf/lib/mno-hw-mul/libc.a(lib_a-atexit.o)
 .debug_info    0x0003801f      0x993 /opt/altera/nios2eds/bin/gnu/H-i686-pc-linux-gnu/bin/../lib/gcc/nios2-elf/4.7.3/../../../../../H-i686-pc-linux-gnu/nios2-elf/lib/mno-hw-mul/libc.a(lib_a-exit.o)
 .debug_info    0x000389b2      0x117 /opt/altera/nios2eds/bin/gnu/H-i686-pc-linux-gnu/bin/../lib/gcc/nios2-elf/4.7.3/../../../../../H-i686-pc-linux-gnu/nios2-elf/lib/mno-hw-mul/libc.a(lib_a-memcmp.o)
 .debug_info    0x00038ac9      0x9f9 /opt/altera/nios2eds/bin/gnu/H-i686-pc-linux-gnu/bin/../lib/gcc/nios2-elf/4.7.3/../../../../../H-i686-pc-linux-gnu/nios2-elf/lib/mno-hw-mul/libc.a(lib_a-__atexit.o)
 .debug_info    0x000394c2      0xa07 /opt/altera/nios2eds/bin/gnu/H-i686-pc-linux-gnu/bin/../lib/gcc/nios2-elf/4.7.3/../../../../../H-i686-pc-linux-gnu/nios2-elf/lib/mno-hw-mul/libc.a(lib_a-__call_atexit.o)

.debug_abbrev   0x00000000     0xe981
 *(.debug_abbrev)
 .debug_abbrev  0x00000000       0x12 ../legocar_firmware_microc_bsp//obj/HAL/src/crt0.o
 .debug_abbrev  0x00000012      0x12e obj/default/ins.o
 .debug_abbrev  0x00000140      0x101 obj/default/legocar.o
 .debug_abbrev  0x00000241      0x171 obj/default/main.o
 .debug_abbrev  0x000003b2       0xf7 obj/default/pwm_motor.o
 .debug_abbrev  0x000004a9      0x172 obj/default/terasic_lib/I2C.o
 .debug_abbrev  0x0000061b       0xf1 obj/default/terasic_lib/accelerometer_adxl345_spi.o
 .debug_abbrev  0x0000070c       0xb7 obj/default/terasic_lib/adc_spi_read.o
 .debug_abbrev  0x000007c3      0x1ec obj/default/terasic_lib/flash.o
 .debug_abbrev  0x000009af       0xf6 obj/default/terasic_lib/terasic_spi.o
 .debug_abbrev  0x00000aa5       0xca obj/default/wheel_direction.o
 .debug_abbrev  0x00000b6f       0x60 /opt/altera/nios2eds/bin/gnu/H-i686-pc-linux-gnu/bin/../lib/gcc/nios2-elf/4.7.3/mno-hw-mul/libgcc.a(_fixunsdfsi.o)
 .debug_abbrev  0x00000bcf      0x22d /opt/altera/nios2eds/bin/gnu/H-i686-pc-linux-gnu/bin/../lib/gcc/nios2-elf/4.7.3/mno-hw-mul/libgcc.a(_addsub_sf.o)
 .debug_abbrev  0x00000dfc      0x23b /opt/altera/nios2eds/bin/gnu/H-i686-pc-linux-gnu/bin/../lib/gcc/nios2-elf/4.7.3/mno-hw-mul/libgcc.a(_mul_sf.o)
 .debug_abbrev  0x00001037      0x1a5 /opt/altera/nios2eds/bin/gnu/H-i686-pc-linux-gnu/bin/../lib/gcc/nios2-elf/4.7.3/mno-hw-mul/libgcc.a(_gt_sf.o)
 .debug_abbrev  0x000011dc      0x1a5 /opt/altera/nios2eds/bin/gnu/H-i686-pc-linux-gnu/bin/../lib/gcc/nios2-elf/4.7.3/mno-hw-mul/libgcc.a(_ge_sf.o)
 .debug_abbrev  0x00001381      0x1a5 /opt/altera/nios2eds/bin/gnu/H-i686-pc-linux-gnu/bin/../lib/gcc/nios2-elf/4.7.3/mno-hw-mul/libgcc.a(_le_sf.o)
 .debug_abbrev  0x00001526      0x1ae /opt/altera/nios2eds/bin/gnu/H-i686-pc-linux-gnu/bin/../lib/gcc/nios2-elf/4.7.3/mno-hw-mul/libgcc.a(_sf_to_si.o)
 .debug_abbrev  0x000016d4      0x185 /opt/altera/nios2eds/bin/gnu/H-i686-pc-linux-gnu/bin/../lib/gcc/nios2-elf/4.7.3/mno-hw-mul/libgcc.a(_sf_to_df.o)
 .debug_abbrev  0x00001859       0xb6 /opt/altera/nios2eds/bin/gnu/H-i686-pc-linux-gnu/bin/../lib/gcc/nios2-elf/4.7.3/mno-hw-mul/libgcc.a(_thenan_sf.o)
 .debug_abbrev  0x0000190f      0x1b2 /opt/altera/nios2eds/bin/gnu/H-i686-pc-linux-gnu/bin/../lib/gcc/nios2-elf/4.7.3/mno-hw-mul/libgcc.a(_usi_to_sf.o)
 .debug_abbrev  0x00001ac1      0x22d /opt/altera/nios2eds/bin/gnu/H-i686-pc-linux-gnu/bin/../lib/gcc/nios2-elf/4.7.3/mno-hw-mul/libgcc.a(_addsub_df.o)
 .debug_abbrev  0x00001cee      0x240 /opt/altera/nios2eds/bin/gnu/H-i686-pc-linux-gnu/bin/../lib/gcc/nios2-elf/4.7.3/mno-hw-mul/libgcc.a(_mul_df.o)
 .debug_abbrev  0x00001f2e      0x245 /opt/altera/nios2eds/bin/gnu/H-i686-pc-linux-gnu/bin/../lib/gcc/nios2-elf/4.7.3/mno-hw-mul/libgcc.a(_div_df.o)
 .debug_abbrev  0x00002173      0x1a5 /opt/altera/nios2eds/bin/gnu/H-i686-pc-linux-gnu/bin/../lib/gcc/nios2-elf/4.7.3/mno-hw-mul/libgcc.a(_eq_df.o)
 .debug_abbrev  0x00002318      0x1a5 /opt/altera/nios2eds/bin/gnu/H-i686-pc-linux-gnu/bin/../lib/gcc/nios2-elf/4.7.3/mno-hw-mul/libgcc.a(_ge_df.o)
 .debug_abbrev  0x000024bd      0x19c /opt/altera/nios2eds/bin/gnu/H-i686-pc-linux-gnu/bin/../lib/gcc/nios2-elf/4.7.3/mno-hw-mul/libgcc.a(_si_to_df.o)
 .debug_abbrev  0x00002659      0x1ae /opt/altera/nios2eds/bin/gnu/H-i686-pc-linux-gnu/bin/../lib/gcc/nios2-elf/4.7.3/mno-hw-mul/libgcc.a(_df_to_si.o)
 .debug_abbrev  0x00002807      0x14e /opt/altera/nios2eds/bin/gnu/H-i686-pc-linux-gnu/bin/../lib/gcc/nios2-elf/4.7.3/mno-hw-mul/libgcc.a(_make_df.o)
 .debug_abbrev  0x00002955      0x194 /opt/altera/nios2eds/bin/gnu/H-i686-pc-linux-gnu/bin/../lib/gcc/nios2-elf/4.7.3/mno-hw-mul/libgcc.a(_df_to_sf.o)
 .debug_abbrev  0x00002ae9       0xb6 /opt/altera/nios2eds/bin/gnu/H-i686-pc-linux-gnu/bin/../lib/gcc/nios2-elf/4.7.3/mno-hw-mul/libgcc.a(_thenan_df.o)
 .debug_abbrev  0x00002b9f      0x112 /opt/altera/nios2eds/bin/gnu/H-i686-pc-linux-gnu/bin/../lib/gcc/nios2-elf/4.7.3/mno-hw-mul/libgcc.a(lib2-divmod.o)
 .debug_abbrev  0x00002cb1       0xe0 /opt/altera/nios2eds/bin/gnu/H-i686-pc-linux-gnu/bin/../lib/gcc/nios2-elf/4.7.3/mno-hw-mul/libgcc.a(_muldi3.o)
 .debug_abbrev  0x00002d91       0xbe /opt/altera/nios2eds/bin/gnu/H-i686-pc-linux-gnu/bin/../lib/gcc/nios2-elf/4.7.3/mno-hw-mul/libgcc.a(_clzsi2.o)
 .debug_abbrev  0x00002e4f      0x1b1 /opt/altera/nios2eds/bin/gnu/H-i686-pc-linux-gnu/bin/../lib/gcc/nios2-elf/4.7.3/mno-hw-mul/libgcc.a(_pack_sf.o)
 .debug_abbrev  0x00003000      0x15f /opt/altera/nios2eds/bin/gnu/H-i686-pc-linux-gnu/bin/../lib/gcc/nios2-elf/4.7.3/mno-hw-mul/libgcc.a(_unpack_sf.o)
 .debug_abbrev  0x0000315f      0x146 /opt/altera/nios2eds/bin/gnu/H-i686-pc-linux-gnu/bin/../lib/gcc/nios2-elf/4.7.3/mno-hw-mul/libgcc.a(_fpcmp_parts_sf.o)
 .debug_abbrev  0x000032a5      0x13f /opt/altera/nios2eds/bin/gnu/H-i686-pc-linux-gnu/bin/../lib/gcc/nios2-elf/4.7.3/mno-hw-mul/libgcc.a(_make_sf.o)
 .debug_abbrev  0x000033e4      0x1b6 /opt/altera/nios2eds/bin/gnu/H-i686-pc-linux-gnu/bin/../lib/gcc/nios2-elf/4.7.3/mno-hw-mul/libgcc.a(_pack_df.o)
 .debug_abbrev  0x0000359a      0x15d /opt/altera/nios2eds/bin/gnu/H-i686-pc-linux-gnu/bin/../lib/gcc/nios2-elf/4.7.3/mno-hw-mul/libgcc.a(_unpack_df.o)
 .debug_abbrev  0x000036f7      0x146 /opt/altera/nios2eds/bin/gnu/H-i686-pc-linux-gnu/bin/../lib/gcc/nios2-elf/4.7.3/mno-hw-mul/libgcc.a(_fpcmp_parts_df.o)
 .debug_abbrev  0x0000383d       0x6f /opt/altera/nios2eds/bin/gnu/H-i686-pc-linux-gnu/bin/../lib/gcc/nios2-elf/4.7.3/mno-hw-mul/libgcc.a(lib2-mul.o)
 .debug_abbrev  0x000038ac       0xf1 /opt/altera/nios2eds/bin/gnu/H-i686-pc-linux-gnu/bin/../lib/gcc/nios2-elf/4.7.3/mno-hw-mul/libgcc.a(_lshrdi3.o)
 .debug_abbrev  0x0000399d       0xf1 /opt/altera/nios2eds/bin/gnu/H-i686-pc-linux-gnu/bin/../lib/gcc/nios2-elf/4.7.3/mno-hw-mul/libgcc.a(_ashldi3.o)
 .debug_abbrev  0x00003a8e       0x5d /opt/altera/nios2eds/bin/gnu/H-i686-pc-linux-gnu/bin/../lib/gcc/nios2-elf/4.7.3/mno-hw-mul/libgcc.a(_clz.o)
 .debug_abbrev  0x00003aeb      0x1da /opt/altera/nios2eds/bin/gnu/H-i686-pc-linux-gnu/bin/../lib/gcc/nios2-elf/4.7.3/../../../../../H-i686-pc-linux-gnu/nios2-elf/lib/mno-hw-mul/libc.a(lib_a-assert.o)
 .debug_abbrev  0x00003cc5      0x1f4 /opt/altera/nios2eds/bin/gnu/H-i686-pc-linux-gnu/bin/../lib/gcc/nios2-elf/4.7.3/../../../../../H-i686-pc-linux-gnu/nios2-elf/lib/mno-hw-mul/libc.a(lib_a-fiprintf.o)
 .debug_abbrev  0x00003eb9      0x162 /opt/altera/nios2eds/bin/gnu/H-i686-pc-linux-gnu/bin/../lib/gcc/nios2-elf/4.7.3/../../../../../H-i686-pc-linux-gnu/nios2-elf/lib/mno-hw-mul/libc.a(lib_a-impure.o)
 .debug_abbrev  0x0000401b      0x1dc /opt/altera/nios2eds/bin/gnu/H-i686-pc-linux-gnu/bin/../lib/gcc/nios2-elf/4.7.3/../../../../../H-i686-pc-linux-gnu/nios2-elf/lib/mno-hw-mul/libc.a(lib_a-malloc.o)
 .debug_abbrev  0x000041f7      0x284 /opt/altera/nios2eds/bin/gnu/H-i686-pc-linux-gnu/bin/../lib/gcc/nios2-elf/4.7.3/../../../../../H-i686-pc-linux-gnu/nios2-elf/lib/mno-hw-mul/libc.a(lib_a-mallocr.o)
 .debug_abbrev  0x0000447b      0x209 /opt/altera/nios2eds/bin/gnu/H-i686-pc-linux-gnu/bin/../lib/gcc/nios2-elf/4.7.3/../../../../../H-i686-pc-linux-gnu/nios2-elf/lib/mno-hw-mul/libc.a(lib_a-printf.o)
 .debug_abbrev  0x00004684      0x208 /opt/altera/nios2eds/bin/gnu/H-i686-pc-linux-gnu/bin/../lib/gcc/nios2-elf/4.7.3/../../../../../H-i686-pc-linux-gnu/nios2-elf/lib/mno-hw-mul/libc.a(lib_a-puts.o)
 .debug_abbrev  0x0000488c      0x1df /opt/altera/nios2eds/bin/gnu/H-i686-pc-linux-gnu/bin/../lib/gcc/nios2-elf/4.7.3/../../../../../H-i686-pc-linux-gnu/nios2-elf/lib/mno-hw-mul/libc.a(lib_a-sbrkr.o)
 .debug_abbrev  0x00004a6b       0x90 /opt/altera/nios2eds/bin/gnu/H-i686-pc-linux-gnu/bin/../lib/gcc/nios2-elf/4.7.3/../../../../../H-i686-pc-linux-gnu/nios2-elf/lib/mno-hw-mul/libc.a(lib_a-strlen.o)
 .debug_abbrev  0x00004afb      0x1d8 /opt/altera/nios2eds/bin/gnu/H-i686-pc-linux-gnu/bin/../lib/gcc/nios2-elf/4.7.3/../../../../../H-i686-pc-linux-gnu/nios2-elf/lib/mno-hw-mul/libc.a(lib_a-vfiprintfr_1.o)
 .debug_abbrev  0x00004cd3      0x3d9 /opt/altera/nios2eds/bin/gnu/H-i686-pc-linux-gnu/bin/../lib/gcc/nios2-elf/4.7.3/../../../../../H-i686-pc-linux-gnu/nios2-elf/lib/mno-hw-mul/libc.a(lib_a-vfprintf.o)
 .debug_abbrev  0x000050ac      0x1d5 /opt/altera/nios2eds/bin/gnu/H-i686-pc-linux-gnu/bin/../lib/gcc/nios2-elf/4.7.3/../../../../../H-i686-pc-linux-gnu/nios2-elf/lib/mno-hw-mul/libc.a(lib_a-wsetup.o)
 .debug_abbrev  0x00005281       0x95 /opt/altera/nios2eds/bin/gnu/H-i686-pc-linux-gnu/bin/../lib/gcc/nios2-elf/4.7.3/../../../../../H-i686-pc-linux-gnu/nios2-elf/lib/mno-hw-mul/libc.a(lib_a-abort.o)
 .debug_abbrev  0x00005316      0x2ab /opt/altera/nios2eds/bin/gnu/H-i686-pc-linux-gnu/bin/../lib/gcc/nios2-elf/4.7.3/../../../../../H-i686-pc-linux-gnu/nios2-elf/lib/mno-hw-mul/libc.a(lib_a-dtoa.o)
 .debug_abbrev  0x000055c1      0x259 /opt/altera/nios2eds/bin/gnu/H-i686-pc-linux-gnu/bin/../lib/gcc/nios2-elf/4.7.3/../../../../../H-i686-pc-linux-gnu/nios2-elf/lib/mno-hw-mul/libc.a(lib_a-fflush.o)
 .debug_abbrev  0x0000581a      0x333 /opt/altera/nios2eds/bin/gnu/H-i686-pc-linux-gnu/bin/../lib/gcc/nios2-elf/4.7.3/../../../../../H-i686-pc-linux-gnu/nios2-elf/lib/mno-hw-mul/libc.a(lib_a-findfp.o)
 .debug_abbrev  0x00005b4d      0x25d /opt/altera/nios2eds/bin/gnu/H-i686-pc-linux-gnu/bin/../lib/gcc/nios2-elf/4.7.3/../../../../../H-i686-pc-linux-gnu/nios2-elf/lib/mno-hw-mul/libc.a(lib_a-freer.o)
 .debug_abbrev  0x00005daa      0x234 /opt/altera/nios2eds/bin/gnu/H-i686-pc-linux-gnu/bin/../lib/gcc/nios2-elf/4.7.3/../../../../../H-i686-pc-linux-gnu/nios2-elf/lib/mno-hw-mul/libc.a(lib_a-fvwrite.o)
 .debug_abbrev  0x00005fde      0x224 /opt/altera/nios2eds/bin/gnu/H-i686-pc-linux-gnu/bin/../lib/gcc/nios2-elf/4.7.3/../../../../../H-i686-pc-linux-gnu/nios2-elf/lib/mno-hw-mul/libc.a(lib_a-fwalk.o)
 .debug_abbrev  0x00006202       0x37 /opt/altera/nios2eds/bin/gnu/H-i686-pc-linux-gnu/bin/../lib/gcc/nios2-elf/4.7.3/../../../../../H-i686-pc-linux-gnu/nios2-elf/lib/mno-hw-mul/libc.a(lib_a-int_errno.o)
 .debug_abbrev  0x00006239      0x29f /opt/altera/nios2eds/bin/gnu/H-i686-pc-linux-gnu/bin/../lib/gcc/nios2-elf/4.7.3/../../../../../H-i686-pc-linux-gnu/nios2-elf/lib/mno-hw-mul/libc.a(lib_a-locale.o)
 .debug_abbrev  0x000064d8      0x1e8 /opt/altera/nios2eds/bin/gnu/H-i686-pc-linux-gnu/bin/../lib/gcc/nios2-elf/4.7.3/../../../../../H-i686-pc-linux-gnu/nios2-elf/lib/mno-hw-mul/libc.a(lib_a-makebuf.o)
 .debug_abbrev  0x000066c0       0xab /opt/altera/nios2eds/bin/gnu/H-i686-pc-linux-gnu/bin/../lib/gcc/nios2-elf/4.7.3/../../../../../H-i686-pc-linux-gnu/nios2-elf/lib/mno-hw-mul/libc.a(lib_a-memchr.o)
 .debug_abbrev  0x0000676b       0x9c /opt/altera/nios2eds/bin/gnu/H-i686-pc-linux-gnu/bin/../lib/gcc/nios2-elf/4.7.3/../../../../../H-i686-pc-linux-gnu/nios2-elf/lib/mno-hw-mul/libc.a(lib_a-memcpy.o)
 .debug_abbrev  0x00006807       0x9c /opt/altera/nios2eds/bin/gnu/H-i686-pc-linux-gnu/bin/../lib/gcc/nios2-elf/4.7.3/../../../../../H-i686-pc-linux-gnu/nios2-elf/lib/mno-hw-mul/libc.a(lib_a-memmove.o)
 .debug_abbrev  0x000068a3       0xac /opt/altera/nios2eds/bin/gnu/H-i686-pc-linux-gnu/bin/../lib/gcc/nios2-elf/4.7.3/../../../../../H-i686-pc-linux-gnu/nios2-elf/lib/mno-hw-mul/libc.a(lib_a-memset.o)
 .debug_abbrev  0x0000694f      0x394 /opt/altera/nios2eds/bin/gnu/H-i686-pc-linux-gnu/bin/../lib/gcc/nios2-elf/4.7.3/../../../../../H-i686-pc-linux-gnu/nios2-elf/lib/mno-hw-mul/libc.a(lib_a-mprec.o)
 .debug_abbrev  0x00006ce3      0x242 /opt/altera/nios2eds/bin/gnu/H-i686-pc-linux-gnu/bin/../lib/gcc/nios2-elf/4.7.3/../../../../../H-i686-pc-linux-gnu/nios2-elf/lib/mno-hw-mul/libc.a(lib_a-reallocr.o)
 .debug_abbrev  0x00006f25       0x6f /opt/altera/nios2eds/bin/gnu/H-i686-pc-linux-gnu/bin/../lib/gcc/nios2-elf/4.7.3/../../../../../H-i686-pc-linux-gnu/nios2-elf/lib/mno-hw-mul/libc.a(lib_a-s_isinfd.o)
 .debug_abbrev  0x00006f94       0x6f /opt/altera/nios2eds/bin/gnu/H-i686-pc-linux-gnu/bin/../lib/gcc/nios2-elf/4.7.3/../../../../../H-i686-pc-linux-gnu/nios2-elf/lib/mno-hw-mul/libc.a(lib_a-s_isnand.o)
 .debug_abbrev  0x00007003      0x2c8 /opt/altera/nios2eds/bin/gnu/H-i686-pc-linux-gnu/bin/../lib/gcc/nios2-elf/4.7.3/../../../../../H-i686-pc-linux-gnu/nios2-elf/lib/mno-hw-mul/libc.a(lib_a-signal.o)
 .debug_abbrev  0x000072cb      0x20a /opt/altera/nios2eds/bin/gnu/H-i686-pc-linux-gnu/bin/../lib/gcc/nios2-elf/4.7.3/../../../../../H-i686-pc-linux-gnu/nios2-elf/lib/mno-hw-mul/libc.a(lib_a-signalr.o)
 .debug_abbrev  0x000074d5      0x226 /opt/altera/nios2eds/bin/gnu/H-i686-pc-linux-gnu/bin/../lib/gcc/nios2-elf/4.7.3/../../../../../H-i686-pc-linux-gnu/nios2-elf/lib/mno-hw-mul/libc.a(lib_a-stdio.o)
 .debug_abbrev  0x000076fb       0x74 /opt/altera/nios2eds/bin/gnu/H-i686-pc-linux-gnu/bin/../lib/gcc/nios2-elf/4.7.3/../../../../../H-i686-pc-linux-gnu/nios2-elf/lib/mno-hw-mul/libc.a(lib_a-strcmp.o)
 .debug_abbrev  0x0000776f      0x3a1 /opt/altera/nios2eds/bin/gnu/H-i686-pc-linux-gnu/bin/../lib/gcc/nios2-elf/4.7.3/../../../../../H-i686-pc-linux-gnu/nios2-elf/lib/mno-hw-mul/libc.a(lib_a-vfiprintf.o)
 .debug_abbrev  0x00007b10      0x1c0 /opt/altera/nios2eds/bin/gnu/H-i686-pc-linux-gnu/bin/../lib/gcc/nios2-elf/4.7.3/../../../../../H-i686-pc-linux-gnu/nios2-elf/lib/mno-hw-mul/libc.a(lib_a-writer.o)
 .debug_abbrev  0x00007cd0      0x202 /opt/altera/nios2eds/bin/gnu/H-i686-pc-linux-gnu/bin/../lib/gcc/nios2-elf/4.7.3/../../../../../H-i686-pc-linux-gnu/nios2-elf/lib/mno-hw-mul/libc.a(lib_a-callocr.o)
 .debug_abbrev  0x00007ed2      0x1bb /opt/altera/nios2eds/bin/gnu/H-i686-pc-linux-gnu/bin/../lib/gcc/nios2-elf/4.7.3/../../../../../H-i686-pc-linux-gnu/nios2-elf/lib/mno-hw-mul/libc.a(lib_a-closer.o)
 .debug_abbrev  0x0000808d      0x24e /opt/altera/nios2eds/bin/gnu/H-i686-pc-linux-gnu/bin/../lib/gcc/nios2-elf/4.7.3/../../../../../H-i686-pc-linux-gnu/nios2-elf/lib/mno-hw-mul/libc.a(lib_a-fclose.o)
 .debug_abbrev  0x000082db      0x1ca /opt/altera/nios2eds/bin/gnu/H-i686-pc-linux-gnu/bin/../lib/gcc/nios2-elf/4.7.3/../../../../../H-i686-pc-linux-gnu/nios2-elf/lib/mno-hw-mul/libc.a(lib_a-fstatr.o)
 .debug_abbrev  0x000084a5      0x1bb /opt/altera/nios2eds/bin/gnu/H-i686-pc-linux-gnu/bin/../lib/gcc/nios2-elf/4.7.3/../../../../../H-i686-pc-linux-gnu/nios2-elf/lib/mno-hw-mul/libc.a(lib_a-isattyr.o)
 .debug_abbrev  0x00008660      0x1ca /opt/altera/nios2eds/bin/gnu/H-i686-pc-linux-gnu/bin/../lib/gcc/nios2-elf/4.7.3/../../../../../H-i686-pc-linux-gnu/nios2-elf/lib/mno-hw-mul/libc.a(lib_a-lseekr.o)
 .debug_abbrev  0x0000882a      0x1bb /opt/altera/nios2eds/bin/gnu/H-i686-pc-linux-gnu/bin/../lib/gcc/nios2-elf/4.7.3/../../../../../H-i686-pc-linux-gnu/nios2-elf/lib/mno-hw-mul/libc.a(lib_a-readr.o)
 .debug_abbrev  0x000089e5      0x170 /opt/altera/nios2eds/bin/gnu/H-i686-pc-linux-gnu/bin/../lib/gcc/nios2-elf/4.7.3/mno-hw-mul/libgcc.a(_udivdi3.o)
 .debug_abbrev  0x00008b55      0x19c /opt/altera/nios2eds/bin/gnu/H-i686-pc-linux-gnu/bin/../lib/gcc/nios2-elf/4.7.3/mno-hw-mul/libgcc.a(_umoddi3.o)
 .debug_abbrev  0x00008cf1      0x1a5 /opt/altera/nios2eds/bin/gnu/H-i686-pc-linux-gnu/bin/../lib/gcc/nios2-elf/4.7.3/mno-hw-mul/libgcc.a(_ne_df.o)
 .debug_abbrev  0x00008e96      0x1a5 /opt/altera/nios2eds/bin/gnu/H-i686-pc-linux-gnu/bin/../lib/gcc/nios2-elf/4.7.3/mno-hw-mul/libgcc.a(_gt_df.o)
 .debug_abbrev  0x0000903b      0x1a5 /opt/altera/nios2eds/bin/gnu/H-i686-pc-linux-gnu/bin/../lib/gcc/nios2-elf/4.7.3/mno-hw-mul/libgcc.a(_lt_df.o)
 .debug_abbrev  0x000091e0      0x1bf /opt/altera/nios2eds/bin/gnu/H-i686-pc-linux-gnu/bin/../lib/gcc/nios2-elf/4.7.3/mno-hw-mul/libgcc.a(_usi_to_df.o)
 .debug_abbrev  0x0000939f      0x126 ../legocar_firmware_microc_bsp//libucosii_bsp.a(alt_close.o)
 .debug_abbrev  0x000094c5       0x74 ../legocar_firmware_microc_bsp//libucosii_bsp.a(alt_dcache_flush.o)
 .debug_abbrev  0x00009539       0x42 ../legocar_firmware_microc_bsp//libucosii_bsp.a(alt_dcache_flush_all.o)
 .debug_abbrev  0x0000957b      0x11c ../legocar_firmware_microc_bsp//libucosii_bsp.a(alt_dev.o)
 .debug_abbrev  0x00009697       0x5a ../legocar_firmware_microc_bsp//libucosii_bsp.a(alt_errno.o)
 .debug_abbrev  0x000096f1       0xde ../legocar_firmware_microc_bsp//libucosii_bsp.a(alt_exit.o)
 .debug_abbrev  0x000097cf      0x121 ../legocar_firmware_microc_bsp//libucosii_bsp.a(alt_flash_dev.o)
 .debug_abbrev  0x000098f0      0x126 ../legocar_firmware_microc_bsp//libucosii_bsp.a(alt_fstat.o)
 .debug_abbrev  0x00009a16       0x39 ../legocar_firmware_microc_bsp//libucosii_bsp.a(alt_getpid.o)
 .debug_abbrev  0x00009a4f      0x126 ../legocar_firmware_microc_bsp//libucosii_bsp.a(alt_isatty.o)
 .debug_abbrev  0x00009b75       0x9f ../legocar_firmware_microc_bsp//libucosii_bsp.a(alt_kill.o)
 .debug_abbrev  0x00009c14       0x9d ../legocar_firmware_microc_bsp//libucosii_bsp.a(alt_load.o)
 .debug_abbrev  0x00009cb1      0x126 ../legocar_firmware_microc_bsp//libucosii_bsp.a(alt_lseek.o)
 .debug_abbrev  0x00009dd7      0x139 ../legocar_firmware_microc_bsp//libucosii_bsp.a(alt_main.o)
 .debug_abbrev  0x00009f10      0x135 ../legocar_firmware_microc_bsp//libucosii_bsp.a(alt_read.o)
 .debug_abbrev  0x0000a045       0xe5 ../legocar_firmware_microc_bsp//libucosii_bsp.a(alt_release_fd.o)
 .debug_abbrev  0x0000a12a      0x112 ../legocar_firmware_microc_bsp//libucosii_bsp.a(alt_sbrk.o)
 .debug_abbrev  0x0000a23c      0x15a ../legocar_firmware_microc_bsp//libucosii_bsp.a(alt_tick.o)
 .debug_abbrev  0x0000a396       0xba ../legocar_firmware_microc_bsp//libucosii_bsp.a(alt_usleep.o)
 .debug_abbrev  0x0000a450      0x13a ../legocar_firmware_microc_bsp//libucosii_bsp.a(alt_write.o)
 .debug_abbrev  0x0000a58a      0x1b6 ../legocar_firmware_microc_bsp//libucosii_bsp.a(alt_env_lock.o)
 .debug_abbrev  0x0000a740      0x240 ../legocar_firmware_microc_bsp//libucosii_bsp.a(alt_malloc_lock.o)
 .debug_abbrev  0x0000a980      0x302 ../legocar_firmware_microc_bsp//libucosii_bsp.a(os_core.o)
 .debug_abbrev  0x0000ac82       0xf7 ../legocar_firmware_microc_bsp//libucosii_bsp.a(os_dbg.o)
 .debug_abbrev  0x0000ad79      0x25a ../legocar_firmware_microc_bsp//libucosii_bsp.a(os_flag.o)
 .debug_abbrev  0x0000afd3      0x228 ../legocar_firmware_microc_bsp//libucosii_bsp.a(os_mem.o)
 .debug_abbrev  0x0000b1fb      0x248 ../legocar_firmware_microc_bsp//libucosii_bsp.a(os_q.o)
 .debug_abbrev  0x0000b443      0x262 ../legocar_firmware_microc_bsp//libucosii_bsp.a(os_sem.o)
 .debug_abbrev  0x0000b6a5      0x247 ../legocar_firmware_microc_bsp//libucosii_bsp.a(os_task.o)
 .debug_abbrev  0x0000b8ec      0x20c ../legocar_firmware_microc_bsp//libucosii_bsp.a(os_time.o)
 .debug_abbrev  0x0000baf8      0x1bb ../legocar_firmware_microc_bsp//libucosii_bsp.a(alt_sys_init.o)
 .debug_abbrev  0x0000bcb3      0x1c9 ../legocar_firmware_microc_bsp//libucosii_bsp.a(altera_avalon_epcs_flash_controller.o)
 .debug_abbrev  0x0000be7c      0x15d ../legocar_firmware_microc_bsp//libucosii_bsp.a(altera_avalon_jtag_uart_fd.o)
 .debug_abbrev  0x0000bfd9      0x240 ../legocar_firmware_microc_bsp//libucosii_bsp.a(altera_avalon_jtag_uart_init.o)
 .debug_abbrev  0x0000c219      0x147 ../legocar_firmware_microc_bsp//libucosii_bsp.a(altera_avalon_jtag_uart_ioctl.o)
 .debug_abbrev  0x0000c360      0x1e9 ../legocar_firmware_microc_bsp//libucosii_bsp.a(altera_avalon_jtag_uart_read.o)
 .debug_abbrev  0x0000c549      0x1e7 ../legocar_firmware_microc_bsp//libucosii_bsp.a(altera_avalon_jtag_uart_write.o)
 .debug_abbrev  0x0000c730      0x155 ../legocar_firmware_microc_bsp//libucosii_bsp.a(altera_avalon_timer_sc.o)
 .debug_abbrev  0x0000c885      0x145 ../legocar_firmware_microc_bsp//libucosii_bsp.a(altera_avalon_uart_fd.o)
 .debug_abbrev  0x0000c9ca      0x1f1 ../legocar_firmware_microc_bsp//libucosii_bsp.a(altera_avalon_uart_init.o)
 .debug_abbrev  0x0000cbbb      0x1c8 ../legocar_firmware_microc_bsp//libucosii_bsp.a(altera_avalon_uart_read.o)
 .debug_abbrev  0x0000cd83      0x1cf ../legocar_firmware_microc_bsp//libucosii_bsp.a(altera_avalon_uart_write.o)
 .debug_abbrev  0x0000cf52      0x169 ../legocar_firmware_microc_bsp//libucosii_bsp.a(epcs_commands.o)
 .debug_abbrev  0x0000d0bb      0x162 ../legocar_firmware_microc_bsp//libucosii_bsp.a(alt_alarm_start.o)
 .debug_abbrev  0x0000d21d       0x7e ../legocar_firmware_microc_bsp//libucosii_bsp.a(alt_busy_sleep.o)
 .debug_abbrev  0x0000d29b      0x114 ../legocar_firmware_microc_bsp//libucosii_bsp.a(alt_dev_llist_insert.o)
 .debug_abbrev  0x0000d3af       0x79 ../legocar_firmware_microc_bsp//libucosii_bsp.a(alt_do_ctors.o)
 .debug_abbrev  0x0000d428       0x79 ../legocar_firmware_microc_bsp//libucosii_bsp.a(alt_do_dtors.o)
 .debug_abbrev  0x0000d4a1       0xf7 ../legocar_firmware_microc_bsp//libucosii_bsp.a(alt_find_dev.o)
 .debug_abbrev  0x0000d598       0x42 ../legocar_firmware_microc_bsp//libucosii_bsp.a(alt_icache_flush_all.o)
 .debug_abbrev  0x0000d5da      0x16a ../legocar_firmware_microc_bsp//libucosii_bsp.a(alt_iic.o)
 .debug_abbrev  0x0000d744      0x169 ../legocar_firmware_microc_bsp//libucosii_bsp.a(alt_iic_isr_register.o)
 .debug_abbrev  0x0000d8ad      0x11b ../legocar_firmware_microc_bsp//libucosii_bsp.a(alt_io_redirect.o)
 .debug_abbrev  0x0000d9c8       0x12 ../legocar_firmware_microc_bsp//libucosii_bsp.a(alt_irq_entry.o)
 .debug_abbrev  0x0000d9da      0x13c ../legocar_firmware_microc_bsp//libucosii_bsp.a(alt_irq_handler.o)
 .debug_abbrev  0x0000db16       0x40 ../legocar_firmware_microc_bsp//libucosii_bsp.a(alt_irq_vars.o)
 .debug_abbrev  0x0000db56      0x14f ../legocar_firmware_microc_bsp//libucosii_bsp.a(alt_open.o)
 .debug_abbrev  0x0000dca5       0x42 ../legocar_firmware_microc_bsp//libucosii_bsp.a(altera_nios2_irq.o)
 .debug_abbrev  0x0000dce7       0x14 ../legocar_firmware_microc_bsp//libucosii_bsp.a(os_cpu_a.o)
 .debug_abbrev  0x0000dcfb      0x1f7 ../legocar_firmware_microc_bsp//libucosii_bsp.a(os_cpu_c.o)
 .debug_abbrev  0x0000def2       0x8a ../legocar_firmware_microc_bsp//libucosii_bsp.a(altera_avalon_spi.o)
 .debug_abbrev  0x0000df7c       0x12 ../legocar_firmware_microc_bsp//libucosii_bsp.a(alt_exception_entry.o)
 .debug_abbrev  0x0000df8e       0xf7 ../legocar_firmware_microc_bsp//libucosii_bsp.a(alt_find_file.o)
 .debug_abbrev  0x0000e085      0x19b ../legocar_firmware_microc_bsp//libucosii_bsp.a(alt_get_fd.o)
 .debug_abbrev  0x0000e220      0x106 /opt/altera/nios2eds/bin/gnu/H-i686-pc-linux-gnu/bin/../lib/gcc/nios2-elf/4.7.3/../../../../../H-i686-pc-linux-gnu/nios2-elf/lib/mno-hw-mul/libc.a(lib_a-atexit.o)
 .debug_abbrev  0x0000e326      0x1c8 /opt/altera/nios2eds/bin/gnu/H-i686-pc-linux-gnu/bin/../lib/gcc/nios2-elf/4.7.3/../../../../../H-i686-pc-linux-gnu/nios2-elf/lib/mno-hw-mul/libc.a(lib_a-exit.o)
 .debug_abbrev  0x0000e4ee       0x7f /opt/altera/nios2eds/bin/gnu/H-i686-pc-linux-gnu/bin/../lib/gcc/nios2-elf/4.7.3/../../../../../H-i686-pc-linux-gnu/nios2-elf/lib/mno-hw-mul/libc.a(lib_a-memcmp.o)
 .debug_abbrev  0x0000e56d      0x211 /opt/altera/nios2eds/bin/gnu/H-i686-pc-linux-gnu/bin/../lib/gcc/nios2-elf/4.7.3/../../../../../H-i686-pc-linux-gnu/nios2-elf/lib/mno-hw-mul/libc.a(lib_a-__atexit.o)
 .debug_abbrev  0x0000e77e      0x203 /opt/altera/nios2eds/bin/gnu/H-i686-pc-linux-gnu/bin/../lib/gcc/nios2-elf/4.7.3/../../../../../H-i686-pc-linux-gnu/nios2-elf/lib/mno-hw-mul/libc.a(lib_a-__call_atexit.o)

.debug_line     0x00000000    0x106be
 *(.debug_line)
 .debug_line    0x00000000       0x66 ../legocar_firmware_microc_bsp//obj/HAL/src/crt0.o
 .debug_line    0x00000066      0x218 obj/default/ins.o
 .debug_line    0x0000027e      0x15c obj/default/legocar.o
 .debug_line    0x000003da      0x182 obj/default/main.o
 .debug_line    0x0000055c       0xbd obj/default/pwm_motor.o
 .debug_line    0x00000619      0x294 obj/default/terasic_lib/I2C.o
 .debug_line    0x000008ad      0x1a7 obj/default/terasic_lib/accelerometer_adxl345_spi.o
 .debug_line    0x00000a54      0x14c obj/default/terasic_lib/adc_spi_read.o
 .debug_line    0x00000ba0      0x3c5 obj/default/terasic_lib/flash.o
 .debug_line    0x00000f65      0x1a0 obj/default/terasic_lib/terasic_spi.o
 .debug_line    0x00001105       0xe7 obj/default/wheel_direction.o
 .debug_line    0x000011ec       0x71 /opt/altera/nios2eds/bin/gnu/H-i686-pc-linux-gnu/bin/../lib/gcc/nios2-elf/4.7.3/mno-hw-mul/libgcc.a(_fixunsdfsi.o)
 .debug_line    0x0000125d      0x112 /opt/altera/nios2eds/bin/gnu/H-i686-pc-linux-gnu/bin/../lib/gcc/nios2-elf/4.7.3/mno-hw-mul/libgcc.a(_addsub_sf.o)
 .debug_line    0x0000136f       0xe2 /opt/altera/nios2eds/bin/gnu/H-i686-pc-linux-gnu/bin/../lib/gcc/nios2-elf/4.7.3/mno-hw-mul/libgcc.a(_mul_sf.o)
 .debug_line    0x00001451       0x71 /opt/altera/nios2eds/bin/gnu/H-i686-pc-linux-gnu/bin/../lib/gcc/nios2-elf/4.7.3/mno-hw-mul/libgcc.a(_gt_sf.o)
 .debug_line    0x000014c2       0x71 /opt/altera/nios2eds/bin/gnu/H-i686-pc-linux-gnu/bin/../lib/gcc/nios2-elf/4.7.3/mno-hw-mul/libgcc.a(_ge_sf.o)
 .debug_line    0x00001533       0x70 /opt/altera/nios2eds/bin/gnu/H-i686-pc-linux-gnu/bin/../lib/gcc/nios2-elf/4.7.3/mno-hw-mul/libgcc.a(_le_sf.o)
 .debug_line    0x000015a3       0x90 /opt/altera/nios2eds/bin/gnu/H-i686-pc-linux-gnu/bin/../lib/gcc/nios2-elf/4.7.3/mno-hw-mul/libgcc.a(_sf_to_si.o)
 .debug_line    0x00001633       0x6c /opt/altera/nios2eds/bin/gnu/H-i686-pc-linux-gnu/bin/../lib/gcc/nios2-elf/4.7.3/mno-hw-mul/libgcc.a(_sf_to_df.o)
 .debug_line    0x0000169f       0x54 /opt/altera/nios2eds/bin/gnu/H-i686-pc-linux-gnu/bin/../lib/gcc/nios2-elf/4.7.3/mno-hw-mul/libgcc.a(_thenan_sf.o)
 .debug_line    0x000016f3       0x99 /opt/altera/nios2eds/bin/gnu/H-i686-pc-linux-gnu/bin/../lib/gcc/nios2-elf/4.7.3/mno-hw-mul/libgcc.a(_usi_to_sf.o)
 .debug_line    0x0000178c      0x134 /opt/altera/nios2eds/bin/gnu/H-i686-pc-linux-gnu/bin/../lib/gcc/nios2-elf/4.7.3/mno-hw-mul/libgcc.a(_addsub_df.o)
 .debug_line    0x000018c0      0x117 /opt/altera/nios2eds/bin/gnu/H-i686-pc-linux-gnu/bin/../lib/gcc/nios2-elf/4.7.3/mno-hw-mul/libgcc.a(_mul_df.o)
 .debug_line    0x000019d7       0xd1 /opt/altera/nios2eds/bin/gnu/H-i686-pc-linux-gnu/bin/../lib/gcc/nios2-elf/4.7.3/mno-hw-mul/libgcc.a(_div_df.o)
 .debug_line    0x00001aa8       0x70 /opt/altera/nios2eds/bin/gnu/H-i686-pc-linux-gnu/bin/../lib/gcc/nios2-elf/4.7.3/mno-hw-mul/libgcc.a(_eq_df.o)
 .debug_line    0x00001b18       0x71 /opt/altera/nios2eds/bin/gnu/H-i686-pc-linux-gnu/bin/../lib/gcc/nios2-elf/4.7.3/mno-hw-mul/libgcc.a(_ge_df.o)
 .debug_line    0x00001b89       0x97 /opt/altera/nios2eds/bin/gnu/H-i686-pc-linux-gnu/bin/../lib/gcc/nios2-elf/4.7.3/mno-hw-mul/libgcc.a(_si_to_df.o)
 .debug_line    0x00001c20       0x90 /opt/altera/nios2eds/bin/gnu/H-i686-pc-linux-gnu/bin/../lib/gcc/nios2-elf/4.7.3/mno-hw-mul/libgcc.a(_df_to_si.o)
 .debug_line    0x00001cb0       0x70 /opt/altera/nios2eds/bin/gnu/H-i686-pc-linux-gnu/bin/../lib/gcc/nios2-elf/4.7.3/mno-hw-mul/libgcc.a(_make_df.o)
 .debug_line    0x00001d20       0x73 /opt/altera/nios2eds/bin/gnu/H-i686-pc-linux-gnu/bin/../lib/gcc/nios2-elf/4.7.3/mno-hw-mul/libgcc.a(_df_to_sf.o)
 .debug_line    0x00001d93       0x54 /opt/altera/nios2eds/bin/gnu/H-i686-pc-linux-gnu/bin/../lib/gcc/nios2-elf/4.7.3/mno-hw-mul/libgcc.a(_thenan_df.o)
 .debug_line    0x00001de7       0xd6 /opt/altera/nios2eds/bin/gnu/H-i686-pc-linux-gnu/bin/../lib/gcc/nios2-elf/4.7.3/mno-hw-mul/libgcc.a(lib2-divmod.o)
 .debug_line    0x00001ebd       0xa2 /opt/altera/nios2eds/bin/gnu/H-i686-pc-linux-gnu/bin/../lib/gcc/nios2-elf/4.7.3/mno-hw-mul/libgcc.a(_muldi3.o)
 .debug_line    0x00001f5f       0x8f /opt/altera/nios2eds/bin/gnu/H-i686-pc-linux-gnu/bin/../lib/gcc/nios2-elf/4.7.3/mno-hw-mul/libgcc.a(_clzsi2.o)
 .debug_line    0x00001fee       0xb5 /opt/altera/nios2eds/bin/gnu/H-i686-pc-linux-gnu/bin/../lib/gcc/nios2-elf/4.7.3/mno-hw-mul/libgcc.a(_pack_sf.o)
 .debug_line    0x000020a3       0x9d /opt/altera/nios2eds/bin/gnu/H-i686-pc-linux-gnu/bin/../lib/gcc/nios2-elf/4.7.3/mno-hw-mul/libgcc.a(_unpack_sf.o)
 .debug_line    0x00002140       0x9d /opt/altera/nios2eds/bin/gnu/H-i686-pc-linux-gnu/bin/../lib/gcc/nios2-elf/4.7.3/mno-hw-mul/libgcc.a(_fpcmp_parts_sf.o)
 .debug_line    0x000021dd       0x6e /opt/altera/nios2eds/bin/gnu/H-i686-pc-linux-gnu/bin/../lib/gcc/nios2-elf/4.7.3/mno-hw-mul/libgcc.a(_make_sf.o)
 .debug_line    0x0000224b       0xca /opt/altera/nios2eds/bin/gnu/H-i686-pc-linux-gnu/bin/../lib/gcc/nios2-elf/4.7.3/mno-hw-mul/libgcc.a(_pack_df.o)
 .debug_line    0x00002315       0xa5 /opt/altera/nios2eds/bin/gnu/H-i686-pc-linux-gnu/bin/../lib/gcc/nios2-elf/4.7.3/mno-hw-mul/libgcc.a(_unpack_df.o)
 .debug_line    0x000023ba       0x99 /opt/altera/nios2eds/bin/gnu/H-i686-pc-linux-gnu/bin/../lib/gcc/nios2-elf/4.7.3/mno-hw-mul/libgcc.a(_fpcmp_parts_df.o)
 .debug_line    0x00002453       0x80 /opt/altera/nios2eds/bin/gnu/H-i686-pc-linux-gnu/bin/../lib/gcc/nios2-elf/4.7.3/mno-hw-mul/libgcc.a(lib2-mul.o)
 .debug_line    0x000024d3       0x7a /opt/altera/nios2eds/bin/gnu/H-i686-pc-linux-gnu/bin/../lib/gcc/nios2-elf/4.7.3/mno-hw-mul/libgcc.a(_lshrdi3.o)
 .debug_line    0x0000254d       0x78 /opt/altera/nios2eds/bin/gnu/H-i686-pc-linux-gnu/bin/../lib/gcc/nios2-elf/4.7.3/mno-hw-mul/libgcc.a(_ashldi3.o)
 .debug_line    0x000025c5       0x56 /opt/altera/nios2eds/bin/gnu/H-i686-pc-linux-gnu/bin/../lib/gcc/nios2-elf/4.7.3/mno-hw-mul/libgcc.a(_clz.o)
 .debug_line    0x0000261b      0x22d /opt/altera/nios2eds/bin/gnu/H-i686-pc-linux-gnu/bin/../lib/gcc/nios2-elf/4.7.3/../../../../../H-i686-pc-linux-gnu/nios2-elf/lib/mno-hw-mul/libc.a(lib_a-assert.o)
 .debug_line    0x00002848      0x212 /opt/altera/nios2eds/bin/gnu/H-i686-pc-linux-gnu/bin/../lib/gcc/nios2-elf/4.7.3/../../../../../H-i686-pc-linux-gnu/nios2-elf/lib/mno-hw-mul/libc.a(lib_a-fiprintf.o)
 .debug_line    0x00002a5a      0x176 /opt/altera/nios2eds/bin/gnu/H-i686-pc-linux-gnu/bin/../lib/gcc/nios2-elf/4.7.3/../../../../../H-i686-pc-linux-gnu/nios2-elf/lib/mno-hw-mul/libc.a(lib_a-impure.o)
 .debug_line    0x00002bd0      0x20a /opt/altera/nios2eds/bin/gnu/H-i686-pc-linux-gnu/bin/../lib/gcc/nios2-elf/4.7.3/../../../../../H-i686-pc-linux-gnu/nios2-elf/lib/mno-hw-mul/libc.a(lib_a-malloc.o)
 .debug_line    0x00002dda      0x424 /opt/altera/nios2eds/bin/gnu/H-i686-pc-linux-gnu/bin/../lib/gcc/nios2-elf/4.7.3/../../../../../H-i686-pc-linux-gnu/nios2-elf/lib/mno-hw-mul/libc.a(lib_a-mallocr.o)
 .debug_line    0x000031fe      0x21b /opt/altera/nios2eds/bin/gnu/H-i686-pc-linux-gnu/bin/../lib/gcc/nios2-elf/4.7.3/../../../../../H-i686-pc-linux-gnu/nios2-elf/lib/mno-hw-mul/libc.a(lib_a-printf.o)
 .debug_line    0x00003419      0x238 /opt/altera/nios2eds/bin/gnu/H-i686-pc-linux-gnu/bin/../lib/gcc/nios2-elf/4.7.3/../../../../../H-i686-pc-linux-gnu/nios2-elf/lib/mno-hw-mul/libc.a(lib_a-puts.o)
 .debug_line    0x00003651      0x215 /opt/altera/nios2eds/bin/gnu/H-i686-pc-linux-gnu/bin/../lib/gcc/nios2-elf/4.7.3/../../../../../H-i686-pc-linux-gnu/nios2-elf/lib/mno-hw-mul/libc.a(lib_a-sbrkr.o)
 .debug_line    0x00003866      0x185 /opt/altera/nios2eds/bin/gnu/H-i686-pc-linux-gnu/bin/../lib/gcc/nios2-elf/4.7.3/../../../../../H-i686-pc-linux-gnu/nios2-elf/lib/mno-hw-mul/libc.a(lib_a-strlen.o)
 .debug_line    0x000039eb      0x211 /opt/altera/nios2eds/bin/gnu/H-i686-pc-linux-gnu/bin/../lib/gcc/nios2-elf/4.7.3/../../../../../H-i686-pc-linux-gnu/nios2-elf/lib/mno-hw-mul/libc.a(lib_a-vfiprintfr_1.o)
 .debug_line    0x00003bfc      0xb06 /opt/altera/nios2eds/bin/gnu/H-i686-pc-linux-gnu/bin/../lib/gcc/nios2-elf/4.7.3/../../../../../H-i686-pc-linux-gnu/nios2-elf/lib/mno-hw-mul/libc.a(lib_a-vfprintf.o)
 .debug_line    0x00004702      0x26e /opt/altera/nios2eds/bin/gnu/H-i686-pc-linux-gnu/bin/../lib/gcc/nios2-elf/4.7.3/../../../../../H-i686-pc-linux-gnu/nios2-elf/lib/mno-hw-mul/libc.a(lib_a-wsetup.o)
 .debug_line    0x00004970      0x172 /opt/altera/nios2eds/bin/gnu/H-i686-pc-linux-gnu/bin/../lib/gcc/nios2-elf/4.7.3/../../../../../H-i686-pc-linux-gnu/nios2-elf/lib/mno-hw-mul/libc.a(lib_a-abort.o)
 .debug_line    0x00004ae2      0x893 /opt/altera/nios2eds/bin/gnu/H-i686-pc-linux-gnu/bin/../lib/gcc/nios2-elf/4.7.3/../../../../../H-i686-pc-linux-gnu/nios2-elf/lib/mno-hw-mul/libc.a(lib_a-dtoa.o)
 .debug_line    0x00005375      0x29f /opt/altera/nios2eds/bin/gnu/H-i686-pc-linux-gnu/bin/../lib/gcc/nios2-elf/4.7.3/../../../../../H-i686-pc-linux-gnu/nios2-elf/lib/mno-hw-mul/libc.a(lib_a-fflush.o)
 .debug_line    0x00005614      0x2ea /opt/altera/nios2eds/bin/gnu/H-i686-pc-linux-gnu/bin/../lib/gcc/nios2-elf/4.7.3/../../../../../H-i686-pc-linux-gnu/nios2-elf/lib/mno-hw-mul/libc.a(lib_a-findfp.o)
 .debug_line    0x000058fe      0x314 /opt/altera/nios2eds/bin/gnu/H-i686-pc-linux-gnu/bin/../lib/gcc/nios2-elf/4.7.3/../../../../../H-i686-pc-linux-gnu/nios2-elf/lib/mno-hw-mul/libc.a(lib_a-freer.o)
 .debug_line    0x00005c12      0x363 /opt/altera/nios2eds/bin/gnu/H-i686-pc-linux-gnu/bin/../lib/gcc/nios2-elf/4.7.3/../../../../../H-i686-pc-linux-gnu/nios2-elf/lib/mno-hw-mul/libc.a(lib_a-fvwrite.o)
 .debug_line    0x00005f75      0x25c /opt/altera/nios2eds/bin/gnu/H-i686-pc-linux-gnu/bin/../lib/gcc/nios2-elf/4.7.3/../../../../../H-i686-pc-linux-gnu/nios2-elf/lib/mno-hw-mul/libc.a(lib_a-fwalk.o)
 .debug_line    0x000061d1       0x60 /opt/altera/nios2eds/bin/gnu/H-i686-pc-linux-gnu/bin/../lib/gcc/nios2-elf/4.7.3/../../../../../H-i686-pc-linux-gnu/nios2-elf/lib/mno-hw-mul/libc.a(lib_a-int_errno.o)
 .debug_line    0x00006231      0x234 /opt/altera/nios2eds/bin/gnu/H-i686-pc-linux-gnu/bin/../lib/gcc/nios2-elf/4.7.3/../../../../../H-i686-pc-linux-gnu/nios2-elf/lib/mno-hw-mul/libc.a(lib_a-locale.o)
 .debug_line    0x00006465      0x296 /opt/altera/nios2eds/bin/gnu/H-i686-pc-linux-gnu/bin/../lib/gcc/nios2-elf/4.7.3/../../../../../H-i686-pc-linux-gnu/nios2-elf/lib/mno-hw-mul/libc.a(lib_a-makebuf.o)
 .debug_line    0x000066fb      0x1f4 /opt/altera/nios2eds/bin/gnu/H-i686-pc-linux-gnu/bin/../lib/gcc/nios2-elf/4.7.3/../../../../../H-i686-pc-linux-gnu/nios2-elf/lib/mno-hw-mul/libc.a(lib_a-memchr.o)
 .debug_line    0x000068ef      0x144 /opt/altera/nios2eds/bin/gnu/H-i686-pc-linux-gnu/bin/../lib/gcc/nios2-elf/4.7.3/../../../../../H-i686-pc-linux-gnu/nios2-elf/lib/mno-hw-mul/libc.a(lib_a-memcpy.o)
 .debug_line    0x00006a33      0x1f9 /opt/altera/nios2eds/bin/gnu/H-i686-pc-linux-gnu/bin/../lib/gcc/nios2-elf/4.7.3/../../../../../H-i686-pc-linux-gnu/nios2-elf/lib/mno-hw-mul/libc.a(lib_a-memmove.o)
 .debug_line    0x00006c2c      0x1f4 /opt/altera/nios2eds/bin/gnu/H-i686-pc-linux-gnu/bin/../lib/gcc/nios2-elf/4.7.3/../../../../../H-i686-pc-linux-gnu/nios2-elf/lib/mno-hw-mul/libc.a(lib_a-memset.o)
 .debug_line    0x00006e20      0x713 /opt/altera/nios2eds/bin/gnu/H-i686-pc-linux-gnu/bin/../lib/gcc/nios2-elf/4.7.3/../../../../../H-i686-pc-linux-gnu/nios2-elf/lib/mno-hw-mul/libc.a(lib_a-mprec.o)
 .debug_line    0x00007533      0x333 /opt/altera/nios2eds/bin/gnu/H-i686-pc-linux-gnu/bin/../lib/gcc/nios2-elf/4.7.3/../../../../../H-i686-pc-linux-gnu/nios2-elf/lib/mno-hw-mul/libc.a(lib_a-reallocr.o)
 .debug_line    0x00007866      0x173 /opt/altera/nios2eds/bin/gnu/H-i686-pc-linux-gnu/bin/../lib/gcc/nios2-elf/4.7.3/../../../../../H-i686-pc-linux-gnu/nios2-elf/lib/mno-hw-mul/libc.a(lib_a-s_isinfd.o)
 .debug_line    0x000079d9      0x173 /opt/altera/nios2eds/bin/gnu/H-i686-pc-linux-gnu/bin/../lib/gcc/nios2-elf/4.7.3/../../../../../H-i686-pc-linux-gnu/nios2-elf/lib/mno-hw-mul/libc.a(lib_a-s_isnand.o)
 .debug_line    0x00007b4c      0x2ac /opt/altera/nios2eds/bin/gnu/H-i686-pc-linux-gnu/bin/../lib/gcc/nios2-elf/4.7.3/../../../../../H-i686-pc-linux-gnu/nios2-elf/lib/mno-hw-mul/libc.a(lib_a-signal.o)
 .debug_line    0x00007df8      0x228 /opt/altera/nios2eds/bin/gnu/H-i686-pc-linux-gnu/bin/../lib/gcc/nios2-elf/4.7.3/../../../../../H-i686-pc-linux-gnu/nios2-elf/lib/mno-hw-mul/libc.a(lib_a-signalr.o)
 .debug_line    0x00008020      0x248 /opt/altera/nios2eds/bin/gnu/H-i686-pc-linux-gnu/bin/../lib/gcc/nios2-elf/4.7.3/../../../../../H-i686-pc-linux-gnu/nios2-elf/lib/mno-hw-mul/libc.a(lib_a-stdio.o)
 .debug_line    0x00008268      0x113 /opt/altera/nios2eds/bin/gnu/H-i686-pc-linux-gnu/bin/../lib/gcc/nios2-elf/4.7.3/../../../../../H-i686-pc-linux-gnu/nios2-elf/lib/mno-hw-mul/libc.a(lib_a-strcmp.o)
 .debug_line    0x0000837b      0x743 /opt/altera/nios2eds/bin/gnu/H-i686-pc-linux-gnu/bin/../lib/gcc/nios2-elf/4.7.3/../../../../../H-i686-pc-linux-gnu/nios2-elf/lib/mno-hw-mul/libc.a(lib_a-vfiprintf.o)
 .debug_line    0x00008abe      0x216 /opt/altera/nios2eds/bin/gnu/H-i686-pc-linux-gnu/bin/../lib/gcc/nios2-elf/4.7.3/../../../../../H-i686-pc-linux-gnu/nios2-elf/lib/mno-hw-mul/libc.a(lib_a-writer.o)
 .debug_line    0x00008cd4      0x1c9 /opt/altera/nios2eds/bin/gnu/H-i686-pc-linux-gnu/bin/../lib/gcc/nios2-elf/4.7.3/../../../../../H-i686-pc-linux-gnu/nios2-elf/lib/mno-hw-mul/libc.a(lib_a-callocr.o)
 .debug_line    0x00008e9d      0x216 /opt/altera/nios2eds/bin/gnu/H-i686-pc-linux-gnu/bin/../lib/gcc/nios2-elf/4.7.3/../../../../../H-i686-pc-linux-gnu/nios2-elf/lib/mno-hw-mul/libc.a(lib_a-closer.o)
 .debug_line    0x000090b3      0x269 /opt/altera/nios2eds/bin/gnu/H-i686-pc-linux-gnu/bin/../lib/gcc/nios2-elf/4.7.3/../../../../../H-i686-pc-linux-gnu/nios2-elf/lib/mno-hw-mul/libc.a(lib_a-fclose.o)
 .debug_line    0x0000931c      0x21f /opt/altera/nios2eds/bin/gnu/H-i686-pc-linux-gnu/bin/../lib/gcc/nios2-elf/4.7.3/../../../../../H-i686-pc-linux-gnu/nios2-elf/lib/mno-hw-mul/libc.a(lib_a-fstatr.o)
 .debug_line    0x0000953b      0x217 /opt/altera/nios2eds/bin/gnu/H-i686-pc-linux-gnu/bin/../lib/gcc/nios2-elf/4.7.3/../../../../../H-i686-pc-linux-gnu/nios2-elf/lib/mno-hw-mul/libc.a(lib_a-isattyr.o)
 .debug_line    0x00009752      0x221 /opt/altera/nios2eds/bin/gnu/H-i686-pc-linux-gnu/bin/../lib/gcc/nios2-elf/4.7.3/../../../../../H-i686-pc-linux-gnu/nios2-elf/lib/mno-hw-mul/libc.a(lib_a-lseekr.o)
 .debug_line    0x00009973      0x215 /opt/altera/nios2eds/bin/gnu/H-i686-pc-linux-gnu/bin/../lib/gcc/nios2-elf/4.7.3/../../../../../H-i686-pc-linux-gnu/nios2-elf/lib/mno-hw-mul/libc.a(lib_a-readr.o)
 .debug_line    0x00009b88      0x11c /opt/altera/nios2eds/bin/gnu/H-i686-pc-linux-gnu/bin/../lib/gcc/nios2-elf/4.7.3/mno-hw-mul/libgcc.a(_udivdi3.o)
 .debug_line    0x00009ca4      0x124 /opt/altera/nios2eds/bin/gnu/H-i686-pc-linux-gnu/bin/../lib/gcc/nios2-elf/4.7.3/mno-hw-mul/libgcc.a(_umoddi3.o)
 .debug_line    0x00009dc8       0x70 /opt/altera/nios2eds/bin/gnu/H-i686-pc-linux-gnu/bin/../lib/gcc/nios2-elf/4.7.3/mno-hw-mul/libgcc.a(_ne_df.o)
 .debug_line    0x00009e38       0x71 /opt/altera/nios2eds/bin/gnu/H-i686-pc-linux-gnu/bin/../lib/gcc/nios2-elf/4.7.3/mno-hw-mul/libgcc.a(_gt_df.o)
 .debug_line    0x00009ea9       0x70 /opt/altera/nios2eds/bin/gnu/H-i686-pc-linux-gnu/bin/../lib/gcc/nios2-elf/4.7.3/mno-hw-mul/libgcc.a(_lt_df.o)
 .debug_line    0x00009f19       0xa1 /opt/altera/nios2eds/bin/gnu/H-i686-pc-linux-gnu/bin/../lib/gcc/nios2-elf/4.7.3/mno-hw-mul/libgcc.a(_usi_to_df.o)
 .debug_line    0x00009fba      0x197 ../legocar_firmware_microc_bsp//libucosii_bsp.a(alt_close.o)
 .debug_line    0x0000a151       0x67 ../legocar_firmware_microc_bsp//libucosii_bsp.a(alt_dcache_flush.o)
 .debug_line    0x0000a1b8       0x51 ../legocar_firmware_microc_bsp//libucosii_bsp.a(alt_dcache_flush_all.o)
 .debug_line    0x0000a209      0x15f ../legocar_firmware_microc_bsp//libucosii_bsp.a(alt_dev.o)
 .debug_line    0x0000a368       0x51 ../legocar_firmware_microc_bsp//libucosii_bsp.a(alt_errno.o)
 .debug_line    0x0000a3b9       0xcf ../legocar_firmware_microc_bsp//libucosii_bsp.a(alt_exit.o)
 .debug_line    0x0000a488       0xed ../legocar_firmware_microc_bsp//libucosii_bsp.a(alt_flash_dev.o)
 .debug_line    0x0000a575      0x191 ../legocar_firmware_microc_bsp//libucosii_bsp.a(alt_fstat.o)
 .debug_line    0x0000a706       0x46 ../legocar_firmware_microc_bsp//libucosii_bsp.a(alt_getpid.o)
 .debug_line    0x0000a74c      0x191 ../legocar_firmware_microc_bsp//libucosii_bsp.a(alt_isatty.o)
 .debug_line    0x0000a8dd       0x92 ../legocar_firmware_microc_bsp//libucosii_bsp.a(alt_kill.o)
 .debug_line    0x0000a96f       0x92 ../legocar_firmware_microc_bsp//libucosii_bsp.a(alt_load.o)
 .debug_line    0x0000aa01      0x195 ../legocar_firmware_microc_bsp//libucosii_bsp.a(alt_lseek.o)
 .debug_line    0x0000ab96      0x130 ../legocar_firmware_microc_bsp//libucosii_bsp.a(alt_main.o)
 .debug_line    0x0000acc6      0x20c ../legocar_firmware_microc_bsp//libucosii_bsp.a(alt_read.o)
 .debug_line    0x0000aed2       0xbf ../legocar_firmware_microc_bsp//libucosii_bsp.a(alt_release_fd.o)
 .debug_line    0x0000af91      0x116 ../legocar_firmware_microc_bsp//libucosii_bsp.a(alt_sbrk.o)
 .debug_line    0x0000b0a7      0x102 ../legocar_firmware_microc_bsp//libucosii_bsp.a(alt_tick.o)
 .debug_line    0x0000b1a9      0x169 ../legocar_firmware_microc_bsp//libucosii_bsp.a(alt_usleep.o)
 .debug_line    0x0000b312      0x20b ../legocar_firmware_microc_bsp//libucosii_bsp.a(alt_write.o)
 .debug_line    0x0000b51d      0x1c2 ../legocar_firmware_microc_bsp//libucosii_bsp.a(alt_env_lock.o)
 .debug_line    0x0000b6df      0x227 ../legocar_firmware_microc_bsp//libucosii_bsp.a(alt_malloc_lock.o)
 .debug_line    0x0000b906      0x6ac ../legocar_firmware_microc_bsp//libucosii_bsp.a(os_core.o)
 .debug_line    0x0000bfb2       0xd2 ../legocar_firmware_microc_bsp//libucosii_bsp.a(os_dbg.o)
 .debug_line    0x0000c084      0x519 ../legocar_firmware_microc_bsp//libucosii_bsp.a(os_flag.o)
 .debug_line    0x0000c59d      0x243 ../legocar_firmware_microc_bsp//libucosii_bsp.a(os_mem.o)
 .debug_line    0x0000c7e0      0x424 ../legocar_firmware_microc_bsp//libucosii_bsp.a(os_q.o)
 .debug_line    0x0000cc04      0x2fc ../legocar_firmware_microc_bsp//libucosii_bsp.a(os_sem.o)
 .debug_line    0x0000cf00      0x558 ../legocar_firmware_microc_bsp//libucosii_bsp.a(os_task.o)
 .debug_line    0x0000d458      0x1b3 ../legocar_firmware_microc_bsp//libucosii_bsp.a(os_time.o)
 .debug_line    0x0000d60b      0x1ff ../legocar_firmware_microc_bsp//libucosii_bsp.a(alt_sys_init.o)
 .debug_line    0x0000d80a      0x2b1 ../legocar_firmware_microc_bsp//libucosii_bsp.a(altera_avalon_epcs_flash_controller.o)
 .debug_line    0x0000dabb      0x157 ../legocar_firmware_microc_bsp//libucosii_bsp.a(altera_avalon_jtag_uart_fd.o)
 .debug_line    0x0000dc12      0x23c ../legocar_firmware_microc_bsp//libucosii_bsp.a(altera_avalon_jtag_uart_init.o)
 .debug_line    0x0000de4e      0x14f ../legocar_firmware_microc_bsp//libucosii_bsp.a(altera_avalon_jtag_uart_ioctl.o)
 .debug_line    0x0000df9d      0x1e0 ../legocar_firmware_microc_bsp//libucosii_bsp.a(altera_avalon_jtag_uart_read.o)
 .debug_line    0x0000e17d      0x1e1 ../legocar_firmware_microc_bsp//libucosii_bsp.a(altera_avalon_jtag_uart_write.o)
 .debug_line    0x0000e35e       0xfd ../legocar_firmware_microc_bsp//libucosii_bsp.a(altera_avalon_timer_sc.o)
 .debug_line    0x0000e45b      0x134 ../legocar_firmware_microc_bsp//libucosii_bsp.a(altera_avalon_uart_fd.o)
 .debug_line    0x0000e58f      0x227 ../legocar_firmware_microc_bsp//libucosii_bsp.a(altera_avalon_uart_init.o)
 .debug_line    0x0000e7b6      0x203 ../legocar_firmware_microc_bsp//libucosii_bsp.a(altera_avalon_uart_read.o)
 .debug_line    0x0000e9b9      0x1ec ../legocar_firmware_microc_bsp//libucosii_bsp.a(altera_avalon_uart_write.o)
 .debug_line    0x0000eba5      0x118 ../legocar_firmware_microc_bsp//libucosii_bsp.a(epcs_commands.o)
 .debug_line    0x0000ecbd       0xfa ../legocar_firmware_microc_bsp//libucosii_bsp.a(alt_alarm_start.o)
 .debug_line    0x0000edb7       0xa2 ../legocar_firmware_microc_bsp//libucosii_bsp.a(alt_busy_sleep.o)
 .debug_line    0x0000ee59       0xd0 ../legocar_firmware_microc_bsp//libucosii_bsp.a(alt_dev_llist_insert.o)
 .debug_line    0x0000ef29       0x59 ../legocar_firmware_microc_bsp//libucosii_bsp.a(alt_do_ctors.o)
 .debug_line    0x0000ef82       0x59 ../legocar_firmware_microc_bsp//libucosii_bsp.a(alt_do_dtors.o)
 .debug_line    0x0000efdb       0xc8 ../legocar_firmware_microc_bsp//libucosii_bsp.a(alt_find_dev.o)
 .debug_line    0x0000f0a3       0x4f ../legocar_firmware_microc_bsp//libucosii_bsp.a(alt_icache_flush_all.o)
 .debug_line    0x0000f0f2       0xed ../legocar_firmware_microc_bsp//libucosii_bsp.a(alt_iic.o)
 .debug_line    0x0000f1df       0xdb ../legocar_firmware_microc_bsp//libucosii_bsp.a(alt_iic_isr_register.o)
 .debug_line    0x0000f2ba      0x167 ../legocar_firmware_microc_bsp//libucosii_bsp.a(alt_io_redirect.o)
 .debug_line    0x0000f421       0x6b ../legocar_firmware_microc_bsp//libucosii_bsp.a(alt_irq_entry.o)
 .debug_line    0x0000f48c       0xcc ../legocar_firmware_microc_bsp//libucosii_bsp.a(alt_irq_handler.o)
 .debug_line    0x0000f558       0x50 ../legocar_firmware_microc_bsp//libucosii_bsp.a(alt_irq_vars.o)
 .debug_line    0x0000f5a8      0x137 ../legocar_firmware_microc_bsp//libucosii_bsp.a(alt_open.o)
 .debug_line    0x0000f6df       0x4c ../legocar_firmware_microc_bsp//libucosii_bsp.a(altera_nios2_irq.o)
 .debug_line    0x0000f72b       0x86 ../legocar_firmware_microc_bsp//libucosii_bsp.a(os_cpu_a.o)
 .debug_line    0x0000f7b1      0x1cb ../legocar_firmware_microc_bsp//libucosii_bsp.a(os_cpu_c.o)
 .debug_line    0x0000f97c       0xb6 ../legocar_firmware_microc_bsp//libucosii_bsp.a(altera_avalon_spi.o)
 .debug_line    0x0000fa32       0xab ../legocar_firmware_microc_bsp//libucosii_bsp.a(alt_exception_entry.o)
 .debug_line    0x0000fadd       0xe4 ../legocar_firmware_microc_bsp//libucosii_bsp.a(alt_find_file.o)
 .debug_line    0x0000fbc1      0x127 ../legocar_firmware_microc_bsp//libucosii_bsp.a(alt_get_fd.o)
 .debug_line    0x0000fce8      0x170 /opt/altera/nios2eds/bin/gnu/H-i686-pc-linux-gnu/bin/../lib/gcc/nios2-elf/4.7.3/../../../../../H-i686-pc-linux-gnu/nios2-elf/lib/mno-hw-mul/libc.a(lib_a-atexit.o)
 .debug_line    0x0000fe58      0x21c /opt/altera/nios2eds/bin/gnu/H-i686-pc-linux-gnu/bin/../lib/gcc/nios2-elf/4.7.3/../../../../../H-i686-pc-linux-gnu/nios2-elf/lib/mno-hw-mul/libc.a(lib_a-exit.o)
 .debug_line    0x00010074      0x190 /opt/altera/nios2eds/bin/gnu/H-i686-pc-linux-gnu/bin/../lib/gcc/nios2-elf/4.7.3/../../../../../H-i686-pc-linux-gnu/nios2-elf/lib/mno-hw-mul/libc.a(lib_a-memcmp.o)
 .debug_line    0x00010204      0x253 /opt/altera/nios2eds/bin/gnu/H-i686-pc-linux-gnu/bin/../lib/gcc/nios2-elf/4.7.3/../../../../../H-i686-pc-linux-gnu/nios2-elf/lib/mno-hw-mul/libc.a(lib_a-__atexit.o)
 .debug_line    0x00010457      0x267 /opt/altera/nios2eds/bin/gnu/H-i686-pc-linux-gnu/bin/../lib/gcc/nios2-elf/4.7.3/../../../../../H-i686-pc-linux-gnu/nios2-elf/lib/mno-hw-mul/libc.a(lib_a-__call_atexit.o)

.debug_frame    0x00000000     0x34bc
 *(.debug_frame)
 .debug_frame   0x00000000       0xa4 obj/default/ins.o
 .debug_frame   0x000000a4       0xd8 obj/default/legocar.o
 .debug_frame   0x0000017c       0x80 obj/default/main.o
 .debug_frame   0x000001fc       0x84 obj/default/pwm_motor.o
 .debug_frame   0x00000280      0x128 obj/default/terasic_lib/I2C.o
 .debug_frame   0x000003a8       0xa0 obj/default/terasic_lib/accelerometer_adxl345_spi.o
 .debug_frame   0x00000448       0x2c obj/default/terasic_lib/adc_spi_read.o
 .debug_frame   0x00000474      0x128 obj/default/terasic_lib/flash.o
 .debug_frame   0x0000059c       0x9c obj/default/terasic_lib/terasic_spi.o
 .debug_frame   0x00000638       0x80 obj/default/wheel_direction.o
 .debug_frame   0x000006b8       0x2c /opt/altera/nios2eds/bin/gnu/H-i686-pc-linux-gnu/bin/../lib/gcc/nios2-elf/4.7.3/mno-hw-mul/libgcc.a(_fixunsdfsi.o)
 .debug_frame   0x000006e4       0x50 /opt/altera/nios2eds/bin/gnu/H-i686-pc-linux-gnu/bin/../lib/gcc/nios2-elf/4.7.3/mno-hw-mul/libgcc.a(_addsub_sf.o)
 .debug_frame   0x00000734       0x28 /opt/altera/nios2eds/bin/gnu/H-i686-pc-linux-gnu/bin/../lib/gcc/nios2-elf/4.7.3/mno-hw-mul/libgcc.a(_mul_sf.o)
 .debug_frame   0x0000075c       0x28 /opt/altera/nios2eds/bin/gnu/H-i686-pc-linux-gnu/bin/../lib/gcc/nios2-elf/4.7.3/mno-hw-mul/libgcc.a(_gt_sf.o)
 .debug_frame   0x00000784       0x28 /opt/altera/nios2eds/bin/gnu/H-i686-pc-linux-gnu/bin/../lib/gcc/nios2-elf/4.7.3/mno-hw-mul/libgcc.a(_ge_sf.o)
 .debug_frame   0x000007ac       0x28 /opt/altera/nios2eds/bin/gnu/H-i686-pc-linux-gnu/bin/../lib/gcc/nios2-elf/4.7.3/mno-hw-mul/libgcc.a(_le_sf.o)
 .debug_frame   0x000007d4       0x28 /opt/altera/nios2eds/bin/gnu/H-i686-pc-linux-gnu/bin/../lib/gcc/nios2-elf/4.7.3/mno-hw-mul/libgcc.a(_sf_to_si.o)
 .debug_frame   0x000007fc       0x28 /opt/altera/nios2eds/bin/gnu/H-i686-pc-linux-gnu/bin/../lib/gcc/nios2-elf/4.7.3/mno-hw-mul/libgcc.a(_sf_to_df.o)
 .debug_frame   0x00000824       0x28 /opt/altera/nios2eds/bin/gnu/H-i686-pc-linux-gnu/bin/../lib/gcc/nios2-elf/4.7.3/mno-hw-mul/libgcc.a(_usi_to_sf.o)
 .debug_frame   0x0000084c       0x50 /opt/altera/nios2eds/bin/gnu/H-i686-pc-linux-gnu/bin/../lib/gcc/nios2-elf/4.7.3/mno-hw-mul/libgcc.a(_addsub_df.o)
 .debug_frame   0x0000089c       0x38 /opt/altera/nios2eds/bin/gnu/H-i686-pc-linux-gnu/bin/../lib/gcc/nios2-elf/4.7.3/mno-hw-mul/libgcc.a(_mul_df.o)
 .debug_frame   0x000008d4       0x28 /opt/altera/nios2eds/bin/gnu/H-i686-pc-linux-gnu/bin/../lib/gcc/nios2-elf/4.7.3/mno-hw-mul/libgcc.a(_div_df.o)
 .debug_frame   0x000008fc       0x28 /opt/altera/nios2eds/bin/gnu/H-i686-pc-linux-gnu/bin/../lib/gcc/nios2-elf/4.7.3/mno-hw-mul/libgcc.a(_eq_df.o)
 .debug_frame   0x00000924       0x28 /opt/altera/nios2eds/bin/gnu/H-i686-pc-linux-gnu/bin/../lib/gcc/nios2-elf/4.7.3/mno-hw-mul/libgcc.a(_ge_df.o)
 .debug_frame   0x0000094c       0x28 /opt/altera/nios2eds/bin/gnu/H-i686-pc-linux-gnu/bin/../lib/gcc/nios2-elf/4.7.3/mno-hw-mul/libgcc.a(_si_to_df.o)
 .debug_frame   0x00000974       0x28 /opt/altera/nios2eds/bin/gnu/H-i686-pc-linux-gnu/bin/../lib/gcc/nios2-elf/4.7.3/mno-hw-mul/libgcc.a(_df_to_si.o)
 .debug_frame   0x0000099c       0x28 /opt/altera/nios2eds/bin/gnu/H-i686-pc-linux-gnu/bin/../lib/gcc/nios2-elf/4.7.3/mno-hw-mul/libgcc.a(_make_df.o)
 .debug_frame   0x000009c4       0x28 /opt/altera/nios2eds/bin/gnu/H-i686-pc-linux-gnu/bin/../lib/gcc/nios2-elf/4.7.3/mno-hw-mul/libgcc.a(_df_to_sf.o)
 .debug_frame   0x000009ec       0x70 /opt/altera/nios2eds/bin/gnu/H-i686-pc-linux-gnu/bin/../lib/gcc/nios2-elf/4.7.3/mno-hw-mul/libgcc.a(lib2-divmod.o)
 .debug_frame   0x00000a5c       0x3c /opt/altera/nios2eds/bin/gnu/H-i686-pc-linux-gnu/bin/../lib/gcc/nios2-elf/4.7.3/mno-hw-mul/libgcc.a(_muldi3.o)
 .debug_frame   0x00000a98       0x20 /opt/altera/nios2eds/bin/gnu/H-i686-pc-linux-gnu/bin/../lib/gcc/nios2-elf/4.7.3/mno-hw-mul/libgcc.a(_clzsi2.o)
 .debug_frame   0x00000ab8       0x20 /opt/altera/nios2eds/bin/gnu/H-i686-pc-linux-gnu/bin/../lib/gcc/nios2-elf/4.7.3/mno-hw-mul/libgcc.a(_pack_sf.o)
 .debug_frame   0x00000ad8       0x20 /opt/altera/nios2eds/bin/gnu/H-i686-pc-linux-gnu/bin/../lib/gcc/nios2-elf/4.7.3/mno-hw-mul/libgcc.a(_unpack_sf.o)
 .debug_frame   0x00000af8       0x20 /opt/altera/nios2eds/bin/gnu/H-i686-pc-linux-gnu/bin/../lib/gcc/nios2-elf/4.7.3/mno-hw-mul/libgcc.a(_fpcmp_parts_sf.o)
 .debug_frame   0x00000b18       0x28 /opt/altera/nios2eds/bin/gnu/H-i686-pc-linux-gnu/bin/../lib/gcc/nios2-elf/4.7.3/mno-hw-mul/libgcc.a(_make_sf.o)
 .debug_frame   0x00000b40       0x34 /opt/altera/nios2eds/bin/gnu/H-i686-pc-linux-gnu/bin/../lib/gcc/nios2-elf/4.7.3/mno-hw-mul/libgcc.a(_pack_df.o)
 .debug_frame   0x00000b74       0x20 /opt/altera/nios2eds/bin/gnu/H-i686-pc-linux-gnu/bin/../lib/gcc/nios2-elf/4.7.3/mno-hw-mul/libgcc.a(_unpack_df.o)
 .debug_frame   0x00000b94       0x20 /opt/altera/nios2eds/bin/gnu/H-i686-pc-linux-gnu/bin/../lib/gcc/nios2-elf/4.7.3/mno-hw-mul/libgcc.a(_fpcmp_parts_df.o)
 .debug_frame   0x00000bb4       0x20 /opt/altera/nios2eds/bin/gnu/H-i686-pc-linux-gnu/bin/../lib/gcc/nios2-elf/4.7.3/mno-hw-mul/libgcc.a(lib2-mul.o)
 .debug_frame   0x00000bd4       0x20 /opt/altera/nios2eds/bin/gnu/H-i686-pc-linux-gnu/bin/../lib/gcc/nios2-elf/4.7.3/mno-hw-mul/libgcc.a(_lshrdi3.o)
 .debug_frame   0x00000bf4       0x20 /opt/altera/nios2eds/bin/gnu/H-i686-pc-linux-gnu/bin/../lib/gcc/nios2-elf/4.7.3/mno-hw-mul/libgcc.a(_ashldi3.o)
 .debug_frame   0x00000c14       0x40 /opt/altera/nios2eds/bin/gnu/H-i686-pc-linux-gnu/bin/../lib/gcc/nios2-elf/4.7.3/../../../../../H-i686-pc-linux-gnu/nios2-elf/lib/mno-hw-mul/libc.a(lib_a-assert.o)
 .debug_frame   0x00000c54       0x40 /opt/altera/nios2eds/bin/gnu/H-i686-pc-linux-gnu/bin/../lib/gcc/nios2-elf/4.7.3/../../../../../H-i686-pc-linux-gnu/nios2-elf/lib/mno-hw-mul/libc.a(lib_a-fiprintf.o)
 .debug_frame   0x00000c94       0x30 /opt/altera/nios2eds/bin/gnu/H-i686-pc-linux-gnu/bin/../lib/gcc/nios2-elf/4.7.3/../../../../../H-i686-pc-linux-gnu/nios2-elf/lib/mno-hw-mul/libc.a(lib_a-malloc.o)
 .debug_frame   0x00000cc4       0x38 /opt/altera/nios2eds/bin/gnu/H-i686-pc-linux-gnu/bin/../lib/gcc/nios2-elf/4.7.3/../../../../../H-i686-pc-linux-gnu/nios2-elf/lib/mno-hw-mul/libc.a(lib_a-mallocr.o)
 .debug_frame   0x00000cfc       0x40 /opt/altera/nios2eds/bin/gnu/H-i686-pc-linux-gnu/bin/../lib/gcc/nios2-elf/4.7.3/../../../../../H-i686-pc-linux-gnu/nios2-elf/lib/mno-hw-mul/libc.a(lib_a-printf.o)
 .debug_frame   0x00000d3c       0x3c /opt/altera/nios2eds/bin/gnu/H-i686-pc-linux-gnu/bin/../lib/gcc/nios2-elf/4.7.3/../../../../../H-i686-pc-linux-gnu/nios2-elf/lib/mno-hw-mul/libc.a(lib_a-puts.o)
 .debug_frame   0x00000d78       0x2c /opt/altera/nios2eds/bin/gnu/H-i686-pc-linux-gnu/bin/../lib/gcc/nios2-elf/4.7.3/../../../../../H-i686-pc-linux-gnu/nios2-elf/lib/mno-hw-mul/libc.a(lib_a-sbrkr.o)
 .debug_frame   0x00000da4       0x20 /opt/altera/nios2eds/bin/gnu/H-i686-pc-linux-gnu/bin/../lib/gcc/nios2-elf/4.7.3/../../../../../H-i686-pc-linux-gnu/nios2-elf/lib/mno-hw-mul/libc.a(lib_a-strlen.o)
 .debug_frame   0x00000dc4       0x28 /opt/altera/nios2eds/bin/gnu/H-i686-pc-linux-gnu/bin/../lib/gcc/nios2-elf/4.7.3/../../../../../H-i686-pc-linux-gnu/nios2-elf/lib/mno-hw-mul/libc.a(lib_a-vfiprintfr_1.o)
 .debug_frame   0x00000dec       0x64 /opt/altera/nios2eds/bin/gnu/H-i686-pc-linux-gnu/bin/../lib/gcc/nios2-elf/4.7.3/../../../../../H-i686-pc-linux-gnu/nios2-elf/lib/mno-hw-mul/libc.a(lib_a-vfprintf.o)
 .debug_frame   0x00000e50       0x2c /opt/altera/nios2eds/bin/gnu/H-i686-pc-linux-gnu/bin/../lib/gcc/nios2-elf/4.7.3/../../../../../H-i686-pc-linux-gnu/nios2-elf/lib/mno-hw-mul/libc.a(lib_a-wsetup.o)
 .debug_frame   0x00000e7c       0x28 /opt/altera/nios2eds/bin/gnu/H-i686-pc-linux-gnu/bin/../lib/gcc/nios2-elf/4.7.3/../../../../../H-i686-pc-linux-gnu/nios2-elf/lib/mno-hw-mul/libc.a(lib_a-abort.o)
 .debug_frame   0x00000ea4       0x68 /opt/altera/nios2eds/bin/gnu/H-i686-pc-linux-gnu/bin/../lib/gcc/nios2-elf/4.7.3/../../../../../H-i686-pc-linux-gnu/nios2-elf/lib/mno-hw-mul/libc.a(lib_a-dtoa.o)
 .debug_frame   0x00000f0c       0x40 /opt/altera/nios2eds/bin/gnu/H-i686-pc-linux-gnu/bin/../lib/gcc/nios2-elf/4.7.3/../../../../../H-i686-pc-linux-gnu/nios2-elf/lib/mno-hw-mul/libc.a(lib_a-fflush.o)
 .debug_frame   0x00000f4c      0x100 /opt/altera/nios2eds/bin/gnu/H-i686-pc-linux-gnu/bin/../lib/gcc/nios2-elf/4.7.3/../../../../../H-i686-pc-linux-gnu/nios2-elf/lib/mno-hw-mul/libc.a(lib_a-findfp.o)
 .debug_frame   0x0000104c       0x4c /opt/altera/nios2eds/bin/gnu/H-i686-pc-linux-gnu/bin/../lib/gcc/nios2-elf/4.7.3/../../../../../H-i686-pc-linux-gnu/nios2-elf/lib/mno-hw-mul/libc.a(lib_a-freer.o)
 .debug_frame   0x00001098       0x38 /opt/altera/nios2eds/bin/gnu/H-i686-pc-linux-gnu/bin/../lib/gcc/nios2-elf/4.7.3/../../../../../H-i686-pc-linux-gnu/nios2-elf/lib/mno-hw-mul/libc.a(lib_a-fvwrite.o)
 .debug_frame   0x000010d0       0x5c /opt/altera/nios2eds/bin/gnu/H-i686-pc-linux-gnu/bin/../lib/gcc/nios2-elf/4.7.3/../../../../../H-i686-pc-linux-gnu/nios2-elf/lib/mno-hw-mul/libc.a(lib_a-fwalk.o)
 .debug_frame   0x0000112c       0x6c /opt/altera/nios2eds/bin/gnu/H-i686-pc-linux-gnu/bin/../lib/gcc/nios2-elf/4.7.3/../../../../../H-i686-pc-linux-gnu/nios2-elf/lib/mno-hw-mul/libc.a(lib_a-locale.o)
 .debug_frame   0x00001198       0x2c /opt/altera/nios2eds/bin/gnu/H-i686-pc-linux-gnu/bin/../lib/gcc/nios2-elf/4.7.3/../../../../../H-i686-pc-linux-gnu/nios2-elf/lib/mno-hw-mul/libc.a(lib_a-makebuf.o)
 .debug_frame   0x000011c4       0x20 /opt/altera/nios2eds/bin/gnu/H-i686-pc-linux-gnu/bin/../lib/gcc/nios2-elf/4.7.3/../../../../../H-i686-pc-linux-gnu/nios2-elf/lib/mno-hw-mul/libc.a(lib_a-memchr.o)
 .debug_frame   0x000011e4       0x30 /opt/altera/nios2eds/bin/gnu/H-i686-pc-linux-gnu/bin/../lib/gcc/nios2-elf/4.7.3/../../../../../H-i686-pc-linux-gnu/nios2-elf/lib/mno-hw-mul/libc.a(lib_a-memcpy.o)
 .debug_frame   0x00001214       0x30 /opt/altera/nios2eds/bin/gnu/H-i686-pc-linux-gnu/bin/../lib/gcc/nios2-elf/4.7.3/../../../../../H-i686-pc-linux-gnu/nios2-elf/lib/mno-hw-mul/libc.a(lib_a-memmove.o)
 .debug_frame   0x00001244       0x20 /opt/altera/nios2eds/bin/gnu/H-i686-pc-linux-gnu/bin/../lib/gcc/nios2-elf/4.7.3/../../../../../H-i686-pc-linux-gnu/nios2-elf/lib/mno-hw-mul/libc.a(lib_a-memset.o)
 .debug_frame   0x00001264      0x218 /opt/altera/nios2eds/bin/gnu/H-i686-pc-linux-gnu/bin/../lib/gcc/nios2-elf/4.7.3/../../../../../H-i686-pc-linux-gnu/nios2-elf/lib/mno-hw-mul/libc.a(lib_a-mprec.o)
 .debug_frame   0x0000147c       0x38 /opt/altera/nios2eds/bin/gnu/H-i686-pc-linux-gnu/bin/../lib/gcc/nios2-elf/4.7.3/../../../../../H-i686-pc-linux-gnu/nios2-elf/lib/mno-hw-mul/libc.a(lib_a-reallocr.o)
 .debug_frame   0x000014b4       0x20 /opt/altera/nios2eds/bin/gnu/H-i686-pc-linux-gnu/bin/../lib/gcc/nios2-elf/4.7.3/../../../../../H-i686-pc-linux-gnu/nios2-elf/lib/mno-hw-mul/libc.a(lib_a-s_isinfd.o)
 .debug_frame   0x000014d4       0x20 /opt/altera/nios2eds/bin/gnu/H-i686-pc-linux-gnu/bin/../lib/gcc/nios2-elf/4.7.3/../../../../../H-i686-pc-linux-gnu/nios2-elf/lib/mno-hw-mul/libc.a(lib_a-s_isnand.o)
 .debug_frame   0x000014f4       0xb4 /opt/altera/nios2eds/bin/gnu/H-i686-pc-linux-gnu/bin/../lib/gcc/nios2-elf/4.7.3/../../../../../H-i686-pc-linux-gnu/nios2-elf/lib/mno-hw-mul/libc.a(lib_a-signal.o)
 .debug_frame   0x000015a8       0x3c /opt/altera/nios2eds/bin/gnu/H-i686-pc-linux-gnu/bin/../lib/gcc/nios2-elf/4.7.3/../../../../../H-i686-pc-linux-gnu/nios2-elf/lib/mno-hw-mul/libc.a(lib_a-signalr.o)
 .debug_frame   0x000015e4       0x78 /opt/altera/nios2eds/bin/gnu/H-i686-pc-linux-gnu/bin/../lib/gcc/nios2-elf/4.7.3/../../../../../H-i686-pc-linux-gnu/nios2-elf/lib/mno-hw-mul/libc.a(lib_a-stdio.o)
 .debug_frame   0x0000165c       0x20 /opt/altera/nios2eds/bin/gnu/H-i686-pc-linux-gnu/bin/../lib/gcc/nios2-elf/4.7.3/../../../../../H-i686-pc-linux-gnu/nios2-elf/lib/mno-hw-mul/libc.a(lib_a-strcmp.o)
 .debug_frame   0x0000167c       0x64 /opt/altera/nios2eds/bin/gnu/H-i686-pc-linux-gnu/bin/../lib/gcc/nios2-elf/4.7.3/../../../../../H-i686-pc-linux-gnu/nios2-elf/lib/mno-hw-mul/libc.a(lib_a-vfiprintf.o)
 .debug_frame   0x000016e0       0x2c /opt/altera/nios2eds/bin/gnu/H-i686-pc-linux-gnu/bin/../lib/gcc/nios2-elf/4.7.3/../../../../../H-i686-pc-linux-gnu/nios2-elf/lib/mno-hw-mul/libc.a(lib_a-writer.o)
 .debug_frame   0x0000170c       0x2c /opt/altera/nios2eds/bin/gnu/H-i686-pc-linux-gnu/bin/../lib/gcc/nios2-elf/4.7.3/../../../../../H-i686-pc-linux-gnu/nios2-elf/lib/mno-hw-mul/libc.a(lib_a-callocr.o)
 .debug_frame   0x00001738       0x2c /opt/altera/nios2eds/bin/gnu/H-i686-pc-linux-gnu/bin/../lib/gcc/nios2-elf/4.7.3/../../../../../H-i686-pc-linux-gnu/nios2-elf/lib/mno-hw-mul/libc.a(lib_a-closer.o)
 .debug_frame   0x00001764       0x3c /opt/altera/nios2eds/bin/gnu/H-i686-pc-linux-gnu/bin/../lib/gcc/nios2-elf/4.7.3/../../../../../H-i686-pc-linux-gnu/nios2-elf/lib/mno-hw-mul/libc.a(lib_a-fclose.o)
 .debug_frame   0x000017a0       0x2c /opt/altera/nios2eds/bin/gnu/H-i686-pc-linux-gnu/bin/../lib/gcc/nios2-elf/4.7.3/../../../../../H-i686-pc-linux-gnu/nios2-elf/lib/mno-hw-mul/libc.a(lib_a-fstatr.o)
 .debug_frame   0x000017cc       0x2c /opt/altera/nios2eds/bin/gnu/H-i686-pc-linux-gnu/bin/../lib/gcc/nios2-elf/4.7.3/../../../../../H-i686-pc-linux-gnu/nios2-elf/lib/mno-hw-mul/libc.a(lib_a-isattyr.o)
 .debug_frame   0x000017f8       0x2c /opt/altera/nios2eds/bin/gnu/H-i686-pc-linux-gnu/bin/../lib/gcc/nios2-elf/4.7.3/../../../../../H-i686-pc-linux-gnu/nios2-elf/lib/mno-hw-mul/libc.a(lib_a-lseekr.o)
 .debug_frame   0x00001824       0x2c /opt/altera/nios2eds/bin/gnu/H-i686-pc-linux-gnu/bin/../lib/gcc/nios2-elf/4.7.3/../../../../../H-i686-pc-linux-gnu/nios2-elf/lib/mno-hw-mul/libc.a(lib_a-readr.o)
 .debug_frame   0x00001850       0x38 /opt/altera/nios2eds/bin/gnu/H-i686-pc-linux-gnu/bin/../lib/gcc/nios2-elf/4.7.3/mno-hw-mul/libgcc.a(_udivdi3.o)
 .debug_frame   0x00001888       0x38 /opt/altera/nios2eds/bin/gnu/H-i686-pc-linux-gnu/bin/../lib/gcc/nios2-elf/4.7.3/mno-hw-mul/libgcc.a(_umoddi3.o)
 .debug_frame   0x000018c0       0x28 /opt/altera/nios2eds/bin/gnu/H-i686-pc-linux-gnu/bin/../lib/gcc/nios2-elf/4.7.3/mno-hw-mul/libgcc.a(_ne_df.o)
 .debug_frame   0x000018e8       0x28 /opt/altera/nios2eds/bin/gnu/H-i686-pc-linux-gnu/bin/../lib/gcc/nios2-elf/4.7.3/mno-hw-mul/libgcc.a(_gt_df.o)
 .debug_frame   0x00001910       0x28 /opt/altera/nios2eds/bin/gnu/H-i686-pc-linux-gnu/bin/../lib/gcc/nios2-elf/4.7.3/mno-hw-mul/libgcc.a(_lt_df.o)
 .debug_frame   0x00001938       0x28 /opt/altera/nios2eds/bin/gnu/H-i686-pc-linux-gnu/bin/../lib/gcc/nios2-elf/4.7.3/mno-hw-mul/libgcc.a(_usi_to_df.o)
 .debug_frame   0x00001960       0x48 ../legocar_firmware_microc_bsp//libucosii_bsp.a(alt_close.o)
 .debug_frame   0x000019a8       0x2c ../legocar_firmware_microc_bsp//libucosii_bsp.a(alt_dcache_flush.o)
 .debug_frame   0x000019d4       0x2c ../legocar_firmware_microc_bsp//libucosii_bsp.a(alt_dcache_flush_all.o)
 .debug_frame   0x00001a00       0x2c ../legocar_firmware_microc_bsp//libucosii_bsp.a(alt_dev.o)
 .debug_frame   0x00001a2c       0x2c ../legocar_firmware_microc_bsp//libucosii_bsp.a(alt_exit.o)
 .debug_frame   0x00001a58       0x48 ../legocar_firmware_microc_bsp//libucosii_bsp.a(alt_flash_dev.o)
 .debug_frame   0x00001aa0       0x48 ../legocar_firmware_microc_bsp//libucosii_bsp.a(alt_fstat.o)
 .debug_frame   0x00001ae8       0x2c ../legocar_firmware_microc_bsp//libucosii_bsp.a(alt_getpid.o)
 .debug_frame   0x00001b14       0x48 ../legocar_firmware_microc_bsp//libucosii_bsp.a(alt_isatty.o)
 .debug_frame   0x00001b5c       0x48 ../legocar_firmware_microc_bsp//libucosii_bsp.a(alt_kill.o)
 .debug_frame   0x00001ba4       0x48 ../legocar_firmware_microc_bsp//libucosii_bsp.a(alt_load.o)
 .debug_frame   0x00001bec       0x48 ../legocar_firmware_microc_bsp//libucosii_bsp.a(alt_lseek.o)
 .debug_frame   0x00001c34       0x2c ../legocar_firmware_microc_bsp//libucosii_bsp.a(alt_main.o)
 .debug_frame   0x00001c60       0x48 ../legocar_firmware_microc_bsp//libucosii_bsp.a(alt_read.o)
 .debug_frame   0x00001ca8       0x30 ../legocar_firmware_microc_bsp//libucosii_bsp.a(alt_release_fd.o)
 .debug_frame   0x00001cd8       0x2c ../legocar_firmware_microc_bsp//libucosii_bsp.a(alt_sbrk.o)
 .debug_frame   0x00001d04       0x48 ../legocar_firmware_microc_bsp//libucosii_bsp.a(alt_tick.o)
 .debug_frame   0x00001d4c       0x30 ../legocar_firmware_microc_bsp//libucosii_bsp.a(alt_usleep.o)
 .debug_frame   0x00001d7c       0x48 ../legocar_firmware_microc_bsp//libucosii_bsp.a(alt_write.o)
 .debug_frame   0x00001dc4       0x4c ../legocar_firmware_microc_bsp//libucosii_bsp.a(alt_env_lock.o)
 .debug_frame   0x00001e10       0x4c ../legocar_firmware_microc_bsp//libucosii_bsp.a(alt_malloc_lock.o)
 .debug_frame   0x00001e5c      0x3e4 ../legocar_firmware_microc_bsp//libucosii_bsp.a(os_core.o)
 .debug_frame   0x00002240       0x2c ../legocar_firmware_microc_bsp//libucosii_bsp.a(os_dbg.o)
 .debug_frame   0x0000226c      0x17c ../legocar_firmware_microc_bsp//libucosii_bsp.a(os_flag.o)
 .debug_frame   0x000023e8       0xd4 ../legocar_firmware_microc_bsp//libucosii_bsp.a(os_mem.o)
 .debug_frame   0x000024bc      0x144 ../legocar_firmware_microc_bsp//libucosii_bsp.a(os_q.o)
 .debug_frame   0x00002600       0xf0 ../legocar_firmware_microc_bsp//libucosii_bsp.a(os_sem.o)
 .debug_frame   0x000026f0      0x160 ../legocar_firmware_microc_bsp//libucosii_bsp.a(os_task.o)
 .debug_frame   0x00002850       0xa0 ../legocar_firmware_microc_bsp//libucosii_bsp.a(os_time.o)
 .debug_frame   0x000028f0       0x64 ../legocar_firmware_microc_bsp//libucosii_bsp.a(alt_sys_init.o)
 .debug_frame   0x00002954      0x128 ../legocar_firmware_microc_bsp//libucosii_bsp.a(altera_avalon_epcs_flash_controller.o)
 .debug_frame   0x00002a7c       0x80 ../legocar_firmware_microc_bsp//libucosii_bsp.a(altera_avalon_jtag_uart_fd.o)
 .debug_frame   0x00002afc       0x80 ../legocar_firmware_microc_bsp//libucosii_bsp.a(altera_avalon_jtag_uart_init.o)
 .debug_frame   0x00002b7c       0x2c ../legocar_firmware_microc_bsp//libucosii_bsp.a(altera_avalon_jtag_uart_ioctl.o)
 .debug_frame   0x00002ba8       0x2c ../legocar_firmware_microc_bsp//libucosii_bsp.a(altera_avalon_jtag_uart_read.o)
 .debug_frame   0x00002bd4       0x2c ../legocar_firmware_microc_bsp//libucosii_bsp.a(altera_avalon_jtag_uart_write.o)
 .debug_frame   0x00002c00       0x48 ../legocar_firmware_microc_bsp//libucosii_bsp.a(altera_avalon_timer_sc.o)
 .debug_frame   0x00002c48       0x64 ../legocar_firmware_microc_bsp//libucosii_bsp.a(altera_avalon_uart_fd.o)
 .debug_frame   0x00002cac       0x9c ../legocar_firmware_microc_bsp//libucosii_bsp.a(altera_avalon_uart_init.o)
 .debug_frame   0x00002d48       0x48 ../legocar_firmware_microc_bsp//libucosii_bsp.a(altera_avalon_uart_read.o)
 .debug_frame   0x00002d90       0x48 ../legocar_firmware_microc_bsp//libucosii_bsp.a(altera_avalon_uart_write.o)
 .debug_frame   0x00002dd8      0x160 ../legocar_firmware_microc_bsp//libucosii_bsp.a(epcs_commands.o)
 .debug_frame   0x00002f38       0x2c ../legocar_firmware_microc_bsp//libucosii_bsp.a(alt_alarm_start.o)
 .debug_frame   0x00002f64       0x2c ../legocar_firmware_microc_bsp//libucosii_bsp.a(alt_busy_sleep.o)
 .debug_frame   0x00002f90       0x48 ../legocar_firmware_microc_bsp//libucosii_bsp.a(alt_dev_llist_insert.o)
 .debug_frame   0x00002fd8       0x2c ../legocar_firmware_microc_bsp//libucosii_bsp.a(alt_do_ctors.o)
 .debug_frame   0x00003004       0x2c ../legocar_firmware_microc_bsp//libucosii_bsp.a(alt_do_dtors.o)
 .debug_frame   0x00003030       0x2c ../legocar_firmware_microc_bsp//libucosii_bsp.a(alt_find_dev.o)
 .debug_frame   0x0000305c       0x2c ../legocar_firmware_microc_bsp//libucosii_bsp.a(alt_icache_flush_all.o)
 .debug_frame   0x00003088       0x80 ../legocar_firmware_microc_bsp//libucosii_bsp.a(alt_iic.o)
 .debug_frame   0x00003108       0x2c ../legocar_firmware_microc_bsp//libucosii_bsp.a(alt_iic_isr_register.o)
 .debug_frame   0x00003134       0x4c ../legocar_firmware_microc_bsp//libucosii_bsp.a(alt_io_redirect.o)
 .debug_frame   0x00003180       0x2c ../legocar_firmware_microc_bsp//libucosii_bsp.a(alt_irq_handler.o)
 .debug_frame   0x000031ac       0x68 ../legocar_firmware_microc_bsp//libucosii_bsp.a(alt_open.o)
 .debug_frame   0x00003214       0x2c ../legocar_firmware_microc_bsp//libucosii_bsp.a(altera_nios2_irq.o)
 .debug_frame   0x00003240      0x128 ../legocar_firmware_microc_bsp//libucosii_bsp.a(os_cpu_c.o)
 .debug_frame   0x00003368       0x2c ../legocar_firmware_microc_bsp//libucosii_bsp.a(altera_avalon_spi.o)
 .debug_frame   0x00003394       0x2c ../legocar_firmware_microc_bsp//libucosii_bsp.a(alt_find_file.o)
 .debug_frame   0x000033c0       0x30 ../legocar_firmware_microc_bsp//libucosii_bsp.a(alt_get_fd.o)
 .debug_frame   0x000033f0       0x20 /opt/altera/nios2eds/bin/gnu/H-i686-pc-linux-gnu/bin/../lib/gcc/nios2-elf/4.7.3/../../../../../H-i686-pc-linux-gnu/nios2-elf/lib/mno-hw-mul/libc.a(lib_a-atexit.o)
 .debug_frame   0x00003410       0x28 /opt/altera/nios2eds/bin/gnu/H-i686-pc-linux-gnu/bin/../lib/gcc/nios2-elf/4.7.3/../../../../../H-i686-pc-linux-gnu/nios2-elf/lib/mno-hw-mul/libc.a(lib_a-exit.o)
 .debug_frame   0x00003438       0x20 /opt/altera/nios2eds/bin/gnu/H-i686-pc-linux-gnu/bin/../lib/gcc/nios2-elf/4.7.3/../../../../../H-i686-pc-linux-gnu/nios2-elf/lib/mno-hw-mul/libc.a(lib_a-memcmp.o)
 .debug_frame   0x00003458       0x2c /opt/altera/nios2eds/bin/gnu/H-i686-pc-linux-gnu/bin/../lib/gcc/nios2-elf/4.7.3/../../../../../H-i686-pc-linux-gnu/nios2-elf/lib/mno-hw-mul/libc.a(lib_a-__atexit.o)
 .debug_frame   0x00003484       0x38 /opt/altera/nios2eds/bin/gnu/H-i686-pc-linux-gnu/bin/../lib/gcc/nios2-elf/4.7.3/../../../../../H-i686-pc-linux-gnu/nios2-elf/lib/mno-hw-mul/libc.a(lib_a-__call_atexit.o)

.debug_str      0x00000000     0x534d
 *(.debug_str)
 .debug_str     0x00000000      0x1f2 obj/default/ins.o
                                0x25e (size before relaxing)
 .debug_str     0x000001f2      0x109 obj/default/legocar.o
                                0x258 (size before relaxing)
 .debug_str     0x000002fb       0x73 obj/default/main.o
                                0x2a5 (size before relaxing)
 .debug_str     0x0000036e       0x55 obj/default/pwm_motor.o
                                0x1b7 (size before relaxing)
 .debug_str     0x000003c3      0x114 obj/default/terasic_lib/I2C.o
                                0x2a0 (size before relaxing)
 .debug_str     0x000004d7       0xe7 obj/default/terasic_lib/accelerometer_adxl345_spi.o
                                0x273 (size before relaxing)
 .debug_str     0x000005be       0x55 obj/default/terasic_lib/adc_spi_read.o
                                0x1ce (size before relaxing)
 .debug_str     0x00000613      0x340 obj/default/terasic_lib/flash.o
                                0x550 (size before relaxing)
 .debug_str     0x00000953      0x113 obj/default/terasic_lib/terasic_spi.o
                                0x29e (size before relaxing)
 .debug_str     0x00000a66       0x5b obj/default/wheel_direction.o
                                0x1e8 (size before relaxing)
 .debug_str     0x00000ac1       0xee /opt/altera/nios2eds/bin/gnu/H-i686-pc-linux-gnu/bin/../lib/gcc/nios2-elf/4.7.3/mno-hw-mul/libgcc.a(_fixunsdfsi.o)
                                0x177 (size before relaxing)
 .debug_str     0x00000baf      0x174 /opt/altera/nios2eds/bin/gnu/H-i686-pc-linux-gnu/bin/../lib/gcc/nios2-elf/4.7.3/mno-hw-mul/libgcc.a(_addsub_sf.o)
                                0x2b2 (size before relaxing)
 .debug_str     0x00000d23       0x2a /opt/altera/nios2eds/bin/gnu/H-i686-pc-linux-gnu/bin/../lib/gcc/nios2-elf/4.7.3/mno-hw-mul/libgcc.a(_mul_sf.o)
                                0x269 (size before relaxing)
 .debug_str     0x00000d4d       0x20 /opt/altera/nios2eds/bin/gnu/H-i686-pc-linux-gnu/bin/../lib/gcc/nios2-elf/4.7.3/mno-hw-mul/libgcc.a(_gt_sf.o)
                                0x241 (size before relaxing)
 .debug_str     0x00000d6d        0x8 /opt/altera/nios2eds/bin/gnu/H-i686-pc-linux-gnu/bin/../lib/gcc/nios2-elf/4.7.3/mno-hw-mul/libgcc.a(_ge_sf.o)
                                0x241 (size before relaxing)
 .debug_str     0x00000d75        0x8 /opt/altera/nios2eds/bin/gnu/H-i686-pc-linux-gnu/bin/../lib/gcc/nios2-elf/4.7.3/mno-hw-mul/libgcc.a(_le_sf.o)
                                0x241 (size before relaxing)
 .debug_str     0x00000d7d        0xa /opt/altera/nios2eds/bin/gnu/H-i686-pc-linux-gnu/bin/../lib/gcc/nios2-elf/4.7.3/mno-hw-mul/libgcc.a(_sf_to_si.o)
                                0x239 (size before relaxing)
 .debug_str     0x00000d87       0x18 /opt/altera/nios2eds/bin/gnu/H-i686-pc-linux-gnu/bin/../lib/gcc/nios2-elf/4.7.3/mno-hw-mul/libgcc.a(_sf_to_df.o)
                                0x23c (size before relaxing)
 .debug_str     0x00000000      0x1d0 /opt/altera/nios2eds/bin/gnu/H-i686-pc-linux-gnu/bin/../lib/gcc/nios2-elf/4.7.3/mno-hw-mul/libgcc.a(_thenan_sf.o)
 .debug_str     0x00000d9f       0x24 /opt/altera/nios2eds/bin/gnu/H-i686-pc-linux-gnu/bin/../lib/gcc/nios2-elf/4.7.3/mno-hw-mul/libgcc.a(_usi_to_sf.o)
                                0x219 (size before relaxing)
 .debug_str     0x00000dc3       0x38 /opt/altera/nios2eds/bin/gnu/H-i686-pc-linux-gnu/bin/../lib/gcc/nios2-elf/4.7.3/mno-hw-mul/libgcc.a(_addsub_df.o)
                                0x2b8 (size before relaxing)
 .debug_str     0x00000dfb       0x33 /opt/altera/nios2eds/bin/gnu/H-i686-pc-linux-gnu/bin/../lib/gcc/nios2-elf/4.7.3/mno-hw-mul/libgcc.a(_mul_df.o)
                                0x28a (size before relaxing)
 .debug_str     0x00000e2e       0x35 /opt/altera/nios2eds/bin/gnu/H-i686-pc-linux-gnu/bin/../lib/gcc/nios2-elf/4.7.3/mno-hw-mul/libgcc.a(_div_df.o)
                                0x27a (size before relaxing)
 .debug_str     0x00000e63       0x18 /opt/altera/nios2eds/bin/gnu/H-i686-pc-linux-gnu/bin/../lib/gcc/nios2-elf/4.7.3/mno-hw-mul/libgcc.a(_eq_df.o)
                                0x247 (size before relaxing)
 .debug_str     0x00000e7b        0x8 /opt/altera/nios2eds/bin/gnu/H-i686-pc-linux-gnu/bin/../lib/gcc/nios2-elf/4.7.3/mno-hw-mul/libgcc.a(_ge_df.o)
                                0x247 (size before relaxing)
 .debug_str     0x00000e83       0x11 /opt/altera/nios2eds/bin/gnu/H-i686-pc-linux-gnu/bin/../lib/gcc/nios2-elf/4.7.3/mno-hw-mul/libgcc.a(_si_to_df.o)
                                0x21d (size before relaxing)
 .debug_str     0x00000e94        0xa /opt/altera/nios2eds/bin/gnu/H-i686-pc-linux-gnu/bin/../lib/gcc/nios2-elf/4.7.3/mno-hw-mul/libgcc.a(_df_to_si.o)
                                0x23f (size before relaxing)
 .debug_str     0x00000000        0xa /opt/altera/nios2eds/bin/gnu/H-i686-pc-linux-gnu/bin/../lib/gcc/nios2-elf/4.7.3/mno-hw-mul/libgcc.a(_make_df.o)
                                0x1f8 (size before relaxing)
 .debug_str     0x00000e9e       0x1e /opt/altera/nios2eds/bin/gnu/H-i686-pc-linux-gnu/bin/../lib/gcc/nios2-elf/4.7.3/mno-hw-mul/libgcc.a(_df_to_sf.o)
                                0x240 (size before relaxing)
 .debug_str     0x00000000      0x1d0 /opt/altera/nios2eds/bin/gnu/H-i686-pc-linux-gnu/bin/../lib/gcc/nios2-elf/4.7.3/mno-hw-mul/libgcc.a(_thenan_df.o)
 .debug_str     0x00000ebc       0x7f /opt/altera/nios2eds/bin/gnu/H-i686-pc-linux-gnu/bin/../lib/gcc/nios2-elf/4.7.3/mno-hw-mul/libgcc.a(lib2-divmod.o)
                                0x16a (size before relaxing)
 .debug_str     0x00000f3b       0x42 /opt/altera/nios2eds/bin/gnu/H-i686-pc-linux-gnu/bin/../lib/gcc/nios2-elf/4.7.3/mno-hw-mul/libgcc.a(_muldi3.o)
                                0x1b1 (size before relaxing)
 .debug_str     0x00000f7d       0x17 /opt/altera/nios2eds/bin/gnu/H-i686-pc-linux-gnu/bin/../lib/gcc/nios2-elf/4.7.3/mno-hw-mul/libgcc.a(_clzsi2.o)
                                0x18c (size before relaxing)
 .debug_str     0x00000f94        0x7 /opt/altera/nios2eds/bin/gnu/H-i686-pc-linux-gnu/bin/../lib/gcc/nios2-elf/4.7.3/mno-hw-mul/libgcc.a(_pack_sf.o)
                                0x22d (size before relaxing)
 .debug_str     0x00000000      0x20f /opt/altera/nios2eds/bin/gnu/H-i686-pc-linux-gnu/bin/../lib/gcc/nios2-elf/4.7.3/mno-hw-mul/libgcc.a(_unpack_sf.o)
 .debug_str     0x00000000      0x1f3 /opt/altera/nios2eds/bin/gnu/H-i686-pc-linux-gnu/bin/../lib/gcc/nios2-elf/4.7.3/mno-hw-mul/libgcc.a(_fpcmp_parts_sf.o)
 .debug_str     0x00000000      0x1f8 /opt/altera/nios2eds/bin/gnu/H-i686-pc-linux-gnu/bin/../lib/gcc/nios2-elf/4.7.3/mno-hw-mul/libgcc.a(_make_sf.o)
 .debug_str     0x00000000      0x233 /opt/altera/nios2eds/bin/gnu/H-i686-pc-linux-gnu/bin/../lib/gcc/nios2-elf/4.7.3/mno-hw-mul/libgcc.a(_pack_df.o)
 .debug_str     0x00000000      0x215 /opt/altera/nios2eds/bin/gnu/H-i686-pc-linux-gnu/bin/../lib/gcc/nios2-elf/4.7.3/mno-hw-mul/libgcc.a(_unpack_df.o)
 .debug_str     0x00000000      0x1f3 /opt/altera/nios2eds/bin/gnu/H-i686-pc-linux-gnu/bin/../lib/gcc/nios2-elf/4.7.3/mno-hw-mul/libgcc.a(_fpcmp_parts_df.o)
 .debug_str     0x00000f9b       0x40 /opt/altera/nios2eds/bin/gnu/H-i686-pc-linux-gnu/bin/../lib/gcc/nios2-elf/4.7.3/mno-hw-mul/libgcc.a(lib2-mul.o)
                                0x12b (size before relaxing)
 .debug_str     0x00000fdb       0x23 /opt/altera/nios2eds/bin/gnu/H-i686-pc-linux-gnu/bin/../lib/gcc/nios2-elf/4.7.3/mno-hw-mul/libgcc.a(_lshrdi3.o)
                                0x1a3 (size before relaxing)
 .debug_str     0x00000ffe        0xa /opt/altera/nios2eds/bin/gnu/H-i686-pc-linux-gnu/bin/../lib/gcc/nios2-elf/4.7.3/mno-hw-mul/libgcc.a(_ashldi3.o)
                                0x1a3 (size before relaxing)
 .debug_str     0x00000000      0x16f /opt/altera/nios2eds/bin/gnu/H-i686-pc-linux-gnu/bin/../lib/gcc/nios2-elf/4.7.3/mno-hw-mul/libgcc.a(_clz.o)
 .debug_str     0x00001008      0x433 /opt/altera/nios2eds/bin/gnu/H-i686-pc-linux-gnu/bin/../lib/gcc/nios2-elf/4.7.3/../../../../../H-i686-pc-linux-gnu/nios2-elf/lib/mno-hw-mul/libc.a(lib_a-assert.o)
                                0x55d (size before relaxing)
 .debug_str     0x0000143b      0x113 /opt/altera/nios2eds/bin/gnu/H-i686-pc-linux-gnu/bin/../lib/gcc/nios2-elf/4.7.3/../../../../../H-i686-pc-linux-gnu/nios2-elf/lib/mno-hw-mul/libc.a(lib_a-fiprintf.o)
                                0x568 (size before relaxing)
 .debug_str     0x0000154e       0xf6 /opt/altera/nios2eds/bin/gnu/H-i686-pc-linux-gnu/bin/../lib/gcc/nios2-elf/4.7.3/../../../../../H-i686-pc-linux-gnu/nios2-elf/lib/mno-hw-mul/libc.a(lib_a-impure.o)
                                0x535 (size before relaxing)
 .debug_str     0x00001644       0x5c /opt/altera/nios2eds/bin/gnu/H-i686-pc-linux-gnu/bin/../lib/gcc/nios2-elf/4.7.3/../../../../../H-i686-pc-linux-gnu/nios2-elf/lib/mno-hw-mul/libc.a(lib_a-malloc.o)
                                0x549 (size before relaxing)
 .debug_str     0x000016a0      0x22b /opt/altera/nios2eds/bin/gnu/H-i686-pc-linux-gnu/bin/../lib/gcc/nios2-elf/4.7.3/../../../../../H-i686-pc-linux-gnu/nios2-elf/lib/mno-hw-mul/libc.a(lib_a-mallocr.o)
                                0x744 (size before relaxing)
 .debug_str     0x000018cb       0x72 /opt/altera/nios2eds/bin/gnu/H-i686-pc-linux-gnu/bin/../lib/gcc/nios2-elf/4.7.3/../../../../../H-i686-pc-linux-gnu/nios2-elf/lib/mno-hw-mul/libc.a(lib_a-printf.o)
                                0x580 (size before relaxing)
 .debug_str     0x0000193d       0x98 /opt/altera/nios2eds/bin/gnu/H-i686-pc-linux-gnu/bin/../lib/gcc/nios2-elf/4.7.3/../../../../../H-i686-pc-linux-gnu/nios2-elf/lib/mno-hw-mul/libc.a(lib_a-puts.o)
                                0x57d (size before relaxing)
 .debug_str     0x000019d5       0x46 /opt/altera/nios2eds/bin/gnu/H-i686-pc-linux-gnu/bin/../lib/gcc/nios2-elf/4.7.3/../../../../../H-i686-pc-linux-gnu/nios2-elf/lib/mno-hw-mul/libc.a(lib_a-sbrkr.o)
                                0x52b (size before relaxing)
 .debug_str     0x00001a1b       0xe6 /opt/altera/nios2eds/bin/gnu/H-i686-pc-linux-gnu/bin/../lib/gcc/nios2-elf/4.7.3/../../../../../H-i686-pc-linux-gnu/nios2-elf/lib/mno-hw-mul/libc.a(lib_a-strlen.o)
                                0x198 (size before relaxing)
 .debug_str     0x00001b01       0x5b /opt/altera/nios2eds/bin/gnu/H-i686-pc-linux-gnu/bin/../lib/gcc/nios2-elf/4.7.3/../../../../../H-i686-pc-linux-gnu/nios2-elf/lib/mno-hw-mul/libc.a(lib_a-vfiprintfr_1.o)
                                0x568 (size before relaxing)
 .debug_str     0x00001b5c      0x291 /opt/altera/nios2eds/bin/gnu/H-i686-pc-linux-gnu/bin/../lib/gcc/nios2-elf/4.7.3/../../../../../H-i686-pc-linux-gnu/nios2-elf/lib/mno-hw-mul/libc.a(lib_a-vfprintf.o)
                                0x897 (size before relaxing)
 .debug_str     0x00001ded       0x4a /opt/altera/nios2eds/bin/gnu/H-i686-pc-linux-gnu/bin/../lib/gcc/nios2-elf/4.7.3/../../../../../H-i686-pc-linux-gnu/nios2-elf/lib/mno-hw-mul/libc.a(lib_a-wsetup.o)
                                0x544 (size before relaxing)
 .debug_str     0x00001e37       0x43 /opt/altera/nios2eds/bin/gnu/H-i686-pc-linux-gnu/bin/../lib/gcc/nios2-elf/4.7.3/../../../../../H-i686-pc-linux-gnu/nios2-elf/lib/mno-hw-mul/libc.a(lib_a-abort.o)
                                0x188 (size before relaxing)
 .debug_str     0x00001e7a      0x161 /opt/altera/nios2eds/bin/gnu/H-i686-pc-linux-gnu/bin/../lib/gcc/nios2-elf/4.7.3/../../../../../H-i686-pc-linux-gnu/nios2-elf/lib/mno-hw-mul/libc.a(lib_a-dtoa.o)
                                0x687 (size before relaxing)
 .debug_str     0x00001fdb       0x4b /opt/altera/nios2eds/bin/gnu/H-i686-pc-linux-gnu/bin/../lib/gcc/nios2-elf/4.7.3/../../../../../H-i686-pc-linux-gnu/nios2-elf/lib/mno-hw-mul/libc.a(lib_a-fflush.o)
                                0x562 (size before relaxing)
 .debug_str     0x00002026      0x104 /opt/altera/nios2eds/bin/gnu/H-i686-pc-linux-gnu/bin/../lib/gcc/nios2-elf/4.7.3/../../../../../H-i686-pc-linux-gnu/nios2-elf/lib/mno-hw-mul/libc.a(lib_a-findfp.o)
                                0x62e (size before relaxing)
 .debug_str     0x0000212a       0x34 /opt/altera/nios2eds/bin/gnu/H-i686-pc-linux-gnu/bin/../lib/gcc/nios2-elf/4.7.3/../../../../../H-i686-pc-linux-gnu/nios2-elf/lib/mno-hw-mul/libc.a(lib_a-freer.o)
                                0x68e (size before relaxing)
 .debug_str     0x0000215e       0x6f /opt/altera/nios2eds/bin/gnu/H-i686-pc-linux-gnu/bin/../lib/gcc/nios2-elf/4.7.3/../../../../../H-i686-pc-linux-gnu/nios2-elf/lib/mno-hw-mul/libc.a(lib_a-fvwrite.o)
                                0x5c7 (size before relaxing)
 .debug_str     0x000021cd       0x61 /opt/altera/nios2eds/bin/gnu/H-i686-pc-linux-gnu/bin/../lib/gcc/nios2-elf/4.7.3/../../../../../H-i686-pc-linux-gnu/nios2-elf/lib/mno-hw-mul/libc.a(lib_a-fwalk.o)
                                0x576 (size before relaxing)
 .debug_str     0x0000222e       0x40 /opt/altera/nios2eds/bin/gnu/H-i686-pc-linux-gnu/bin/../lib/gcc/nios2-elf/4.7.3/../../../../../H-i686-pc-linux-gnu/nios2-elf/lib/mno-hw-mul/libc.a(lib_a-int_errno.o)
                                0x17e (size before relaxing)
 .debug_str     0x0000226e      0x15b /opt/altera/nios2eds/bin/gnu/H-i686-pc-linux-gnu/bin/../lib/gcc/nios2-elf/4.7.3/../../../../../H-i686-pc-linux-gnu/nios2-elf/lib/mno-hw-mul/libc.a(lib_a-locale.o)
                                0x6cb (size before relaxing)
 .debug_str     0x000023c9      0x12c /opt/altera/nios2eds/bin/gnu/H-i686-pc-linux-gnu/bin/../lib/gcc/nios2-elf/4.7.3/../../../../../H-i686-pc-linux-gnu/nios2-elf/lib/mno-hw-mul/libc.a(lib_a-makebuf.o)
                                0x63e (size before relaxing)
 .debug_str     0x000024f5       0x4c /opt/altera/nios2eds/bin/gnu/H-i686-pc-linux-gnu/bin/../lib/gcc/nios2-elf/4.7.3/../../../../../H-i686-pc-linux-gnu/nios2-elf/lib/mno-hw-mul/libc.a(lib_a-memchr.o)
                                0x1a6 (size before relaxing)
 .debug_str     0x00002541       0x65 /opt/altera/nios2eds/bin/gnu/H-i686-pc-linux-gnu/bin/../lib/gcc/nios2-elf/4.7.3/../../../../../H-i686-pc-linux-gnu/nios2-elf/lib/mno-hw-mul/libc.a(lib_a-memcpy.o)
                                0x135 (size before relaxing)
 .debug_str     0x000025a6       0x48 /opt/altera/nios2eds/bin/gnu/H-i686-pc-linux-gnu/bin/../lib/gcc/nios2-elf/4.7.3/../../../../../H-i686-pc-linux-gnu/nios2-elf/lib/mno-hw-mul/libc.a(lib_a-memmove.o)
                                0x1b8 (size before relaxing)
 .debug_str     0x000025ee       0x3e /opt/altera/nios2eds/bin/gnu/H-i686-pc-linux-gnu/bin/../lib/gcc/nios2-elf/4.7.3/../../../../../H-i686-pc-linux-gnu/nios2-elf/lib/mno-hw-mul/libc.a(lib_a-memset.o)
                                0x199 (size before relaxing)
 .debug_str     0x0000262c       0xa8 /opt/altera/nios2eds/bin/gnu/H-i686-pc-linux-gnu/bin/../lib/gcc/nios2-elf/4.7.3/../../../../../H-i686-pc-linux-gnu/nios2-elf/lib/mno-hw-mul/libc.a(lib_a-mprec.o)
                                0x641 (size before relaxing)
 .debug_str     0x000026d4       0x49 /opt/altera/nios2eds/bin/gnu/H-i686-pc-linux-gnu/bin/../lib/gcc/nios2-elf/4.7.3/../../../../../H-i686-pc-linux-gnu/nios2-elf/lib/mno-hw-mul/libc.a(lib_a-reallocr.o)
                                0x616 (size before relaxing)
 .debug_str     0x0000271d       0xe5 /opt/altera/nios2eds/bin/gnu/H-i686-pc-linux-gnu/bin/../lib/gcc/nios2-elf/4.7.3/../../../../../H-i686-pc-linux-gnu/nios2-elf/lib/mno-hw-mul/libc.a(lib_a-s_isinfd.o)
                                0x1b0 (size before relaxing)
 .debug_str     0x00002802       0x40 /opt/altera/nios2eds/bin/gnu/H-i686-pc-linux-gnu/bin/../lib/gcc/nios2-elf/4.7.3/../../../../../H-i686-pc-linux-gnu/nios2-elf/lib/mno-hw-mul/libc.a(lib_a-s_isnand.o)
                                0x1b0 (size before relaxing)
 .debug_str     0x00002842      0x13f /opt/altera/nios2eds/bin/gnu/H-i686-pc-linux-gnu/bin/../lib/gcc/nios2-elf/4.7.3/../../../../../H-i686-pc-linux-gnu/nios2-elf/lib/mno-hw-mul/libc.a(lib_a-signal.o)
                                0x5ab (size before relaxing)
 .debug_str     0x00002981       0x50 /opt/altera/nios2eds/bin/gnu/H-i686-pc-linux-gnu/bin/../lib/gcc/nios2-elf/4.7.3/../../../../../H-i686-pc-linux-gnu/nios2-elf/lib/mno-hw-mul/libc.a(lib_a-signalr.o)
                                0x535 (size before relaxing)
 .debug_str     0x000029d1       0x91 /opt/altera/nios2eds/bin/gnu/H-i686-pc-linux-gnu/bin/../lib/gcc/nios2-elf/4.7.3/../../../../../H-i686-pc-linux-gnu/nios2-elf/lib/mno-hw-mul/libc.a(lib_a-stdio.o)
                                0x57f (size before relaxing)
 .debug_str     0x00002a62       0x3e /opt/altera/nios2eds/bin/gnu/H-i686-pc-linux-gnu/bin/../lib/gcc/nios2-elf/4.7.3/../../../../../H-i686-pc-linux-gnu/nios2-elf/lib/mno-hw-mul/libc.a(lib_a-strcmp.o)
                                0x17e (size before relaxing)
 .debug_str     0x00002aa0       0x15 /opt/altera/nios2eds/bin/gnu/H-i686-pc-linux-gnu/bin/../lib/gcc/nios2-elf/4.7.3/../../../../../H-i686-pc-linux-gnu/nios2-elf/lib/mno-hw-mul/libc.a(lib_a-vfiprintf.o)
                                0x6e6 (size before relaxing)
 .debug_str     0x00002ab5       0x3d /opt/altera/nios2eds/bin/gnu/H-i686-pc-linux-gnu/bin/../lib/gcc/nios2-elf/4.7.3/../../../../../H-i686-pc-linux-gnu/nios2-elf/lib/mno-hw-mul/libc.a(lib_a-writer.o)
                                0x52f (size before relaxing)
 .debug_str     0x00002af2        0xf /opt/altera/nios2eds/bin/gnu/H-i686-pc-linux-gnu/bin/../lib/gcc/nios2-elf/4.7.3/../../../../../H-i686-pc-linux-gnu/nios2-elf/lib/mno-hw-mul/libc.a(lib_a-callocr.o)
                                0x56e (size before relaxing)
 .debug_str     0x00002b01       0x3d /opt/altera/nios2eds/bin/gnu/H-i686-pc-linux-gnu/bin/../lib/gcc/nios2-elf/4.7.3/../../../../../H-i686-pc-linux-gnu/nios2-elf/lib/mno-hw-mul/libc.a(lib_a-closer.o)
                                0x51f (size before relaxing)
 .debug_str     0x00002b3e       0x4e /opt/altera/nios2eds/bin/gnu/H-i686-pc-linux-gnu/bin/../lib/gcc/nios2-elf/4.7.3/../../../../../H-i686-pc-linux-gnu/nios2-elf/lib/mno-hw-mul/libc.a(lib_a-fclose.o)
                                0x571 (size before relaxing)
 .debug_str     0x00002b8c       0x49 /opt/altera/nios2eds/bin/gnu/H-i686-pc-linux-gnu/bin/../lib/gcc/nios2-elf/4.7.3/../../../../../H-i686-pc-linux-gnu/nios2-elf/lib/mno-hw-mul/libc.a(lib_a-fstatr.o)
                                0x612 (size before relaxing)
 .debug_str     0x00002bd5       0x45 /opt/altera/nios2eds/bin/gnu/H-i686-pc-linux-gnu/bin/../lib/gcc/nios2-elf/4.7.3/../../../../../H-i686-pc-linux-gnu/nios2-elf/lib/mno-hw-mul/libc.a(lib_a-isattyr.o)
                                0x522 (size before relaxing)
 .debug_str     0x00002c1a       0x43 /opt/altera/nios2eds/bin/gnu/H-i686-pc-linux-gnu/bin/../lib/gcc/nios2-elf/4.7.3/../../../../../H-i686-pc-linux-gnu/nios2-elf/lib/mno-hw-mul/libc.a(lib_a-lseekr.o)
                                0x533 (size before relaxing)
 .debug_str     0x00002c5d       0x3c /opt/altera/nios2eds/bin/gnu/H-i686-pc-linux-gnu/bin/../lib/gcc/nios2-elf/4.7.3/../../../../../H-i686-pc-linux-gnu/nios2-elf/lib/mno-hw-mul/libc.a(lib_a-readr.o)
                                0x52c (size before relaxing)
 .debug_str     0x00002c99       0x35 /opt/altera/nios2eds/bin/gnu/H-i686-pc-linux-gnu/bin/../lib/gcc/nios2-elf/4.7.3/mno-hw-mul/libgcc.a(_udivdi3.o)
                                0x205 (size before relaxing)
 .debug_str     0x00002cce        0xa /opt/altera/nios2eds/bin/gnu/H-i686-pc-linux-gnu/bin/../lib/gcc/nios2-elf/4.7.3/mno-hw-mul/libgcc.a(_umoddi3.o)
                                0x205 (size before relaxing)
 .debug_str     0x00002cd8        0x8 /opt/altera/nios2eds/bin/gnu/H-i686-pc-linux-gnu/bin/../lib/gcc/nios2-elf/4.7.3/mno-hw-mul/libgcc.a(_ne_df.o)
                                0x247 (size before relaxing)
 .debug_str     0x00002ce0        0x8 /opt/altera/nios2eds/bin/gnu/H-i686-pc-linux-gnu/bin/../lib/gcc/nios2-elf/4.7.3/mno-hw-mul/libgcc.a(_gt_df.o)
                                0x247 (size before relaxing)
 .debug_str     0x00002ce8        0x8 /opt/altera/nios2eds/bin/gnu/H-i686-pc-linux-gnu/bin/../lib/gcc/nios2-elf/4.7.3/mno-hw-mul/libgcc.a(_lt_df.o)
                                0x247 (size before relaxing)
 .debug_str     0x00002cf0        0xe /opt/altera/nios2eds/bin/gnu/H-i686-pc-linux-gnu/bin/../lib/gcc/nios2-elf/4.7.3/mno-hw-mul/libgcc.a(_usi_to_df.o)
                                0x219 (size before relaxing)
 .debug_str     0x00002cfe       0xd1 ../legocar_firmware_microc_bsp//libucosii_bsp.a(alt_close.o)
                                0x215 (size before relaxing)
 .debug_str     0x00002dcf       0x2c ../legocar_firmware_microc_bsp//libucosii_bsp.a(alt_dcache_flush.o)
                                0x135 (size before relaxing)
 .debug_str     0x00002dfb       0x34 ../legocar_firmware_microc_bsp//libucosii_bsp.a(alt_dcache_flush_all.o)
                                0x12f (size before relaxing)
 .debug_str     0x00002e2f       0xbd ../legocar_firmware_microc_bsp//libucosii_bsp.a(alt_dev.o)
                                0x383 (size before relaxing)
 .debug_str     0x00002eec       0x14 ../legocar_firmware_microc_bsp//libucosii_bsp.a(alt_errno.o)
                                0x11f (size before relaxing)
 .debug_str     0x00002f00       0x3c ../legocar_firmware_microc_bsp//libucosii_bsp.a(alt_exit.o)
                                0x16d (size before relaxing)
 .debug_str     0x00002f3c       0x3f ../legocar_firmware_microc_bsp//libucosii_bsp.a(alt_flash_dev.o)
                                0x2f9 (size before relaxing)
 .debug_str     0x00002f7b       0x14 ../legocar_firmware_microc_bsp//libucosii_bsp.a(alt_fstat.o)
                                0x2f6 (size before relaxing)
 .debug_str     0x00002f8f       0x15 ../legocar_firmware_microc_bsp//libucosii_bsp.a(alt_getpid.o)
                                 0x85 (size before relaxing)
 .debug_str     0x00002fa4       0x15 ../legocar_firmware_microc_bsp//libucosii_bsp.a(alt_isatty.o)
                                0x2fe (size before relaxing)
 .debug_str     0x00002fb9       0x1a ../legocar_firmware_microc_bsp//libucosii_bsp.a(alt_kill.o)
                                0x138 (size before relaxing)
 .debug_str     0x00002fd3       0xe9 ../legocar_firmware_microc_bsp//libucosii_bsp.a(alt_load.o)
                                0x1ec (size before relaxing)
 .debug_str     0x000030bc       0x14 ../legocar_firmware_microc_bsp//libucosii_bsp.a(alt_lseek.o)
                                0x21b (size before relaxing)
 .debug_str     0x000030d0       0x5d ../legocar_firmware_microc_bsp//libucosii_bsp.a(alt_main.o)
                                0x23a (size before relaxing)
 .debug_str     0x0000312d       0x13 ../legocar_firmware_microc_bsp//libucosii_bsp.a(alt_read.o)
                                0x301 (size before relaxing)
 .debug_str     0x00003140       0x28 ../legocar_firmware_microc_bsp//libucosii_bsp.a(alt_release_fd.o)
                                0x1ff (size before relaxing)
 .debug_str     0x00003168       0x98 ../legocar_firmware_microc_bsp//libucosii_bsp.a(alt_sbrk.o)
                                0x1ae (size before relaxing)
 .debug_str     0x00003200       0x7e ../legocar_firmware_microc_bsp//libucosii_bsp.a(alt_tick.o)
                                0x239 (size before relaxing)
 .debug_str     0x0000327e       0x27 ../legocar_firmware_microc_bsp//libucosii_bsp.a(alt_usleep.o)
                                0x190 (size before relaxing)
 .debug_str     0x000032a5       0x14 ../legocar_firmware_microc_bsp//libucosii_bsp.a(alt_write.o)
                                0x302 (size before relaxing)
 .debug_str     0x000032b9      0x246 ../legocar_firmware_microc_bsp//libucosii_bsp.a(alt_env_lock.o)
                                0x781 (size before relaxing)
 .debug_str     0x000034ff       0x24 ../legocar_firmware_microc_bsp//libucosii_bsp.a(alt_malloc_lock.o)
                                0x7e3 (size before relaxing)
 .debug_str     0x00003523      0x531 ../legocar_firmware_microc_bsp//libucosii_bsp.a(os_core.o)
                                0x930 (size before relaxing)
 .debug_str     0x00003a54      0x2e5 ../legocar_firmware_microc_bsp//libucosii_bsp.a(os_dbg.o)
                                0x89f (size before relaxing)
 .debug_str     0x00003d39      0x136 ../legocar_firmware_microc_bsp//libucosii_bsp.a(os_flag.o)
                                0x5cc (size before relaxing)
 .debug_str     0x00003e6f       0xcf ../legocar_firmware_microc_bsp//libucosii_bsp.a(os_mem.o)
                                0x2d5 (size before relaxing)
 .debug_str     0x00003f3e       0xc0 ../legocar_firmware_microc_bsp//libucosii_bsp.a(os_q.o)
                                0x54f (size before relaxing)
 .debug_str     0x00003ffe       0x77 ../legocar_firmware_microc_bsp//libucosii_bsp.a(os_sem.o)
                                0x4d8 (size before relaxing)
 .debug_str     0x00004075      0x113 ../legocar_firmware_microc_bsp//libucosii_bsp.a(os_task.o)
                                0x5db (size before relaxing)
 .debug_str     0x00004188       0x67 ../legocar_firmware_microc_bsp//libucosii_bsp.a(os_time.o)
                                0x47b (size before relaxing)
 .debug_str     0x000041ef      0x24f ../legocar_firmware_microc_bsp//libucosii_bsp.a(alt_sys_init.o)
                                0x677 (size before relaxing)
 .debug_str     0x0000443e      0x1da ../legocar_firmware_microc_bsp//libucosii_bsp.a(altera_avalon_epcs_flash_controller.o)
                                0x521 (size before relaxing)
 .debug_str     0x00004618       0xac ../legocar_firmware_microc_bsp//libucosii_bsp.a(altera_avalon_jtag_uart_fd.o)
                                0x46e (size before relaxing)
 .debug_str     0x000046c4       0xe1 ../legocar_firmware_microc_bsp//libucosii_bsp.a(altera_avalon_jtag_uart_init.o)
                                0x435 (size before relaxing)
 .debug_str     0x000047a5       0x4a ../legocar_firmware_microc_bsp//libucosii_bsp.a(altera_avalon_jtag_uart_ioctl.o)
                                0x35d (size before relaxing)
 .debug_str     0x000047ef       0x63 ../legocar_firmware_microc_bsp//libucosii_bsp.a(altera_avalon_jtag_uart_read.o)
                                0x3d0 (size before relaxing)
 .debug_str     0x00004852       0x4a ../legocar_firmware_microc_bsp//libucosii_bsp.a(altera_avalon_jtag_uart_write.o)
                                0x3d1 (size before relaxing)
 .debug_str     0x0000489c       0x66 ../legocar_firmware_microc_bsp//libucosii_bsp.a(altera_avalon_timer_sc.o)
                                0x225 (size before relaxing)
 .debug_str     0x00004902       0x77 ../legocar_firmware_microc_bsp//libucosii_bsp.a(altera_avalon_uart_fd.o)
                                0x3da (size before relaxing)
 .debug_str     0x00004979       0xa0 ../legocar_firmware_microc_bsp//libucosii_bsp.a(altera_avalon_uart_init.o)
                                0x3cf (size before relaxing)
 .debug_str     0x00004a19       0x4f ../legocar_firmware_microc_bsp//libucosii_bsp.a(altera_avalon_uart_read.o)
                                0x3a3 (size before relaxing)
 .debug_str     0x00004a68       0x49 ../legocar_firmware_microc_bsp//libucosii_bsp.a(altera_avalon_uart_write.o)
                                0x397 (size before relaxing)
 .debug_str     0x00004ab1      0x16a ../legocar_firmware_microc_bsp//libucosii_bsp.a(epcs_commands.o)
                                0x2b9 (size before relaxing)
 .debug_str     0x00004c1b       0x4a ../legocar_firmware_microc_bsp//libucosii_bsp.a(alt_alarm_start.o)
                                0x258 (size before relaxing)
 .debug_str     0x00004c65       0x42 ../legocar_firmware_microc_bsp//libucosii_bsp.a(alt_busy_sleep.o)
                                0x145 (size before relaxing)
 .debug_str     0x00004ca7       0x34 ../legocar_firmware_microc_bsp//libucosii_bsp.a(alt_dev_llist_insert.o)
                                0x1a6 (size before relaxing)
 .debug_str     0x00004cdb       0x48 ../legocar_firmware_microc_bsp//libucosii_bsp.a(alt_do_ctors.o)
                                 0xb6 (size before relaxing)
 .debug_str     0x00004d23       0x4c ../legocar_firmware_microc_bsp//libucosii_bsp.a(alt_do_dtors.o)
                                 0xb5 (size before relaxing)
 .debug_str     0x00004d6f       0x24 ../legocar_firmware_microc_bsp//libucosii_bsp.a(alt_find_dev.o)
                                0x1f6 (size before relaxing)
 .debug_str     0x00004d93       0x34 ../legocar_firmware_microc_bsp//libucosii_bsp.a(alt_icache_flush_all.o)
                                0x12f (size before relaxing)
 .debug_str     0x00004dc7       0xbd ../legocar_firmware_microc_bsp//libucosii_bsp.a(alt_iic.o)
                                0x218 (size before relaxing)
 .debug_str     0x00004e84       0x4c ../legocar_firmware_microc_bsp//libucosii_bsp.a(alt_iic_isr_register.o)
                                0x1c2 (size before relaxing)
 .debug_str     0x00004ed0       0x56 ../legocar_firmware_microc_bsp//libucosii_bsp.a(alt_io_redirect.o)
                                0x320 (size before relaxing)
 .debug_str     0x00004f26       0x3a ../legocar_firmware_microc_bsp//libucosii_bsp.a(alt_irq_handler.o)
                                0x199 (size before relaxing)
 .debug_str     0x00004f60       0x17 ../legocar_firmware_microc_bsp//libucosii_bsp.a(alt_irq_vars.o)
                                0x120 (size before relaxing)
 .debug_str     0x00004f77       0x29 ../legocar_firmware_microc_bsp//libucosii_bsp.a(alt_open.o)
                                0x24d (size before relaxing)
 .debug_str     0x00004fa0       0x31 ../legocar_firmware_microc_bsp//libucosii_bsp.a(altera_nios2_irq.o)
                                0x12c (size before relaxing)
 .debug_str     0x00004fd1       0xd5 ../legocar_firmware_microc_bsp//libucosii_bsp.a(os_cpu_c.o)
                                0x7f6 (size before relaxing)
 .debug_str     0x000050a6       0xa5 ../legocar_firmware_microc_bsp//libucosii_bsp.a(altera_avalon_spi.o)
                                0x1ba (size before relaxing)
 .debug_str     0x0000514b       0x26 ../legocar_firmware_microc_bsp//libucosii_bsp.a(alt_find_file.o)
                                0x204 (size before relaxing)
 .debug_str     0x00005171       0x30 ../legocar_firmware_microc_bsp//libucosii_bsp.a(alt_get_fd.o)
                                0x2a2 (size before relaxing)
 .debug_str     0x000051a1       0x82 /opt/altera/nios2eds/bin/gnu/H-i686-pc-linux-gnu/bin/../lib/gcc/nios2-elf/4.7.3/../../../../../H-i686-pc-linux-gnu/nios2-elf/lib/mno-hw-mul/libc.a(lib_a-atexit.o)
                                0x21e (size before relaxing)
 .debug_str     0x00005223       0x4d /opt/altera/nios2eds/bin/gnu/H-i686-pc-linux-gnu/bin/../lib/gcc/nios2-elf/4.7.3/../../../../../H-i686-pc-linux-gnu/nios2-elf/lib/mno-hw-mul/libc.a(lib_a-exit.o)
                                0x53e (size before relaxing)
 .debug_str     0x00005270       0x3e /opt/altera/nios2eds/bin/gnu/H-i686-pc-linux-gnu/bin/../lib/gcc/nios2-elf/4.7.3/../../../../../H-i686-pc-linux-gnu/nios2-elf/lib/mno-hw-mul/libc.a(lib_a-memcmp.o)
                                0x185 (size before relaxing)
 .debug_str     0x000052ae       0x40 /opt/altera/nios2eds/bin/gnu/H-i686-pc-linux-gnu/bin/../lib/gcc/nios2-elf/4.7.3/../../../../../H-i686-pc-linux-gnu/nios2-elf/lib/mno-hw-mul/libc.a(lib_a-__atexit.o)
                                0x582 (size before relaxing)
 .debug_str     0x000052ee       0x5f /opt/altera/nios2eds/bin/gnu/H-i686-pc-linux-gnu/bin/../lib/gcc/nios2-elf/4.7.3/../../../../../H-i686-pc-linux-gnu/nios2-elf/lib/mno-hw-mul/libc.a(lib_a-__call_atexit.o)
                                0x560 (size before relaxing)

.debug_loc      0x00000000    0x162cf
 *(.debug_loc)
 .debug_loc     0x00000000       0xdd obj/default/ins.o
 .debug_loc     0x000000dd      0x134 obj/default/legocar.o
 .debug_loc     0x00000211       0xb1 obj/default/main.o
 .debug_loc     0x000002c2       0xb0 obj/default/pwm_motor.o
 .debug_loc     0x00000372      0x1b8 obj/default/terasic_lib/I2C.o
 .debug_loc     0x0000052a       0xdc obj/default/terasic_lib/accelerometer_adxl345_spi.o
 .debug_loc     0x00000606       0x2c obj/default/terasic_lib/adc_spi_read.o
 .debug_loc     0x00000632      0x1ba obj/default/terasic_lib/flash.o
 .debug_loc     0x000007ec       0xdc obj/default/terasic_lib/terasic_spi.o
 .debug_loc     0x000008c8       0xb0 obj/default/wheel_direction.o
 .debug_loc     0x00000978       0x48 /opt/altera/nios2eds/bin/gnu/H-i686-pc-linux-gnu/bin/../lib/gcc/nios2-elf/4.7.3/mno-hw-mul/libgcc.a(_fixunsdfsi.o)
 .debug_loc     0x000009c0      0x54d /opt/altera/nios2eds/bin/gnu/H-i686-pc-linux-gnu/bin/../lib/gcc/nios2-elf/4.7.3/mno-hw-mul/libgcc.a(_addsub_sf.o)
 .debug_loc     0x00000f0d      0x1cb /opt/altera/nios2eds/bin/gnu/H-i686-pc-linux-gnu/bin/../lib/gcc/nios2-elf/4.7.3/mno-hw-mul/libgcc.a(_mul_sf.o)
 .debug_loc     0x000010d8       0x66 /opt/altera/nios2eds/bin/gnu/H-i686-pc-linux-gnu/bin/../lib/gcc/nios2-elf/4.7.3/mno-hw-mul/libgcc.a(_gt_sf.o)
 .debug_loc     0x0000113e       0x66 /opt/altera/nios2eds/bin/gnu/H-i686-pc-linux-gnu/bin/../lib/gcc/nios2-elf/4.7.3/mno-hw-mul/libgcc.a(_ge_sf.o)
 .debug_loc     0x000011a4       0x66 /opt/altera/nios2eds/bin/gnu/H-i686-pc-linux-gnu/bin/../lib/gcc/nios2-elf/4.7.3/mno-hw-mul/libgcc.a(_le_sf.o)
 .debug_loc     0x0000120a       0xcc /opt/altera/nios2eds/bin/gnu/H-i686-pc-linux-gnu/bin/../lib/gcc/nios2-elf/4.7.3/mno-hw-mul/libgcc.a(_sf_to_si.o)
 .debug_loc     0x000012d6       0x43 /opt/altera/nios2eds/bin/gnu/H-i686-pc-linux-gnu/bin/../lib/gcc/nios2-elf/4.7.3/mno-hw-mul/libgcc.a(_sf_to_df.o)
 .debug_loc     0x00001319      0x189 /opt/altera/nios2eds/bin/gnu/H-i686-pc-linux-gnu/bin/../lib/gcc/nios2-elf/4.7.3/mno-hw-mul/libgcc.a(_usi_to_sf.o)
 .debug_loc     0x000014a2      0x7a1 /opt/altera/nios2eds/bin/gnu/H-i686-pc-linux-gnu/bin/../lib/gcc/nios2-elf/4.7.3/mno-hw-mul/libgcc.a(_addsub_df.o)
 .debug_loc     0x00001c43      0x3ba /opt/altera/nios2eds/bin/gnu/H-i686-pc-linux-gnu/bin/../lib/gcc/nios2-elf/4.7.3/mno-hw-mul/libgcc.a(_mul_df.o)
 .debug_loc     0x00001ffd      0x25e /opt/altera/nios2eds/bin/gnu/H-i686-pc-linux-gnu/bin/../lib/gcc/nios2-elf/4.7.3/mno-hw-mul/libgcc.a(_div_df.o)
 .debug_loc     0x0000225b       0x70 /opt/altera/nios2eds/bin/gnu/H-i686-pc-linux-gnu/bin/../lib/gcc/nios2-elf/4.7.3/mno-hw-mul/libgcc.a(_eq_df.o)
 .debug_loc     0x000022cb       0x70 /opt/altera/nios2eds/bin/gnu/H-i686-pc-linux-gnu/bin/../lib/gcc/nios2-elf/4.7.3/mno-hw-mul/libgcc.a(_ge_df.o)
 .debug_loc     0x0000233b       0xd3 /opt/altera/nios2eds/bin/gnu/H-i686-pc-linux-gnu/bin/../lib/gcc/nios2-elf/4.7.3/mno-hw-mul/libgcc.a(_si_to_df.o)
 .debug_loc     0x0000240e       0xce /opt/altera/nios2eds/bin/gnu/H-i686-pc-linux-gnu/bin/../lib/gcc/nios2-elf/4.7.3/mno-hw-mul/libgcc.a(_df_to_si.o)
 .debug_loc     0x000024dc       0x8f /opt/altera/nios2eds/bin/gnu/H-i686-pc-linux-gnu/bin/../lib/gcc/nios2-elf/4.7.3/mno-hw-mul/libgcc.a(_make_df.o)
 .debug_loc     0x0000256b       0x5b /opt/altera/nios2eds/bin/gnu/H-i686-pc-linux-gnu/bin/../lib/gcc/nios2-elf/4.7.3/mno-hw-mul/libgcc.a(_df_to_sf.o)
 .debug_loc     0x000025c6      0x338 /opt/altera/nios2eds/bin/gnu/H-i686-pc-linux-gnu/bin/../lib/gcc/nios2-elf/4.7.3/mno-hw-mul/libgcc.a(lib2-divmod.o)
 .debug_loc     0x000028fe      0x1a8 /opt/altera/nios2eds/bin/gnu/H-i686-pc-linux-gnu/bin/../lib/gcc/nios2-elf/4.7.3/mno-hw-mul/libgcc.a(_muldi3.o)
 .debug_loc     0x00002aa6      0x19a /opt/altera/nios2eds/bin/gnu/H-i686-pc-linux-gnu/bin/../lib/gcc/nios2-elf/4.7.3/mno-hw-mul/libgcc.a(_clzsi2.o)
 .debug_loc     0x00002c40      0x2c4 /opt/altera/nios2eds/bin/gnu/H-i686-pc-linux-gnu/bin/../lib/gcc/nios2-elf/4.7.3/mno-hw-mul/libgcc.a(_pack_sf.o)
 .debug_loc     0x00002f04      0x102 /opt/altera/nios2eds/bin/gnu/H-i686-pc-linux-gnu/bin/../lib/gcc/nios2-elf/4.7.3/mno-hw-mul/libgcc.a(_unpack_sf.o)
 .debug_loc     0x00003006       0x7c /opt/altera/nios2eds/bin/gnu/H-i686-pc-linux-gnu/bin/../lib/gcc/nios2-elf/4.7.3/mno-hw-mul/libgcc.a(_fpcmp_parts_sf.o)
 .debug_loc     0x00003082       0xb0 /opt/altera/nios2eds/bin/gnu/H-i686-pc-linux-gnu/bin/../lib/gcc/nios2-elf/4.7.3/mno-hw-mul/libgcc.a(_make_sf.o)
 .debug_loc     0x00003132      0x2ae /opt/altera/nios2eds/bin/gnu/H-i686-pc-linux-gnu/bin/../lib/gcc/nios2-elf/4.7.3/mno-hw-mul/libgcc.a(_pack_df.o)
 .debug_loc     0x000033e0      0x179 /opt/altera/nios2eds/bin/gnu/H-i686-pc-linux-gnu/bin/../lib/gcc/nios2-elf/4.7.3/mno-hw-mul/libgcc.a(_unpack_df.o)
 .debug_loc     0x00003559       0x7c /opt/altera/nios2eds/bin/gnu/H-i686-pc-linux-gnu/bin/../lib/gcc/nios2-elf/4.7.3/mno-hw-mul/libgcc.a(_fpcmp_parts_df.o)
 .debug_loc     0x000035d5       0x93 /opt/altera/nios2eds/bin/gnu/H-i686-pc-linux-gnu/bin/../lib/gcc/nios2-elf/4.7.3/mno-hw-mul/libgcc.a(lib2-mul.o)
 .debug_loc     0x00003668       0xc4 /opt/altera/nios2eds/bin/gnu/H-i686-pc-linux-gnu/bin/../lib/gcc/nios2-elf/4.7.3/mno-hw-mul/libgcc.a(_lshrdi3.o)
 .debug_loc     0x0000372c       0xc4 /opt/altera/nios2eds/bin/gnu/H-i686-pc-linux-gnu/bin/../lib/gcc/nios2-elf/4.7.3/mno-hw-mul/libgcc.a(_ashldi3.o)
 .debug_loc     0x000037f0      0x198 /opt/altera/nios2eds/bin/gnu/H-i686-pc-linux-gnu/bin/../lib/gcc/nios2-elf/4.7.3/../../../../../H-i686-pc-linux-gnu/nios2-elf/lib/mno-hw-mul/libc.a(lib_a-assert.o)
 .debug_loc     0x00003988      0x155 /opt/altera/nios2eds/bin/gnu/H-i686-pc-linux-gnu/bin/../lib/gcc/nios2-elf/4.7.3/../../../../../H-i686-pc-linux-gnu/nios2-elf/lib/mno-hw-mul/libc.a(lib_a-fiprintf.o)
 .debug_loc     0x00003add       0x58 /opt/altera/nios2eds/bin/gnu/H-i686-pc-linux-gnu/bin/../lib/gcc/nios2-elf/4.7.3/../../../../../H-i686-pc-linux-gnu/nios2-elf/lib/mno-hw-mul/libc.a(lib_a-malloc.o)
 .debug_loc     0x00003b35      0xb50 /opt/altera/nios2eds/bin/gnu/H-i686-pc-linux-gnu/bin/../lib/gcc/nios2-elf/4.7.3/../../../../../H-i686-pc-linux-gnu/nios2-elf/lib/mno-hw-mul/libc.a(lib_a-mallocr.o)
 .debug_loc     0x00004685      0x132 /opt/altera/nios2eds/bin/gnu/H-i686-pc-linux-gnu/bin/../lib/gcc/nios2-elf/4.7.3/../../../../../H-i686-pc-linux-gnu/nios2-elf/lib/mno-hw-mul/libc.a(lib_a-printf.o)
 .debug_loc     0x000047b7       0xd9 /opt/altera/nios2eds/bin/gnu/H-i686-pc-linux-gnu/bin/../lib/gcc/nios2-elf/4.7.3/../../../../../H-i686-pc-linux-gnu/nios2-elf/lib/mno-hw-mul/libc.a(lib_a-puts.o)
 .debug_loc     0x00004890       0x86 /opt/altera/nios2eds/bin/gnu/H-i686-pc-linux-gnu/bin/../lib/gcc/nios2-elf/4.7.3/../../../../../H-i686-pc-linux-gnu/nios2-elf/lib/mno-hw-mul/libc.a(lib_a-sbrkr.o)
 .debug_loc     0x00004916       0x52 /opt/altera/nios2eds/bin/gnu/H-i686-pc-linux-gnu/bin/../lib/gcc/nios2-elf/4.7.3/../../../../../H-i686-pc-linux-gnu/nios2-elf/lib/mno-hw-mul/libc.a(lib_a-strlen.o)
 .debug_loc     0x00004968       0xa2 /opt/altera/nios2eds/bin/gnu/H-i686-pc-linux-gnu/bin/../lib/gcc/nios2-elf/4.7.3/../../../../../H-i686-pc-linux-gnu/nios2-elf/lib/mno-hw-mul/libc.a(lib_a-vfiprintfr_1.o)
 .debug_loc     0x00004a0a     0x2f0e /opt/altera/nios2eds/bin/gnu/H-i686-pc-linux-gnu/bin/../lib/gcc/nios2-elf/4.7.3/../../../../../H-i686-pc-linux-gnu/nios2-elf/lib/mno-hw-mul/libc.a(lib_a-vfprintf.o)
 .debug_loc     0x00007918       0xba /opt/altera/nios2eds/bin/gnu/H-i686-pc-linux-gnu/bin/../lib/gcc/nios2-elf/4.7.3/../../../../../H-i686-pc-linux-gnu/nios2-elf/lib/mno-hw-mul/libc.a(lib_a-wsetup.o)
 .debug_loc     0x000079d2       0x20 /opt/altera/nios2eds/bin/gnu/H-i686-pc-linux-gnu/bin/../lib/gcc/nios2-elf/4.7.3/../../../../../H-i686-pc-linux-gnu/nios2-elf/lib/mno-hw-mul/libc.a(lib_a-abort.o)
 .debug_loc     0x000079f2     0x225e /opt/altera/nios2eds/bin/gnu/H-i686-pc-linux-gnu/bin/../lib/gcc/nios2-elf/4.7.3/../../../../../H-i686-pc-linux-gnu/nios2-elf/lib/mno-hw-mul/libc.a(lib_a-dtoa.o)
 .debug_loc     0x00009c50      0x259 /opt/altera/nios2eds/bin/gnu/H-i686-pc-linux-gnu/bin/../lib/gcc/nios2-elf/4.7.3/../../../../../H-i686-pc-linux-gnu/nios2-elf/lib/mno-hw-mul/libc.a(lib_a-fflush.o)
 .debug_loc     0x00009ea9      0x2a7 /opt/altera/nios2eds/bin/gnu/H-i686-pc-linux-gnu/bin/../lib/gcc/nios2-elf/4.7.3/../../../../../H-i686-pc-linux-gnu/nios2-elf/lib/mno-hw-mul/libc.a(lib_a-findfp.o)
 .debug_loc     0x0000a150      0x668 /opt/altera/nios2eds/bin/gnu/H-i686-pc-linux-gnu/bin/../lib/gcc/nios2-elf/4.7.3/../../../../../H-i686-pc-linux-gnu/nios2-elf/lib/mno-hw-mul/libc.a(lib_a-freer.o)
 .debug_loc     0x0000a7b8      0x50c /opt/altera/nios2eds/bin/gnu/H-i686-pc-linux-gnu/bin/../lib/gcc/nios2-elf/4.7.3/../../../../../H-i686-pc-linux-gnu/nios2-elf/lib/mno-hw-mul/libc.a(lib_a-fvwrite.o)
 .debug_loc     0x0000acc4      0x2ae /opt/altera/nios2eds/bin/gnu/H-i686-pc-linux-gnu/bin/../lib/gcc/nios2-elf/4.7.3/../../../../../H-i686-pc-linux-gnu/nios2-elf/lib/mno-hw-mul/libc.a(lib_a-fwalk.o)
 .debug_loc     0x0000af72      0x13e /opt/altera/nios2eds/bin/gnu/H-i686-pc-linux-gnu/bin/../lib/gcc/nios2-elf/4.7.3/../../../../../H-i686-pc-linux-gnu/nios2-elf/lib/mno-hw-mul/libc.a(lib_a-locale.o)
 .debug_loc     0x0000b0b0      0x16a /opt/altera/nios2eds/bin/gnu/H-i686-pc-linux-gnu/bin/../lib/gcc/nios2-elf/4.7.3/../../../../../H-i686-pc-linux-gnu/nios2-elf/lib/mno-hw-mul/libc.a(lib_a-makebuf.o)
 .debug_loc     0x0000b21a      0x239 /opt/altera/nios2eds/bin/gnu/H-i686-pc-linux-gnu/bin/../lib/gcc/nios2-elf/4.7.3/../../../../../H-i686-pc-linux-gnu/nios2-elf/lib/mno-hw-mul/libc.a(lib_a-memchr.o)
 .debug_loc     0x0000b453      0x29c /opt/altera/nios2eds/bin/gnu/H-i686-pc-linux-gnu/bin/../lib/gcc/nios2-elf/4.7.3/../../../../../H-i686-pc-linux-gnu/nios2-elf/lib/mno-hw-mul/libc.a(lib_a-memcpy.o)
 .debug_loc     0x0000b6ef      0x301 /opt/altera/nios2eds/bin/gnu/H-i686-pc-linux-gnu/bin/../lib/gcc/nios2-elf/4.7.3/../../../../../H-i686-pc-linux-gnu/nios2-elf/lib/mno-hw-mul/libc.a(lib_a-memmove.o)
 .debug_loc     0x0000b9f0      0x1b7 /opt/altera/nios2eds/bin/gnu/H-i686-pc-linux-gnu/bin/../lib/gcc/nios2-elf/4.7.3/../../../../../H-i686-pc-linux-gnu/nios2-elf/lib/mno-hw-mul/libc.a(lib_a-memset.o)
 .debug_loc     0x0000bba7     0x1b8a /opt/altera/nios2eds/bin/gnu/H-i686-pc-linux-gnu/bin/../lib/gcc/nios2-elf/4.7.3/../../../../../H-i686-pc-linux-gnu/nios2-elf/lib/mno-hw-mul/libc.a(lib_a-mprec.o)
 .debug_loc     0x0000d731     0x1136 /opt/altera/nios2eds/bin/gnu/H-i686-pc-linux-gnu/bin/../lib/gcc/nios2-elf/4.7.3/../../../../../H-i686-pc-linux-gnu/nios2-elf/lib/mno-hw-mul/libc.a(lib_a-reallocr.o)
 .debug_loc     0x0000e867       0x88 /opt/altera/nios2eds/bin/gnu/H-i686-pc-linux-gnu/bin/../lib/gcc/nios2-elf/4.7.3/../../../../../H-i686-pc-linux-gnu/nios2-elf/lib/mno-hw-mul/libc.a(lib_a-s_isinfd.o)
 .debug_loc     0x0000e8ef       0xa5 /opt/altera/nios2eds/bin/gnu/H-i686-pc-linux-gnu/bin/../lib/gcc/nios2-elf/4.7.3/../../../../../H-i686-pc-linux-gnu/nios2-elf/lib/mno-hw-mul/libc.a(lib_a-s_isnand.o)
 .debug_loc     0x0000e994      0x473 /opt/altera/nios2eds/bin/gnu/H-i686-pc-linux-gnu/bin/../lib/gcc/nios2-elf/4.7.3/../../../../../H-i686-pc-linux-gnu/nios2-elf/lib/mno-hw-mul/libc.a(lib_a-signal.o)
 .debug_loc     0x0000ee07       0xd3 /opt/altera/nios2eds/bin/gnu/H-i686-pc-linux-gnu/bin/../lib/gcc/nios2-elf/4.7.3/../../../../../H-i686-pc-linux-gnu/nios2-elf/lib/mno-hw-mul/libc.a(lib_a-signalr.o)
 .debug_loc     0x0000eeda      0x379 /opt/altera/nios2eds/bin/gnu/H-i686-pc-linux-gnu/bin/../lib/gcc/nios2-elf/4.7.3/../../../../../H-i686-pc-linux-gnu/nios2-elf/lib/mno-hw-mul/libc.a(lib_a-stdio.o)
 .debug_loc     0x0000f253       0xb0 /opt/altera/nios2eds/bin/gnu/H-i686-pc-linux-gnu/bin/../lib/gcc/nios2-elf/4.7.3/../../../../../H-i686-pc-linux-gnu/nios2-elf/lib/mno-hw-mul/libc.a(lib_a-strcmp.o)
 .debug_loc     0x0000f303     0x19a6 /opt/altera/nios2eds/bin/gnu/H-i686-pc-linux-gnu/bin/../lib/gcc/nios2-elf/4.7.3/../../../../../H-i686-pc-linux-gnu/nios2-elf/lib/mno-hw-mul/libc.a(lib_a-vfiprintf.o)
 .debug_loc     0x00010ca9       0xde /opt/altera/nios2eds/bin/gnu/H-i686-pc-linux-gnu/bin/../lib/gcc/nios2-elf/4.7.3/../../../../../H-i686-pc-linux-gnu/nios2-elf/lib/mno-hw-mul/libc.a(lib_a-writer.o)
 .debug_loc     0x00010d87      0x259 /opt/altera/nios2eds/bin/gnu/H-i686-pc-linux-gnu/bin/../lib/gcc/nios2-elf/4.7.3/../../../../../H-i686-pc-linux-gnu/nios2-elf/lib/mno-hw-mul/libc.a(lib_a-callocr.o)
 .debug_loc     0x00010fe0       0x86 /opt/altera/nios2eds/bin/gnu/H-i686-pc-linux-gnu/bin/../lib/gcc/nios2-elf/4.7.3/../../../../../H-i686-pc-linux-gnu/nios2-elf/lib/mno-hw-mul/libc.a(lib_a-closer.o)
 .debug_loc     0x00011066      0x136 /opt/altera/nios2eds/bin/gnu/H-i686-pc-linux-gnu/bin/../lib/gcc/nios2-elf/4.7.3/../../../../../H-i686-pc-linux-gnu/nios2-elf/lib/mno-hw-mul/libc.a(lib_a-fclose.o)
 .debug_loc     0x0001119c       0xb2 /opt/altera/nios2eds/bin/gnu/H-i686-pc-linux-gnu/bin/../lib/gcc/nios2-elf/4.7.3/../../../../../H-i686-pc-linux-gnu/nios2-elf/lib/mno-hw-mul/libc.a(lib_a-fstatr.o)
 .debug_loc     0x0001124e       0x86 /opt/altera/nios2eds/bin/gnu/H-i686-pc-linux-gnu/bin/../lib/gcc/nios2-elf/4.7.3/../../../../../H-i686-pc-linux-gnu/nios2-elf/lib/mno-hw-mul/libc.a(lib_a-isattyr.o)
 .debug_loc     0x000112d4       0xde /opt/altera/nios2eds/bin/gnu/H-i686-pc-linux-gnu/bin/../lib/gcc/nios2-elf/4.7.3/../../../../../H-i686-pc-linux-gnu/nios2-elf/lib/mno-hw-mul/libc.a(lib_a-lseekr.o)
 .debug_loc     0x000113b2       0xde /opt/altera/nios2eds/bin/gnu/H-i686-pc-linux-gnu/bin/../lib/gcc/nios2-elf/4.7.3/../../../../../H-i686-pc-linux-gnu/nios2-elf/lib/mno-hw-mul/libc.a(lib_a-readr.o)
 .debug_loc     0x00011490     0x1202 /opt/altera/nios2eds/bin/gnu/H-i686-pc-linux-gnu/bin/../lib/gcc/nios2-elf/4.7.3/mno-hw-mul/libgcc.a(_udivdi3.o)
 .debug_loc     0x00012692     0x10d6 /opt/altera/nios2eds/bin/gnu/H-i686-pc-linux-gnu/bin/../lib/gcc/nios2-elf/4.7.3/mno-hw-mul/libgcc.a(_umoddi3.o)
 .debug_loc     0x00013768       0x70 /opt/altera/nios2eds/bin/gnu/H-i686-pc-linux-gnu/bin/../lib/gcc/nios2-elf/4.7.3/mno-hw-mul/libgcc.a(_ne_df.o)
 .debug_loc     0x000137d8       0x70 /opt/altera/nios2eds/bin/gnu/H-i686-pc-linux-gnu/bin/../lib/gcc/nios2-elf/4.7.3/mno-hw-mul/libgcc.a(_gt_df.o)
 .debug_loc     0x00013848       0x70 /opt/altera/nios2eds/bin/gnu/H-i686-pc-linux-gnu/bin/../lib/gcc/nios2-elf/4.7.3/mno-hw-mul/libgcc.a(_lt_df.o)
 .debug_loc     0x000138b8      0x168 /opt/altera/nios2eds/bin/gnu/H-i686-pc-linux-gnu/bin/../lib/gcc/nios2-elf/4.7.3/mno-hw-mul/libgcc.a(_usi_to_df.o)
 .debug_loc     0x00013a20       0x58 ../legocar_firmware_microc_bsp//libucosii_bsp.a(alt_close.o)
 .debug_loc     0x00013a78       0x2c ../legocar_firmware_microc_bsp//libucosii_bsp.a(alt_dcache_flush.o)
 .debug_loc     0x00013aa4       0x2c ../legocar_firmware_microc_bsp//libucosii_bsp.a(alt_dcache_flush_all.o)
 .debug_loc     0x00013ad0       0x2c ../legocar_firmware_microc_bsp//libucosii_bsp.a(alt_dev.o)
 .debug_loc     0x00013afc       0x2c ../legocar_firmware_microc_bsp//libucosii_bsp.a(alt_exit.o)
 .debug_loc     0x00013b28       0x58 ../legocar_firmware_microc_bsp//libucosii_bsp.a(alt_flash_dev.o)
 .debug_loc     0x00013b80       0x58 ../legocar_firmware_microc_bsp//libucosii_bsp.a(alt_fstat.o)
 .debug_loc     0x00013bd8       0x2c ../legocar_firmware_microc_bsp//libucosii_bsp.a(alt_getpid.o)
 .debug_loc     0x00013c04       0x59 ../legocar_firmware_microc_bsp//libucosii_bsp.a(alt_isatty.o)
 .debug_loc     0x00013c5d       0x58 ../legocar_firmware_microc_bsp//libucosii_bsp.a(alt_kill.o)
 .debug_loc     0x00013cb5       0x58 ../legocar_firmware_microc_bsp//libucosii_bsp.a(alt_load.o)
 .debug_loc     0x00013d0d       0x58 ../legocar_firmware_microc_bsp//libucosii_bsp.a(alt_lseek.o)
 .debug_loc     0x00013d65       0x2c ../legocar_firmware_microc_bsp//libucosii_bsp.a(alt_main.o)
 .debug_loc     0x00013d91       0x58 ../legocar_firmware_microc_bsp//libucosii_bsp.a(alt_read.o)
 .debug_loc     0x00013de9       0x2c ../legocar_firmware_microc_bsp//libucosii_bsp.a(alt_release_fd.o)
 .debug_loc     0x00013e15       0x2c ../legocar_firmware_microc_bsp//libucosii_bsp.a(alt_sbrk.o)
 .debug_loc     0x00013e41       0x58 ../legocar_firmware_microc_bsp//libucosii_bsp.a(alt_tick.o)
 .debug_loc     0x00013e99       0x2c ../legocar_firmware_microc_bsp//libucosii_bsp.a(alt_usleep.o)
 .debug_loc     0x00013ec5       0x58 ../legocar_firmware_microc_bsp//libucosii_bsp.a(alt_write.o)
 .debug_loc     0x00013f1d       0x59 ../legocar_firmware_microc_bsp//libucosii_bsp.a(alt_env_lock.o)
 .debug_loc     0x00013f76       0x59 ../legocar_firmware_microc_bsp//libucosii_bsp.a(alt_malloc_lock.o)
 .debug_loc     0x00013fcf      0x605 ../legocar_firmware_microc_bsp//libucosii_bsp.a(os_core.o)
 .debug_loc     0x000145d4       0x2c ../legocar_firmware_microc_bsp//libucosii_bsp.a(os_dbg.o)
 .debug_loc     0x00014600      0x23e ../legocar_firmware_microc_bsp//libucosii_bsp.a(os_flag.o)
 .debug_loc     0x0001483e      0x134 ../legocar_firmware_microc_bsp//libucosii_bsp.a(os_mem.o)
 .debug_loc     0x00014972      0x1e4 ../legocar_firmware_microc_bsp//libucosii_bsp.a(os_q.o)
 .debug_loc     0x00014b56      0x160 ../legocar_firmware_microc_bsp//libucosii_bsp.a(os_sem.o)
 .debug_loc     0x00014cb6      0x212 ../legocar_firmware_microc_bsp//libucosii_bsp.a(os_task.o)
 .debug_loc     0x00014ec8       0xdc ../legocar_firmware_microc_bsp//libucosii_bsp.a(os_time.o)
 .debug_loc     0x00014fa4       0x84 ../legocar_firmware_microc_bsp//libucosii_bsp.a(alt_sys_init.o)
 .debug_loc     0x00015028      0x1b9 ../legocar_firmware_microc_bsp//libucosii_bsp.a(altera_avalon_epcs_flash_controller.o)
 .debug_loc     0x000151e1       0xb0 ../legocar_firmware_microc_bsp//libucosii_bsp.a(altera_avalon_jtag_uart_fd.o)
 .debug_loc     0x00015291       0xb0 ../legocar_firmware_microc_bsp//libucosii_bsp.a(altera_avalon_jtag_uart_init.o)
 .debug_loc     0x00015341       0x2c ../legocar_firmware_microc_bsp//libucosii_bsp.a(altera_avalon_jtag_uart_ioctl.o)
 .debug_loc     0x0001536d       0x2d ../legocar_firmware_microc_bsp//libucosii_bsp.a(altera_avalon_jtag_uart_read.o)
 .debug_loc     0x0001539a       0x2d ../legocar_firmware_microc_bsp//libucosii_bsp.a(altera_avalon_jtag_uart_write.o)
 .debug_loc     0x000153c7       0x58 ../legocar_firmware_microc_bsp//libucosii_bsp.a(altera_avalon_timer_sc.o)
 .debug_loc     0x0001541f       0x84 ../legocar_firmware_microc_bsp//libucosii_bsp.a(altera_avalon_uart_fd.o)
 .debug_loc     0x000154a3       0xdc ../legocar_firmware_microc_bsp//libucosii_bsp.a(altera_avalon_uart_init.o)
 .debug_loc     0x0001557f       0x59 ../legocar_firmware_microc_bsp//libucosii_bsp.a(altera_avalon_uart_read.o)
 .debug_loc     0x000155d8       0x59 ../legocar_firmware_microc_bsp//libucosii_bsp.a(altera_avalon_uart_write.o)
 .debug_loc     0x00015631      0x210 ../legocar_firmware_microc_bsp//libucosii_bsp.a(epcs_commands.o)
 .debug_loc     0x00015841       0x2c ../legocar_firmware_microc_bsp//libucosii_bsp.a(alt_alarm_start.o)
 .debug_loc     0x0001586d       0x2c ../legocar_firmware_microc_bsp//libucosii_bsp.a(alt_busy_sleep.o)
 .debug_loc     0x00015899       0x58 ../legocar_firmware_microc_bsp//libucosii_bsp.a(alt_dev_llist_insert.o)
 .debug_loc     0x000158f1       0x2c ../legocar_firmware_microc_bsp//libucosii_bsp.a(alt_do_ctors.o)
 .debug_loc     0x0001591d       0x2c ../legocar_firmware_microc_bsp//libucosii_bsp.a(alt_do_dtors.o)
 .debug_loc     0x00015949       0x2c ../legocar_firmware_microc_bsp//libucosii_bsp.a(alt_find_dev.o)
 .debug_loc     0x00015975       0x2c ../legocar_firmware_microc_bsp//libucosii_bsp.a(alt_icache_flush_all.o)
 .debug_loc     0x000159a1       0xb0 ../legocar_firmware_microc_bsp//libucosii_bsp.a(alt_iic.o)
 .debug_loc     0x00015a51       0x2c ../legocar_firmware_microc_bsp//libucosii_bsp.a(alt_iic_isr_register.o)
 .debug_loc     0x00015a7d       0x58 ../legocar_firmware_microc_bsp//libucosii_bsp.a(alt_io_redirect.o)
 .debug_loc     0x00015ad5       0x2c ../legocar_firmware_microc_bsp//libucosii_bsp.a(alt_irq_handler.o)
 .debug_loc     0x00015b01       0x84 ../legocar_firmware_microc_bsp//libucosii_bsp.a(alt_open.o)
 .debug_loc     0x00015b85       0x2c ../legocar_firmware_microc_bsp//libucosii_bsp.a(altera_nios2_irq.o)
 .debug_loc     0x00015bb1      0x1b8 ../legocar_firmware_microc_bsp//libucosii_bsp.a(os_cpu_c.o)
 .debug_loc     0x00015d69       0x2c ../legocar_firmware_microc_bsp//libucosii_bsp.a(altera_avalon_spi.o)
 .debug_loc     0x00015d95       0x2c ../legocar_firmware_microc_bsp//libucosii_bsp.a(alt_find_file.o)
 .debug_loc     0x00015dc1       0x2c ../legocar_firmware_microc_bsp//libucosii_bsp.a(alt_get_fd.o)
 .debug_loc     0x00015ded       0x2c /opt/altera/nios2eds/bin/gnu/H-i686-pc-linux-gnu/bin/../lib/gcc/nios2-elf/4.7.3/../../../../../H-i686-pc-linux-gnu/nios2-elf/lib/mno-hw-mul/libc.a(lib_a-atexit.o)
 .debug_loc     0x00015e19       0x3e /opt/altera/nios2eds/bin/gnu/H-i686-pc-linux-gnu/bin/../lib/gcc/nios2-elf/4.7.3/../../../../../H-i686-pc-linux-gnu/nios2-elf/lib/mno-hw-mul/libc.a(lib_a-exit.o)
 .debug_loc     0x00015e57      0x103 /opt/altera/nios2eds/bin/gnu/H-i686-pc-linux-gnu/bin/../lib/gcc/nios2-elf/4.7.3/../../../../../H-i686-pc-linux-gnu/nios2-elf/lib/mno-hw-mul/libc.a(lib_a-memcmp.o)
 .debug_loc     0x00015f5a      0x194 /opt/altera/nios2eds/bin/gnu/H-i686-pc-linux-gnu/bin/../lib/gcc/nios2-elf/4.7.3/../../../../../H-i686-pc-linux-gnu/nios2-elf/lib/mno-hw-mul/libc.a(lib_a-__atexit.o)
 .debug_loc     0x000160ee      0x1e1 /opt/altera/nios2eds/bin/gnu/H-i686-pc-linux-gnu/bin/../lib/gcc/nios2-elf/4.7.3/../../../../../H-i686-pc-linux-gnu/nios2-elf/lib/mno-hw-mul/libc.a(lib_a-__call_atexit.o)

.debug_macinfo
 *(.debug_macinfo)

.debug_weaknames
 *(.debug_weaknames)

.debug_funcnames
 *(.debug_funcnames)

.debug_typenames
 *(.debug_typenames)

.debug_varnames
 *(.debug_varnames)

.debug_alt_sim_info
                0x00000000       0x40
 *(.debug_alt_sim_info)
 .debug_alt_sim_info
                0x00000000       0x10 ../legocar_firmware_microc_bsp//obj/HAL/src/crt0.o
 .debug_alt_sim_info
                0x00000010       0x30 ../legocar_firmware_microc_bsp//libucosii_bsp.a(alt_busy_sleep.o)
                0x04000000                __alt_data_end = 0x4000000
                0x04000000                PROVIDE (__alt_stack_pointer, __alt_data_end)
                0x020269f8                PROVIDE (__alt_stack_limit, __alt_stack_base)
                0x020269f8                PROVIDE (__alt_heap_start, end)
                0x04000000                PROVIDE (__alt_heap_limit, 0x4000000)
OUTPUT(legocar_firmware_microc.elf elf32-littlenios2)

.debug_ranges   0x00000000      0xbc8
 .debug_ranges  0x00000000       0x20 ../legocar_firmware_microc_bsp//obj/HAL/src/crt0.o
 .debug_ranges  0x00000020       0x30 /opt/altera/nios2eds/bin/gnu/H-i686-pc-linux-gnu/bin/../lib/gcc/nios2-elf/4.7.3/mno-hw-mul/libgcc.a(_addsub_sf.o)
 .debug_ranges  0x00000050       0x58 /opt/altera/nios2eds/bin/gnu/H-i686-pc-linux-gnu/bin/../lib/gcc/nios2-elf/4.7.3/mno-hw-mul/libgcc.a(_mul_sf.o)
 .debug_ranges  0x000000a8       0x40 /opt/altera/nios2eds/bin/gnu/H-i686-pc-linux-gnu/bin/../lib/gcc/nios2-elf/4.7.3/mno-hw-mul/libgcc.a(_usi_to_sf.o)
 .debug_ranges  0x000000e8       0x38 /opt/altera/nios2eds/bin/gnu/H-i686-pc-linux-gnu/bin/../lib/gcc/nios2-elf/4.7.3/mno-hw-mul/libgcc.a(_addsub_df.o)
 .debug_ranges  0x00000120       0x78 /opt/altera/nios2eds/bin/gnu/H-i686-pc-linux-gnu/bin/../lib/gcc/nios2-elf/4.7.3/mno-hw-mul/libgcc.a(_mul_df.o)
 .debug_ranges  0x00000198       0x50 /opt/altera/nios2eds/bin/gnu/H-i686-pc-linux-gnu/bin/../lib/gcc/nios2-elf/4.7.3/mno-hw-mul/libgcc.a(_div_df.o)
 .debug_ranges  0x000001e8       0x30 /opt/altera/nios2eds/bin/gnu/H-i686-pc-linux-gnu/bin/../lib/gcc/nios2-elf/4.7.3/mno-hw-mul/libgcc.a(_si_to_df.o)
 .debug_ranges  0x00000218       0x70 /opt/altera/nios2eds/bin/gnu/H-i686-pc-linux-gnu/bin/../lib/gcc/nios2-elf/4.7.3/mno-hw-mul/libgcc.a(_muldi3.o)
 .debug_ranges  0x00000288       0x28 /opt/altera/nios2eds/bin/gnu/H-i686-pc-linux-gnu/bin/../lib/gcc/nios2-elf/4.7.3/mno-hw-mul/libgcc.a(_clzsi2.o)
 .debug_ranges  0x000002b0       0x18 /opt/altera/nios2eds/bin/gnu/H-i686-pc-linux-gnu/bin/../lib/gcc/nios2-elf/4.7.3/mno-hw-mul/libgcc.a(_pack_df.o)
 .debug_ranges  0x000002c8       0x70 /opt/altera/nios2eds/bin/gnu/H-i686-pc-linux-gnu/bin/../lib/gcc/nios2-elf/4.7.3/../../../../../H-i686-pc-linux-gnu/nios2-elf/lib/mno-hw-mul/libc.a(lib_a-mallocr.o)
 .debug_ranges  0x00000338      0x150 /opt/altera/nios2eds/bin/gnu/H-i686-pc-linux-gnu/bin/../lib/gcc/nios2-elf/4.7.3/../../../../../H-i686-pc-linux-gnu/nios2-elf/lib/mno-hw-mul/libc.a(lib_a-vfprintf.o)
 .debug_ranges  0x00000488       0x20 /opt/altera/nios2eds/bin/gnu/H-i686-pc-linux-gnu/bin/../lib/gcc/nios2-elf/4.7.3/../../../../../H-i686-pc-linux-gnu/nios2-elf/lib/mno-hw-mul/libc.a(lib_a-fflush.o)
 .debug_ranges  0x000004a8       0x18 /opt/altera/nios2eds/bin/gnu/H-i686-pc-linux-gnu/bin/../lib/gcc/nios2-elf/4.7.3/../../../../../H-i686-pc-linux-gnu/nios2-elf/lib/mno-hw-mul/libc.a(lib_a-fvwrite.o)
 .debug_ranges  0x000004c0       0x80 /opt/altera/nios2eds/bin/gnu/H-i686-pc-linux-gnu/bin/../lib/gcc/nios2-elf/4.7.3/../../../../../H-i686-pc-linux-gnu/nios2-elf/lib/mno-hw-mul/libc.a(lib_a-fwalk.o)
 .debug_ranges  0x00000540       0x40 /opt/altera/nios2eds/bin/gnu/H-i686-pc-linux-gnu/bin/../lib/gcc/nios2-elf/4.7.3/../../../../../H-i686-pc-linux-gnu/nios2-elf/lib/mno-hw-mul/libc.a(lib_a-mprec.o)
 .debug_ranges  0x00000580      0x158 /opt/altera/nios2eds/bin/gnu/H-i686-pc-linux-gnu/bin/../lib/gcc/nios2-elf/4.7.3/../../../../../H-i686-pc-linux-gnu/nios2-elf/lib/mno-hw-mul/libc.a(lib_a-reallocr.o)
 .debug_ranges  0x000006d8       0x68 /opt/altera/nios2eds/bin/gnu/H-i686-pc-linux-gnu/bin/../lib/gcc/nios2-elf/4.7.3/../../../../../H-i686-pc-linux-gnu/nios2-elf/lib/mno-hw-mul/libc.a(lib_a-vfiprintf.o)
 .debug_ranges  0x00000740       0x48 /opt/altera/nios2eds/bin/gnu/H-i686-pc-linux-gnu/bin/../lib/gcc/nios2-elf/4.7.3/../../../../../H-i686-pc-linux-gnu/nios2-elf/lib/mno-hw-mul/libc.a(lib_a-callocr.o)
 .debug_ranges  0x00000788      0x1a0 /opt/altera/nios2eds/bin/gnu/H-i686-pc-linux-gnu/bin/../lib/gcc/nios2-elf/4.7.3/mno-hw-mul/libgcc.a(_udivdi3.o)
 .debug_ranges  0x00000928      0x160 /opt/altera/nios2eds/bin/gnu/H-i686-pc-linux-gnu/bin/../lib/gcc/nios2-elf/4.7.3/mno-hw-mul/libgcc.a(_umoddi3.o)
 .debug_ranges  0x00000a88       0x48 /opt/altera/nios2eds/bin/gnu/H-i686-pc-linux-gnu/bin/../lib/gcc/nios2-elf/4.7.3/mno-hw-mul/libgcc.a(_usi_to_df.o)
 .debug_ranges  0x00000ad0       0x30 ../legocar_firmware_microc_bsp//libucosii_bsp.a(altera_avalon_jtag_uart_init.o)
 .debug_ranges  0x00000b00       0x18 ../legocar_firmware_microc_bsp//libucosii_bsp.a(altera_avalon_jtag_uart_read.o)
 .debug_ranges  0x00000b18       0x30 ../legocar_firmware_microc_bsp//libucosii_bsp.a(alt_iic.o)
 .debug_ranges  0x00000b48       0x28 ../legocar_firmware_microc_bsp//libucosii_bsp.a(alt_irq_entry.o)
 .debug_ranges  0x00000b70       0x10 ../legocar_firmware_microc_bsp//libucosii_bsp.a(alt_irq_handler.o)
 .debug_ranges  0x00000b80       0x30 ../legocar_firmware_microc_bsp//libucosii_bsp.a(alt_exception_entry.o)
 .debug_ranges  0x00000bb0       0x18 /opt/altera/nios2eds/bin/gnu/H-i686-pc-linux-gnu/bin/../lib/gcc/nios2-elf/4.7.3/../../../../../H-i686-pc-linux-gnu/nios2-elf/lib/mno-hw-mul/libc.a(lib_a-__call_atexit.o)
